---
triple:          'arm64-apple-darwin'
binary-path:     '/Users/raghiiboiibaxtor/nifti/build/ios/Release-iphoneos/gRPC-C++/grpcpp.framework/grpcpp'
relocations:
  - { offsetInCU: 0x33, offset: 0x33, size: 0x8, addend: 0x0, symName: _grpcppVersionString, symObjAddr: 0x0, symBinAddr: 0x51900, symSize: 0x0 }
  - { offsetInCU: 0x67, offset: 0x67, size: 0x8, addend: 0x0, symName: _grpcppVersionNumber, symObjAddr: 0x28, symBinAddr: 0x51928, symSize: 0x0 }
  - { offsetInCU: 0x44, offset: 0xC0, size: 0x8, addend: 0x0, symName: __ZN4grpcL17g_gli_initializerE, symObjAddr: 0x5F783, symBinAddr: 0x6D7E0, symSize: 0x0 }
  - { offsetInCU: 0x181F, offset: 0x189B, size: 0x8, addend: 0x0, symName: __ZN4grpc8internal22GrpcLibraryInitializerC2Ev, symObjAddr: 0x5D8, symBinAddr: 0x45D8, symSize: 0x120 }
  - { offsetInCU: 0x1846, offset: 0x18C2, size: 0x8, addend: 0x0, symName: __ZZN4grpc8internal22GrpcLibraryInitializerC1EvE5g_gli, symObjAddr: 0x12F8, symBinAddr: 0x6D748, symSize: 0x0 }
  - { offsetInCU: 0x185B, offset: 0x18D7, size: 0x8, addend: 0x0, symName: __ZZN4grpc8internal22GrpcLibraryInitializerC1EvE14g_core_codegen, symObjAddr: 0x1308, symBinAddr: 0x6D758, symSize: 0x0 }
  - { offsetInCU: 0xDA97, offset: 0xDB13, size: 0x8, addend: 0x0, symName: __ZNSt3__125__throw_bad_function_callB7v160006Ev, symObjAddr: 0xE4C, symBinAddr: 0x4E4C, symSize: 0x34 }
  - { offsetInCU: 0x181FC, offset: 0x18278, size: 0x8, addend: 0x0, symName: __ZN12closure_impl15closure_wrapperEPvN4absl12lts_202206236StatusE, symObjAddr: 0xD5C, symBinAddr: 0x4D5C, symSize: 0x84 }
  - { offsetInCU: 0x1A521, offset: 0x1A59D, size: 0x8, addend: 0x0, symName: __ZN4grpc5AlarmC2Ev, symObjAddr: 0x0, symBinAddr: 0x4000, symSize: 0x74 }
  - { offsetInCU: 0x1A5A9, offset: 0x1A625, size: 0x8, addend: 0x0, symName: __ZN4grpc18GrpcLibraryCodegenC2Eb, symObjAddr: 0x74, symBinAddr: 0x4074, symSize: 0x90 }
  - { offsetInCU: 0x1A602, offset: 0x1A67E, size: 0x8, addend: 0x0, symName: __ZN4grpc8internal9AlarmImplC2Ev, symObjAddr: 0x720, symBinAddr: 0x4720, symSize: 0x94 }
  - { offsetInCU: 0x1A762, offset: 0x1A7DE, size: 0x8, addend: 0x0, symName: __ZN4grpc18GrpcLibraryCodegenD2Ev, symObjAddr: 0x104, symBinAddr: 0x4104, symSize: 0x8C }
  - { offsetInCU: 0x1A7AC, offset: 0x1A828, size: 0x8, addend: 0x0, symName: __ZN4grpc5AlarmC1Ev, symObjAddr: 0x190, symBinAddr: 0x4190, symSize: 0x4 }
  - { offsetInCU: 0x1A7DA, offset: 0x1A856, size: 0x8, addend: 0x0, symName: __ZN4grpc5AlarmC1Ev, symObjAddr: 0x190, symBinAddr: 0x4190, symSize: 0x4 }
  - { offsetInCU: 0x1A7EE, offset: 0x1A86A, size: 0x8, addend: 0x0, symName: __ZN4grpc5Alarm11SetInternalEPNS_15CompletionQueueE12gpr_timespecPv, symObjAddr: 0x194, symBinAddr: 0x4194, symSize: 0x8 }
  - { offsetInCU: 0x1A86D, offset: 0x1A8E9, size: 0x8, addend: 0x0, symName: __ZN4grpc8internal9AlarmImpl3SetEPNS_15CompletionQueueE12gpr_timespecPv, symObjAddr: 0x19C, symBinAddr: 0x419C, symSize: 0x13C }
  - { offsetInCU: 0x1ACFA, offset: 0x1AD76, size: 0x8, addend: 0x0, symName: __ZN9grpc_core26ApplicationCallbackExecCtx3SetEPS0_m, symObjAddr: 0x8C0, symBinAddr: 0x48C0, symSize: 0x54 }
  - { offsetInCU: 0x1ADA3, offset: 0x1AE1F, size: 0x8, addend: 0x0, symName: __ZN9grpc_core7ExecCtxC2Ev, symObjAddr: 0x914, symBinAddr: 0x4914, symSize: 0x80 }
  - { offsetInCU: 0x1AEEF, offset: 0x1AF6B, size: 0x8, addend: 0x0, symName: __ZN9grpc_core7ExecCtxD2Ev, symObjAddr: 0xAB4, symBinAddr: 0x4AB4, symSize: 0x70 }
  - { offsetInCU: 0x1AF90, offset: 0x1B00C, size: 0x8, addend: 0x0, symName: __ZN9grpc_core26ApplicationCallbackExecCtxD2Ev, symObjAddr: 0xB24, symBinAddr: 0x4B24, symSize: 0xDC }
  - { offsetInCU: 0x1B17D, offset: 0x1B1F9, size: 0x8, addend: 0x0, symName: __ZN4grpc5Alarm11SetInternalE12gpr_timespecNSt3__18functionIFvbEEE, symObjAddr: 0x2D8, symBinAddr: 0x42D8, symSize: 0xE8 }
  - { offsetInCU: 0x1B390, offset: 0x1B40C, size: 0x8, addend: 0x0, symName: __ZNSt3__110__function12__value_funcIFvbEEC2B7v160006EOS3_, symObjAddr: 0xE98, symBinAddr: 0x4E98, symSize: 0x64 }
  - { offsetInCU: 0x1B3DF, offset: 0x1B45B, size: 0x8, addend: 0x0, symName: __ZN4grpc8internal9AlarmImpl3SetE12gpr_timespecNSt3__18functionIFvbEEE, symObjAddr: 0x3C0, symBinAddr: 0x43C0, symSize: 0xEC }
  - { offsetInCU: 0x1B6D5, offset: 0x1B751, size: 0x8, addend: 0x0, symName: __ZNSt3__110__function12__value_funcIFvbEEaSB7v160006EOS3_, symObjAddr: 0xC00, symBinAddr: 0x4C00, symSize: 0x90 }
  - { offsetInCU: 0x1B76D, offset: 0x1B7E9, size: 0x8, addend: 0x0, symName: __ZN4grpc5AlarmD2Ev, symObjAddr: 0x4AC, symBinAddr: 0x44AC, symSize: 0x3C }
  - { offsetInCU: 0x1B7BD, offset: 0x1B839, size: 0x8, addend: 0x0, symName: __ZN4grpc8internal9AlarmImpl7DestroyEv, symObjAddr: 0x4E8, symBinAddr: 0x44E8, symSize: 0x48 }
  - { offsetInCU: 0x1B85A, offset: 0x1B8D6, size: 0x8, addend: 0x0, symName: __ZN4grpc8internal9AlarmImpl6CancelEv, symObjAddr: 0x55C, symBinAddr: 0x455C, symSize: 0x7C }
  - { offsetInCU: 0x1BA1E, offset: 0x1BA9A, size: 0x8, addend: 0x0, symName: __ZN4grpc5AlarmD1Ev, symObjAddr: 0x53C, symBinAddr: 0x453C, symSize: 0x4 }
  - { offsetInCU: 0x1BA41, offset: 0x1BABD, size: 0x8, addend: 0x0, symName: __ZN4grpc5AlarmD1Ev, symObjAddr: 0x53C, symBinAddr: 0x453C, symSize: 0x4 }
  - { offsetInCU: 0x1BA76, offset: 0x1BAF2, size: 0x8, addend: 0x0, symName: __ZN4grpc5AlarmD0Ev, symObjAddr: 0x540, symBinAddr: 0x4540, symSize: 0x14 }
  - { offsetInCU: 0x1BAD4, offset: 0x1BB50, size: 0x8, addend: 0x0, symName: __ZN4grpc5Alarm6CancelEv, symObjAddr: 0x554, symBinAddr: 0x4554, symSize: 0x8 }
  - { offsetInCU: 0x1BB8B, offset: 0x1BC07, size: 0x8, addend: 0x0, symName: __ZN4grpc8internal11GrpcLibraryD1Ev, symObjAddr: 0x6F8, symBinAddr: 0x46F8, symSize: 0x4 }
  - { offsetInCU: 0x1BBB6, offset: 0x1BC32, size: 0x8, addend: 0x0, symName: __ZN4grpc8internal11GrpcLibraryD0Ev, symObjAddr: 0x6FC, symBinAddr: 0x46FC, symSize: 0x4 }
  - { offsetInCU: 0x1BBE1, offset: 0x1BC5D, size: 0x8, addend: 0x0, symName: __ZN4grpc8internal11GrpcLibrary4initEv, symObjAddr: 0x700, symBinAddr: 0x4700, symSize: 0x4 }
  - { offsetInCU: 0x1BC09, offset: 0x1BC85, size: 0x8, addend: 0x0, symName: __ZN4grpc8internal11GrpcLibrary4initEv, symObjAddr: 0x700, symBinAddr: 0x4700, symSize: 0x4 }
  - { offsetInCU: 0x1BC1C, offset: 0x1BC98, size: 0x8, addend: 0x0, symName: __ZN4grpc8internal11GrpcLibrary8shutdownEv, symObjAddr: 0x704, symBinAddr: 0x4704, symSize: 0x4 }
  - { offsetInCU: 0x1BC44, offset: 0x1BCC0, size: 0x8, addend: 0x0, symName: __ZN4grpc8internal11GrpcLibrary8shutdownEv, symObjAddr: 0x704, symBinAddr: 0x4704, symSize: 0x4 }
  - { offsetInCU: 0x1BC57, offset: 0x1BCD3, size: 0x8, addend: 0x0, symName: __ZN4grpc18GrpcLibraryCodegenD1Ev, symObjAddr: 0x708, symBinAddr: 0x4708, symSize: 0x4 }
  - { offsetInCU: 0x1BC7A, offset: 0x1BCF6, size: 0x8, addend: 0x0, symName: __ZN4grpc18GrpcLibraryCodegenD1Ev, symObjAddr: 0x708, symBinAddr: 0x4708, symSize: 0x4 }
  - { offsetInCU: 0x1BCAC, offset: 0x1BD28, size: 0x8, addend: 0x0, symName: __ZN4grpc18GrpcLibraryCodegenD0Ev, symObjAddr: 0x70C, symBinAddr: 0x470C, symSize: 0x14 }
  - { offsetInCU: 0x1BDAD, offset: 0x1BE29, size: 0x8, addend: 0x0, symName: __ZN4grpc8internal9AlarmImplD1Ev, symObjAddr: 0x7B4, symBinAddr: 0x47B4, symSize: 0x60 }
  - { offsetInCU: 0x1BE93, offset: 0x1BF0F, size: 0x8, addend: 0x0, symName: __ZN4grpc8internal9AlarmImplD0Ev, symObjAddr: 0x814, symBinAddr: 0x4814, symSize: 0x60 }
  - { offsetInCU: 0x1BF83, offset: 0x1BFFF, size: 0x8, addend: 0x0, symName: __ZN4grpc8internal9AlarmImpl14FinalizeResultEPPvPb, symObjAddr: 0x874, symBinAddr: 0x4874, symSize: 0x48 }
  - { offsetInCU: 0x1C003, offset: 0x1C07F, size: 0x8, addend: 0x0, symName: __ZN9grpc_core7ExecCtxD1Ev, symObjAddr: 0x8BC, symBinAddr: 0x48BC, symSize: 0x4 }
  - { offsetInCU: 0x1C026, offset: 0x1C0A2, size: 0x8, addend: 0x0, symName: __ZN9grpc_core7ExecCtxD1Ev, symObjAddr: 0x8BC, symBinAddr: 0x48BC, symSize: 0x4 }
  - { offsetInCU: 0x1C0E7, offset: 0x1C163, size: 0x8, addend: 0x0, symName: __ZN9grpc_core7ExecCtxD0Ev, symObjAddr: 0x994, symBinAddr: 0x4994, symSize: 0x18 }
  - { offsetInCU: 0x1C159, offset: 0x1C1D5, size: 0x8, addend: 0x0, symName: __ZN9grpc_core7ExecCtx18CheckReadyToFinishEv, symObjAddr: 0x9AC, symBinAddr: 0x49AC, symSize: 0x8 }
  - { offsetInCU: 0x1C2E6, offset: 0x1C362, size: 0x8, addend: 0x0, symName: __ZZN4grpc8internal9AlarmImpl3SetEPNS_15CompletionQueueE12gpr_timespecPvENUlS5_N4absl12lts_202206236StatusEE_8__invokeES5_S8_, symObjAddr: 0x9B4, symBinAddr: 0x49B4, symSize: 0xCC }
  - { offsetInCU: 0x1C5C6, offset: 0x1C642, size: 0x8, addend: 0x0, symName: __ZN4absl12lts_202206236StatusD1Ev, symObjAddr: 0xA80, symBinAddr: 0x4A80, symSize: 0x30 }
  - { offsetInCU: 0x1C63B, offset: 0x1C6B7, size: 0x8, addend: 0x0, symName: __ZZZN4grpc8internal9AlarmImpl3SetEPNS_15CompletionQueueE12gpr_timespecPvENKUlS5_N4absl12lts_202206236StatusEE_clES5_S8_ENUlS5_P18grpc_cq_completionE_8__invokeES5_SB_, symObjAddr: 0xAB0, symBinAddr: 0x4AB0, symSize: 0x4 }
  - { offsetInCU: 0x1C728, offset: 0x1C7A4, size: 0x8, addend: 0x0, symName: __ZZN4grpc8internal9AlarmImpl3SetE12gpr_timespecNSt3__18functionIFvbEEEENUlPvN4absl12lts_202206236StatusEE_8__invokeES7_SA_, symObjAddr: 0xC90, symBinAddr: 0x4C90, symSize: 0xCC }
  - { offsetInCU: 0x1CAB4, offset: 0x1CB30, size: 0x8, addend: 0x0, symName: __ZZZN4grpc8internal9AlarmImpl3SetE12gpr_timespecNSt3__18functionIFvbEEEENKUlPvN4absl12lts_202206236StatusEE_clES7_SA_ENUlS7_SA_E_8__invokeES7_SA_, symObjAddr: 0xDE0, symBinAddr: 0x4DE0, symSize: 0x6C }
  - { offsetInCU: 0x1CBD6, offset: 0x1CC52, size: 0x8, addend: 0x0, symName: __ZNSt3__125__throw_bad_function_callB7v160006Ev, symObjAddr: 0xE4C, symBinAddr: 0x4E4C, symSize: 0x34 }
  - { offsetInCU: 0x1CC52, offset: 0x1CCCE, size: 0x8, addend: 0x0, symName: __ZNSt3__117bad_function_callD1Ev, symObjAddr: 0xE80, symBinAddr: 0x4E80, symSize: 0x4 }
  - { offsetInCU: 0x1CC74, offset: 0x1CCF0, size: 0x8, addend: 0x0, symName: __ZNSt3__117bad_function_callD1Ev, symObjAddr: 0xE80, symBinAddr: 0x4E80, symSize: 0x4 }
  - { offsetInCU: 0x1CCA7, offset: 0x1CD23, size: 0x8, addend: 0x0, symName: __ZNSt3__117bad_function_callD0Ev, symObjAddr: 0xE84, symBinAddr: 0x4E84, symSize: 0x14 }
  - { offsetInCU: 0x26, offset: 0x1CDAE, size: 0x8, addend: 0x0, symName: __ZN4grpc19AsyncGenericService11RequestCallEPNS_20GenericServerContextEPNS_23ServerAsyncReaderWriterINS_10ByteBufferES4_EEPNS_15CompletionQueueEPNS_21ServerCompletionQueueEPv, symObjAddr: 0x0, symBinAddr: 0x4F08, symSize: 0x8 }
  - { offsetInCU: 0x20B7C, offset: 0x3D904, size: 0x8, addend: 0x0, symName: __ZN4grpc19AsyncGenericService11RequestCallEPNS_20GenericServerContextEPNS_23ServerAsyncReaderWriterINS_10ByteBufferES4_EEPNS_15CompletionQueueEPNS_21ServerCompletionQueueEPv, symObjAddr: 0x0, symBinAddr: 0x4F08, symSize: 0x8 }
  - { offsetInCU: 0x20C21, offset: 0x3D9A9, size: 0x8, addend: 0x0, symName: __ZN4grpc15ServerInterface23RequestAsyncGenericCallEPNS_20GenericServerContextEPNS_8internal29ServerAsyncStreamingInterfaceEPNS_15CompletionQueueEPNS_21ServerCompletionQueueEPv, symObjAddr: 0x8, symBinAddr: 0x4F10, symSize: 0x88 }
  - { offsetInCU: 0x26, offset: 0x3DA49, size: 0x8, addend: 0x0, symName: __ZN4grpc20AuthPropertyIteratorC2Ev, symObjAddr: 0x0, symBinAddr: 0x4F98, symSize: 0xC }
  - { offsetInCU: 0x41A1, offset: 0x41BC4, size: 0x8, addend: 0x0, symName: __ZN4grpc20AuthPropertyIteratorC2Ev, symObjAddr: 0x0, symBinAddr: 0x4F98, symSize: 0xC }
  - { offsetInCU: 0x41E2, offset: 0x41C05, size: 0x8, addend: 0x0, symName: __ZN4grpc20AuthPropertyIteratorC1Ev, symObjAddr: 0xC, symBinAddr: 0x4FA4, symSize: 0xC }
  - { offsetInCU: 0x4210, offset: 0x41C33, size: 0x8, addend: 0x0, symName: __ZN4grpc20AuthPropertyIteratorC1Ev, symObjAddr: 0xC, symBinAddr: 0x4FA4, symSize: 0xC }
  - { offsetInCU: 0x4229, offset: 0x41C4C, size: 0x8, addend: 0x0, symName: __ZN4grpc20AuthPropertyIteratorC2EPK18grpc_auth_propertyPK27grpc_auth_property_iterator, symObjAddr: 0x18, symBinAddr: 0x4FB0, symSize: 0x18 }
  - { offsetInCU: 0x428B, offset: 0x41CAE, size: 0x8, addend: 0x0, symName: __ZN4grpc20AuthPropertyIteratorC1EPK18grpc_auth_propertyPK27grpc_auth_property_iterator, symObjAddr: 0x30, symBinAddr: 0x4FC8, symSize: 0x18 }
  - { offsetInCU: 0x42D5, offset: 0x41CF8, size: 0x8, addend: 0x0, symName: __ZN4grpc20AuthPropertyIteratorC1EPK18grpc_auth_propertyPK27grpc_auth_property_iterator, symObjAddr: 0x30, symBinAddr: 0x4FC8, symSize: 0x18 }
  - { offsetInCU: 0x42FC, offset: 0x41D1F, size: 0x8, addend: 0x0, symName: __ZN4grpc20AuthPropertyIteratorD2Ev, symObjAddr: 0x48, symBinAddr: 0x4FE0, symSize: 0x4 }
  - { offsetInCU: 0x4327, offset: 0x41D4A, size: 0x8, addend: 0x0, symName: __ZN4grpc20AuthPropertyIteratorD1Ev, symObjAddr: 0x4C, symBinAddr: 0x4FE4, symSize: 0x4 }
  - { offsetInCU: 0x4352, offset: 0x41D75, size: 0x8, addend: 0x0, symName: __ZN4grpc20AuthPropertyIteratorppEv, symObjAddr: 0x50, symBinAddr: 0x4FE8, symSize: 0x54 }
  - { offsetInCU: 0x43CF, offset: 0x41DF2, size: 0x8, addend: 0x0, symName: __ZN4grpc20AuthPropertyIteratorppEi, symObjAddr: 0xA4, symBinAddr: 0x503C, symSize: 0x58 }
  - { offsetInCU: 0x444E, offset: 0x41E71, size: 0x8, addend: 0x0, symName: __ZNK4grpc20AuthPropertyIteratoreqERKS0_, symObjAddr: 0xFC, symBinAddr: 0x5094, symSize: 0x28 }
  - { offsetInCU: 0x44A1, offset: 0x41EC4, size: 0x8, addend: 0x0, symName: __ZNK4grpc20AuthPropertyIteratorneERKS0_, symObjAddr: 0x124, symBinAddr: 0x50BC, symSize: 0x2C }
  - { offsetInCU: 0x44DA, offset: 0x41EFD, size: 0x8, addend: 0x0, symName: __ZNK4grpc20AuthPropertyIteratorneERKS0_, symObjAddr: 0x124, symBinAddr: 0x50BC, symSize: 0x2C }
  - { offsetInCU: 0x4641, offset: 0x42064, size: 0x8, addend: 0x0, symName: __ZN4grpc20AuthPropertyIteratordeEv, symObjAddr: 0x150, symBinAddr: 0x50E8, symSize: 0x40 }
  - { offsetInCU: 0x51, offset: 0x421B1, size: 0x8, addend: 0x0, symName: __ZN9grpc_core19NoDestructSingletonINS_15activity_detail10UnwakeableEE6value_E, symObjAddr: 0x1780, symBinAddr: 0x6D768, symSize: 0x0 }
  - { offsetInCU: 0x27C32, offset: 0x69D92, size: 0x8, addend: 0x0, symName: __ZN9grpc_core26BinderClientChannelFactory16CreateSubchannelERK21grpc_resolved_addressRKNS_11ChannelArgsE, symObjAddr: 0x0, symBinAddr: 0x5128, symSize: 0x144 }
  - { offsetInCU: 0x280BD, offset: 0x6A21D, size: 0x8, addend: 0x0, symName: __ZN9grpc_core26BinderClientChannelFactoryD1Ev, symObjAddr: 0x144, symBinAddr: 0x526C, symSize: 0x4 }
  - { offsetInCU: 0x280E8, offset: 0x6A248, size: 0x8, addend: 0x0, symName: __ZN9grpc_core26BinderClientChannelFactoryD0Ev, symObjAddr: 0x148, symBinAddr: 0x5270, symSize: 0x4 }
  - { offsetInCU: 0x28113, offset: 0x6A273, size: 0x8, addend: 0x0, symName: __ZN9grpc_core15activity_detail10Unwakeable6WakeupEv, symObjAddr: 0x14C, symBinAddr: 0x5274, symSize: 0x4 }
  - { offsetInCU: 0x28138, offset: 0x6A298, size: 0x8, addend: 0x0, symName: __ZN9grpc_core15activity_detail10Unwakeable4DropEv, symObjAddr: 0x150, symBinAddr: 0x5278, symSize: 0x4 }
  - { offsetInCU: 0x28338, offset: 0x6A498, size: 0x8, addend: 0x0, symName: __ZN9grpc_core19SubchannelConnector6OrphanEv, symObjAddr: 0x154, symBinAddr: 0x527C, symSize: 0xCC }
  - { offsetInCU: 0x285E6, offset: 0x6A746, size: 0x8, addend: 0x0, symName: __ZNSt3__16vectorIN4absl12lts_202206236StatusENS_9allocatorIS3_EEED2B7v160006Ev, symObjAddr: 0x4B0, symBinAddr: 0x559C, symSize: 0x38 }
  - { offsetInCU: 0x28673, offset: 0x6A7D3, size: 0x8, addend: 0x0, symName: __ZN9grpc_core8RefCount5UnrefEv, symObjAddr: 0x58C, symBinAddr: 0x5678, symSize: 0x74 }
  - { offsetInCU: 0x28721, offset: 0x6A881, size: 0x8, addend: 0x0, symName: __ZN12_GLOBAL__N_115BinderConnector11OnConnectedENSt3__110unique_ptrIN11grpc_binder6BinderENS1_14default_deleteIS4_EEEE, symObjAddr: 0x600, symBinAddr: 0x56EC, symSize: 0x208 }
  - { offsetInCU: 0x28877, offset: 0x6A9D7, size: 0x8, addend: 0x0, symName: __ZN12_GLOBAL__N_115BinderConnectorD1Ev, symObjAddr: 0x220, symBinAddr: 0x5348, symSize: 0x44 }
  - { offsetInCU: 0x28A29, offset: 0x6AB89, size: 0x8, addend: 0x0, symName: __ZN12_GLOBAL__N_115BinderConnectorD0Ev, symObjAddr: 0x264, symBinAddr: 0x538C, symSize: 0x14 }
  - { offsetInCU: 0x29039, offset: 0x6B199, size: 0x8, addend: 0x0, symName: __ZN12_GLOBAL__N_115BinderConnector7ConnectERKN9grpc_core19SubchannelConnector4ArgsEPNS2_6ResultEP12grpc_closure, symObjAddr: 0x278, symBinAddr: 0x53A0, symSize: 0x1F8 }
  - { offsetInCU: 0x297B2, offset: 0x6B912, size: 0x8, addend: 0x0, symName: __ZN9grpc_core8RefCount3RefEl, symObjAddr: 0x808, symBinAddr: 0x58F4, symSize: 0x5C }
  - { offsetInCU: 0x2985C, offset: 0x6B9BC, size: 0x8, addend: 0x0, symName: __ZN9grpc_core13RefCountedPtrINS_19SubchannelConnectorEED2Ev, symObjAddr: 0x864, symBinAddr: 0x5950, symSize: 0x4C }
  - { offsetInCU: 0x29BE4, offset: 0x6BD44, size: 0x8, addend: 0x0, symName: __ZN12_GLOBAL__N_115BinderConnector7ConnectERKN9grpc_core19SubchannelConnector4ArgsEPNS2_6ResultEP12grpc_closure.cold.1, symObjAddr: 0xBA4, symBinAddr: 0x4C034, symSize: 0x34 }
  - { offsetInCU: 0x29BFC, offset: 0x6BD5C, size: 0x8, addend: 0x0, symName: __ZN12_GLOBAL__N_115BinderConnector7ConnectERKN9grpc_core19SubchannelConnector4ArgsEPNS2_6ResultEP12grpc_closure.cold.4, symObjAddr: 0xC40, symBinAddr: 0x4C0D0, symSize: 0x34 }
  - { offsetInCU: 0x29C14, offset: 0x6BD74, size: 0x8, addend: 0x0, symName: __ZN12_GLOBAL__N_115BinderConnector7ConnectERKN9grpc_core19SubchannelConnector4ArgsEPNS2_6ResultEP12grpc_closure.cold.3, symObjAddr: 0xC0C, symBinAddr: 0x4C09C, symSize: 0x34 }
  - { offsetInCU: 0x29C2C, offset: 0x6BD8C, size: 0x8, addend: 0x0, symName: __ZN12_GLOBAL__N_115BinderConnector7ConnectERKN9grpc_core19SubchannelConnector4ArgsEPNS2_6ResultEP12grpc_closure.cold.2, symObjAddr: 0xBD8, symBinAddr: 0x4C068, symSize: 0x34 }
  - { offsetInCU: 0x29C44, offset: 0x6BDA4, size: 0x8, addend: 0x0, symName: __ZN12_GLOBAL__N_115BinderConnector8ShutdownEN4absl12lts_202206236StatusE, symObjAddr: 0x470, symBinAddr: 0x5598, symSize: 0x4 }
  - { offsetInCU: 0x29CC6, offset: 0x6BE26, size: 0x8, addend: 0x0, symName: __ZNSt3__16vectorIN4absl12lts_202206236StatusENS_9allocatorIS3_EEE16__destroy_vectorclB7v160006Ev, symObjAddr: 0x4E8, symBinAddr: 0x55D4, symSize: 0x84 }
  - { offsetInCU: 0x29EFC, offset: 0x6C05C, size: 0x8, addend: 0x0, symName: __ZNSt3__19allocatorIN4absl12lts_202206236StatusEE7destroyB7v160006EPS3_, symObjAddr: 0x56C, symBinAddr: 0x5658, symSize: 0x20 }
  - { offsetInCU: 0x29FB1, offset: 0x6C111, size: 0x8, addend: 0x0, symName: __ZN9grpc_core8RefCount5UnrefEv.cold.1, symObjAddr: 0xC74, symBinAddr: 0x4C104, symSize: 0x34 }
  - { offsetInCU: 0x2A314, offset: 0x6C474, size: 0x8, addend: 0x0, symName: __ZN12_GLOBAL__N_115BinderConnector11OnConnectedENSt3__110unique_ptrIN11grpc_binder6BinderENS1_14default_deleteIS4_EEEE, symObjAddr: 0x600, symBinAddr: 0x56EC, symSize: 0x208 }
  - { offsetInCU: 0x2AD60, offset: 0x6CEC0, size: 0x8, addend: 0x0, symName: __ZN12_GLOBAL__N_115BinderConnector11OnConnectedENSt3__110unique_ptrIN11grpc_binder6BinderENS1_14default_deleteIS4_EEEE.cold.1, symObjAddr: 0xCA8, symBinAddr: 0x4C138, symSize: 0x34 }
  - { offsetInCU: 0x2AD78, offset: 0x6CED8, size: 0x8, addend: 0x0, symName: __ZN12_GLOBAL__N_115BinderConnector11OnConnectedENSt3__110unique_ptrIN11grpc_binder6BinderENS1_14default_deleteIS4_EEEE.cold.2, symObjAddr: 0xCDC, symBinAddr: 0x4C16C, symSize: 0x34 }
  - { offsetInCU: 0x2AD90, offset: 0x6CEF0, size: 0x8, addend: 0x0, symName: __ZN12_GLOBAL__N_115BinderConnector11OnConnectedENSt3__110unique_ptrIN11grpc_binder6BinderENS1_14default_deleteIS4_EEEE.cold.3, symObjAddr: 0xD10, symBinAddr: 0x4C1A0, symSize: 0x34 }
  - { offsetInCU: 0x2ADA8, offset: 0x6CF08, size: 0x8, addend: 0x0, symName: __ZNSt3__110shared_ptrIN4grpc12experimental6binder14SecurityPolicyEED2B7v160006Ev, symObjAddr: 0x8B4, symBinAddr: 0x599C, symSize: 0x58 }
  - { offsetInCU: 0x2AEB9, offset: 0x6D019, size: 0x8, addend: 0x0, symName: __ZNSt3__110__function6__funcINS_6__bindIMN12_GLOBAL__N_115BinderConnectorEFvNS_10unique_ptrIN11grpc_binder6BinderENS_14default_deleteIS7_EEEEEJPS4_RKNS_12placeholders4__phILi1EEEEEENS_9allocatorISJ_EEFvSA_EED1Ev, symObjAddr: 0xA1C, symBinAddr: 0x59F4, symSize: 0x4 }
  - { offsetInCU: 0x2AEE5, offset: 0x6D045, size: 0x8, addend: 0x0, symName: __ZNSt3__110__function6__funcINS_6__bindIMN12_GLOBAL__N_115BinderConnectorEFvNS_10unique_ptrIN11grpc_binder6BinderENS_14default_deleteIS7_EEEEEJPS4_RKNS_12placeholders4__phILi1EEEEEENS_9allocatorISJ_EEFvSA_EED0Ev, symObjAddr: 0xA20, symBinAddr: 0x59F8, symSize: 0x4 }
  - { offsetInCU: 0x2B0D2, offset: 0x6D232, size: 0x8, addend: 0x0, symName: __ZNKSt3__110__function6__funcINS_6__bindIMN12_GLOBAL__N_115BinderConnectorEFvNS_10unique_ptrIN11grpc_binder6BinderENS_14default_deleteIS7_EEEEEJPS4_RKNS_12placeholders4__phILi1EEEEEENS_9allocatorISJ_EEFvSA_EE7__cloneEv, symObjAddr: 0xA24, symBinAddr: 0x59FC, symSize: 0x40 }
  - { offsetInCU: 0x2B40A, offset: 0x6D56A, size: 0x8, addend: 0x0, symName: __ZNKSt3__110__function6__funcINS_6__bindIMN12_GLOBAL__N_115BinderConnectorEFvNS_10unique_ptrIN11grpc_binder6BinderENS_14default_deleteIS7_EEEEEJPS4_RKNS_12placeholders4__phILi1EEEEEENS_9allocatorISJ_EEFvSA_EE7__cloneEPNS0_6__baseISM_EE, symObjAddr: 0xA64, symBinAddr: 0x5A3C, symSize: 0x20 }
  - { offsetInCU: 0x2B443, offset: 0x6D5A3, size: 0x8, addend: 0x0, symName: __ZNKSt3__110__function6__funcINS_6__bindIMN12_GLOBAL__N_115BinderConnectorEFvNS_10unique_ptrIN11grpc_binder6BinderENS_14default_deleteIS7_EEEEEJPS4_RKNS_12placeholders4__phILi1EEEEEENS_9allocatorISJ_EEFvSA_EE7__cloneEPNS0_6__baseISM_EE, symObjAddr: 0xA64, symBinAddr: 0x5A3C, symSize: 0x20 }
  - { offsetInCU: 0x2B472, offset: 0x6D5D2, size: 0x8, addend: 0x0, symName: __ZNKSt3__110__function6__funcINS_6__bindIMN12_GLOBAL__N_115BinderConnectorEFvNS_10unique_ptrIN11grpc_binder6BinderENS_14default_deleteIS7_EEEEEJPS4_RKNS_12placeholders4__phILi1EEEEEENS_9allocatorISJ_EEFvSA_EE7__cloneEPNS0_6__baseISM_EE, symObjAddr: 0xA64, symBinAddr: 0x5A3C, symSize: 0x20 }
  - { offsetInCU: 0x2B589, offset: 0x6D6E9, size: 0x8, addend: 0x0, symName: __ZNSt3__110__function6__funcINS_6__bindIMN12_GLOBAL__N_115BinderConnectorEFvNS_10unique_ptrIN11grpc_binder6BinderENS_14default_deleteIS7_EEEEEJPS4_RKNS_12placeholders4__phILi1EEEEEENS_9allocatorISJ_EEFvSA_EE7destroyEv, symObjAddr: 0xA84, symBinAddr: 0x5A5C, symSize: 0x4 }
  - { offsetInCU: 0x2B5DC, offset: 0x6D73C, size: 0x8, addend: 0x0, symName: __ZNSt3__110__function6__funcINS_6__bindIMN12_GLOBAL__N_115BinderConnectorEFvNS_10unique_ptrIN11grpc_binder6BinderENS_14default_deleteIS7_EEEEEJPS4_RKNS_12placeholders4__phILi1EEEEEENS_9allocatorISJ_EEFvSA_EE18destroy_deallocateEv, symObjAddr: 0xA88, symBinAddr: 0x5A60, symSize: 0x4 }
  - { offsetInCU: 0x2B613, offset: 0x6D773, size: 0x8, addend: 0x0, symName: __ZNSt3__110__function6__funcINS_6__bindIMN12_GLOBAL__N_115BinderConnectorEFvNS_10unique_ptrIN11grpc_binder6BinderENS_14default_deleteIS7_EEEEEJPS4_RKNS_12placeholders4__phILi1EEEEEENS_9allocatorISJ_EEFvSA_EE18destroy_deallocateEv, symObjAddr: 0xA88, symBinAddr: 0x5A60, symSize: 0x4 }
  - { offsetInCU: 0x2B637, offset: 0x6D797, size: 0x8, addend: 0x0, symName: __ZNSt3__110__function6__funcINS_6__bindIMN12_GLOBAL__N_115BinderConnectorEFvNS_10unique_ptrIN11grpc_binder6BinderENS_14default_deleteIS7_EEEEEJPS4_RKNS_12placeholders4__phILi1EEEEEENS_9allocatorISJ_EEFvSA_EE18destroy_deallocateEv, symObjAddr: 0xA88, symBinAddr: 0x5A60, symSize: 0x4 }
  - { offsetInCU: 0x2B663, offset: 0x6D7C3, size: 0x8, addend: 0x0, symName: __ZNSt3__110__function6__funcINS_6__bindIMN12_GLOBAL__N_115BinderConnectorEFvNS_10unique_ptrIN11grpc_binder6BinderENS_14default_deleteIS7_EEEEEJPS4_RKNS_12placeholders4__phILi1EEEEEENS_9allocatorISJ_EEFvSA_EE18destroy_deallocateEv, symObjAddr: 0xA88, symBinAddr: 0x5A60, symSize: 0x4 }
  - { offsetInCU: 0x2B68A, offset: 0x6D7EA, size: 0x8, addend: 0x0, symName: __ZNSt3__110__function6__funcINS_6__bindIMN12_GLOBAL__N_115BinderConnectorEFvNS_10unique_ptrIN11grpc_binder6BinderENS_14default_deleteIS7_EEEEEJPS4_RKNS_12placeholders4__phILi1EEEEEENS_9allocatorISJ_EEFvSA_EE18destroy_deallocateEv, symObjAddr: 0xA88, symBinAddr: 0x5A60, symSize: 0x4 }
  - { offsetInCU: 0x2B741, offset: 0x6D8A1, size: 0x8, addend: 0x0, symName: __ZNSt3__110__function6__funcINS_6__bindIMN12_GLOBAL__N_115BinderConnectorEFvNS_10unique_ptrIN11grpc_binder6BinderENS_14default_deleteIS7_EEEEEJPS4_RKNS_12placeholders4__phILi1EEEEEENS_9allocatorISJ_EEFvSA_EEclEOSA_, symObjAddr: 0xA8C, symBinAddr: 0x5A64, symSize: 0x88 }
  - { offsetInCU: 0x2BA4B, offset: 0x6DBAB, size: 0x8, addend: 0x0, symName: __ZNKSt3__110__function6__funcINS_6__bindIMN12_GLOBAL__N_115BinderConnectorEFvNS_10unique_ptrIN11grpc_binder6BinderENS_14default_deleteIS7_EEEEEJPS4_RKNS_12placeholders4__phILi1EEEEEENS_9allocatorISJ_EEFvSA_EE6targetERKSt9type_info, symObjAddr: 0xB14, symBinAddr: 0x5AEC, symSize: 0x3C }
  - { offsetInCU: 0x2BA9B, offset: 0x6DBFB, size: 0x8, addend: 0x0, symName: __ZNKSt9type_infoeqB7v160006ERKS_, symObjAddr: 0xB5C, symBinAddr: 0x5B34, symSize: 0x48 }
  - { offsetInCU: 0x2BB29, offset: 0x6DC89, size: 0x8, addend: 0x0, symName: __ZNKSt3__110__function6__funcINS_6__bindIMN12_GLOBAL__N_115BinderConnectorEFvNS_10unique_ptrIN11grpc_binder6BinderENS_14default_deleteIS7_EEEEEJPS4_RKNS_12placeholders4__phILi1EEEEEENS_9allocatorISJ_EEFvSA_EE11target_typeEv, symObjAddr: 0xB50, symBinAddr: 0x5B28, symSize: 0xC }
  - { offsetInCU: 0x2BB84, offset: 0x6DCE4, size: 0x8, addend: 0x0, symName: _OUTLINED_FUNCTION_0, symObjAddr: 0xD44, symBinAddr: 0x5B7C, symSize: 0x8 }
  - { offsetInCU: 0x33, offset: 0x6DD69, size: 0x8, addend: 0x0, symName: _FIRST_CALL_TRANSACTION, symObjAddr: 0x0, symBinAddr: 0x51D90, symSize: 0x0 }
  - { offsetInCU: 0x54, offset: 0x6DD8A, size: 0x8, addend: 0x0, symName: _LAST_CALL_TRANSACTION, symObjAddr: 0x4, symBinAddr: 0x51D94, symSize: 0x0 }
  - { offsetInCU: 0x6E, offset: 0x6DDA4, size: 0x8, addend: 0x0, symName: __ZN11grpc_binder12kFirstCallIdE, symObjAddr: 0x8, symBinAddr: 0x51D98, symSize: 0x0 }
  - { offsetInCU: 0x26, offset: 0x6DF0B, size: 0x8, addend: 0x0, symName: __ZN4grpc12experimental6binder23UntrustedSecurityPolicyC2Ev, symObjAddr: 0x0, symBinAddr: 0x5BB8, symSize: 0x10 }
  - { offsetInCU: 0x1862, offset: 0x6F747, size: 0x8, addend: 0x0, symName: __ZN4grpc12experimental6binder23UntrustedSecurityPolicyC2Ev, symObjAddr: 0x0, symBinAddr: 0x5BB8, symSize: 0x10 }
  - { offsetInCU: 0x18A3, offset: 0x6F788, size: 0x8, addend: 0x0, symName: __ZN4grpc12experimental6binder23UntrustedSecurityPolicyC1Ev, symObjAddr: 0x10, symBinAddr: 0x5BC8, symSize: 0x10 }
  - { offsetInCU: 0x18D1, offset: 0x6F7B6, size: 0x8, addend: 0x0, symName: __ZN4grpc12experimental6binder23UntrustedSecurityPolicyC1Ev, symObjAddr: 0x10, symBinAddr: 0x5BC8, symSize: 0x10 }
  - { offsetInCU: 0x18EA, offset: 0x6F7CF, size: 0x8, addend: 0x0, symName: __ZN4grpc12experimental6binder23UntrustedSecurityPolicyD2Ev, symObjAddr: 0x20, symBinAddr: 0x5BD8, symSize: 0x4 }
  - { offsetInCU: 0x1915, offset: 0x6F7FA, size: 0x8, addend: 0x0, symName: __ZN4grpc12experimental6binder23UntrustedSecurityPolicyD1Ev, symObjAddr: 0x24, symBinAddr: 0x5BDC, symSize: 0x4 }
  - { offsetInCU: 0x1940, offset: 0x6F825, size: 0x8, addend: 0x0, symName: __ZN4grpc12experimental6binder23UntrustedSecurityPolicyD0Ev, symObjAddr: 0x28, symBinAddr: 0x5BE0, symSize: 0x4 }
  - { offsetInCU: 0x196B, offset: 0x6F850, size: 0x8, addend: 0x0, symName: __ZN4grpc12experimental6binder23UntrustedSecurityPolicy12IsAuthorizedEi, symObjAddr: 0x2C, symBinAddr: 0x5BE4, symSize: 0x8 }
  - { offsetInCU: 0x199D, offset: 0x6F882, size: 0x8, addend: 0x0, symName: __ZN4grpc12experimental6binder26InternalOnlySecurityPolicyC2Ev, symObjAddr: 0x34, symBinAddr: 0x5BEC, symSize: 0x10 }
  - { offsetInCU: 0x19DE, offset: 0x6F8C3, size: 0x8, addend: 0x0, symName: __ZN4grpc12experimental6binder26InternalOnlySecurityPolicyC1Ev, symObjAddr: 0x44, symBinAddr: 0x5BFC, symSize: 0x10 }
  - { offsetInCU: 0x1A0C, offset: 0x6F8F1, size: 0x8, addend: 0x0, symName: __ZN4grpc12experimental6binder26InternalOnlySecurityPolicyC1Ev, symObjAddr: 0x44, symBinAddr: 0x5BFC, symSize: 0x10 }
  - { offsetInCU: 0x1A25, offset: 0x6F90A, size: 0x8, addend: 0x0, symName: __ZN4grpc12experimental6binder26InternalOnlySecurityPolicyD2Ev, symObjAddr: 0x54, symBinAddr: 0x5C0C, symSize: 0x4 }
  - { offsetInCU: 0x1A50, offset: 0x6F935, size: 0x8, addend: 0x0, symName: __ZN4grpc12experimental6binder26InternalOnlySecurityPolicyD1Ev, symObjAddr: 0x58, symBinAddr: 0x5C10, symSize: 0x4 }
  - { offsetInCU: 0x1A7B, offset: 0x6F960, size: 0x8, addend: 0x0, symName: __ZN4grpc12experimental6binder26InternalOnlySecurityPolicyD0Ev, symObjAddr: 0x5C, symBinAddr: 0x5C14, symSize: 0x4 }
  - { offsetInCU: 0x1AA6, offset: 0x6F98B, size: 0x8, addend: 0x0, symName: __ZN4grpc12experimental6binder26InternalOnlySecurityPolicy12IsAuthorizedEi, symObjAddr: 0x60, symBinAddr: 0x5C18, symSize: 0x8 }
  - { offsetInCU: 0x329A, offset: 0x72C52, size: 0x8, addend: 0x0, symName: __ZN9grpc_core13AddBinderPortERKNSt3__112basic_stringIcNS0_11char_traitsIcEENS0_9allocatorIcEEEEP11grpc_serverNS0_8functionIFNS0_10unique_ptrIN11grpc_binder19TransactionReceiverENS0_14default_deleteISE_EEEENSB_IFN4absl12lts_202206236StatusEjPNSD_14ReadableParcelEiEEEEEENS0_10shared_ptrIN4grpc12experimental6binder14SecurityPolicyEEE, symObjAddr: 0x3A4, symBinAddr: 0x5FC4, symSize: 0x328 }
  - { offsetInCU: 0x5D87, offset: 0x7573F, size: 0x8, addend: 0x0, symName: __ZNSt3__1L19piecewise_constructE, symObjAddr: 0x363E, symBinAddr: 0x51FB9, symSize: 0x0 }
  - { offsetInCU: 0x1A072, offset: 0x89A2A, size: 0x8, addend: 0x0, symName: __ZNSt3__120__throw_length_errorB7v160006EPKc, symObjAddr: 0x11E8, symBinAddr: 0x6BB0, symSize: 0x50 }
  - { offsetInCU: 0x1A3D0, offset: 0x89D88, size: 0x8, addend: 0x0, symName: __ZNSt3__120__throw_out_of_rangeB7v160006EPKc, symObjAddr: 0x2374, symBinAddr: 0x7CDC, symSize: 0x50 }
  - { offsetInCU: 0x1AA8F, offset: 0x8A447, size: 0x8, addend: 0x0, symName: __ZN12_GLOBAL__N_118GetBinderPoolMutexEv, symObjAddr: 0x19C, symBinAddr: 0x5DBC, symSize: 0x8C }
  - { offsetInCU: 0x1AAB9, offset: 0x8A471, size: 0x8, addend: 0x0, symName: __ZZN12_GLOBAL__N_118GetBinderPoolMutexEvE2mu, symObjAddr: 0x13F628, symBinAddr: 0x6D7F0, symSize: 0x0 }
  - { offsetInCU: 0x1AB2A, offset: 0x8A4E2, size: 0x8, addend: 0x0, symName: __ZL22g_endpoint_binder_pool, symObjAddr: 0x13F620, symBinAddr: 0x6D7E8, symSize: 0x0 }
  - { offsetInCU: 0x1C029, offset: 0x8B9E1, size: 0x8, addend: 0x0, symName: __ZN4absl12lts_2022062318container_internal10DeallocateILm8ENSt3__19allocatorINS3_4pairIKNS3_12basic_stringIcNS3_11char_traitsIcEENS4_IcEEEEPvEEEEEEvPT0_SC_m, symObjAddr: 0x1F30, symBinAddr: 0x78F0, symSize: 0x18 }
  - { offsetInCU: 0x1C127, offset: 0x8BADF, size: 0x8, addend: 0x0, symName: __ZN4absl12lts_2022062318container_internal8AllocateILm8ENSt3__19allocatorINS3_4pairIKNS3_12basic_stringIcNS3_11char_traitsIcEENS4_IcEEEEPvEEEEEESC_PT0_m, symObjAddr: 0x1F48, symBinAddr: 0x7908, symSize: 0x30 }
  - { offsetInCU: 0x1C227, offset: 0x8BBDF, size: 0x8, addend: 0x0, symName: __ZN4absl12lts_2022062318container_internaleqERKNS1_12raw_hash_setINS1_17FlatHashMapPolicyINSt3__112basic_stringIcNS4_11char_traitsIcEENS4_9allocatorIcEEEEPvEENS1_10StringHashENS1_8StringEqENS8_INS4_4pairIKSA_SB_EEEEE8iteratorESM_, symObjAddr: 0x340, symBinAddr: 0x5F60, symSize: 0x40 }
  - { offsetInCU: 0x1C2D8, offset: 0x8BC90, size: 0x8, addend: 0x0, symName: __ZNK4absl12lts_2022062318container_internal12raw_hash_setINS1_17FlatHashMapPolicyINSt3__112basic_stringIcNS4_11char_traitsIcEENS4_9allocatorIcEEEEPvEENS1_10StringHashENS1_8StringEqENS8_INS4_4pairIKSA_SB_EEEEE8iteratorptEv, symObjAddr: 0x380, symBinAddr: 0x5FA0, symSize: 0x24 }
  - { offsetInCU: 0x1C924, offset: 0x8C2DC, size: 0x8, addend: 0x0, symName: __ZN4absl12lts_2022062318container_internal8AllocateILm8ENSt3__19allocatorINS3_4pairIKNS3_12basic_stringIcNS3_11char_traitsIcEENS4_IcEEEEPvEEEEEESC_PT0_m, symObjAddr: 0x1F48, symBinAddr: 0x7908, symSize: 0x30 }
  - { offsetInCU: 0x1C9FE, offset: 0x8C3B6, size: 0x8, addend: 0x0, symName: __ZN4absl12lts_2022062318container_internal12raw_hash_setINS1_17FlatHashMapPolicyINSt3__112basic_stringIcNS4_11char_traitsIcEENS4_9allocatorIcEEEEPvEENS1_10StringHashENS1_8StringEqENS8_INS4_4pairIKSA_SB_EEEEE17reset_growth_leftEv, symObjAddr: 0x1F78, symBinAddr: 0x7938, symSize: 0x48 }
  - { offsetInCU: 0x20EF7, offset: 0x908AF, size: 0x8, addend: 0x0, symName: __ZN4grpc12experimental6binder17GetEndpointBinderERKNSt3__112basic_stringIcNS2_11char_traitsIcEENS2_9allocatorIcEEEE, symObjAddr: 0x0, symBinAddr: 0x5C20, symSize: 0x4 }
  - { offsetInCU: 0x20F27, offset: 0x908DF, size: 0x8, addend: 0x0, symName: __ZN4grpc12experimental6binder17GetEndpointBinderERKNSt3__112basic_stringIcNS2_11char_traitsIcEENS2_9allocatorIcEEEE, symObjAddr: 0x0, symBinAddr: 0x5C20, symSize: 0x4 }
  - { offsetInCU: 0x20F3B, offset: 0x908F3, size: 0x8, addend: 0x0, symName: __ZN4grpc12experimental6binder17AddEndpointBinderERKNSt3__112basic_stringIcNS2_11char_traitsIcEENS2_9allocatorIcEEEEPv, symObjAddr: 0xA0, symBinAddr: 0x5CC0, symSize: 0x4 }
  - { offsetInCU: 0x20F75, offset: 0x9092D, size: 0x8, addend: 0x0, symName: __ZN4grpc12experimental6binder17AddEndpointBinderERKNSt3__112basic_stringIcNS2_11char_traitsIcEENS2_9allocatorIcEEEEPv, symObjAddr: 0xA0, symBinAddr: 0x5CC0, symSize: 0x4 }
  - { offsetInCU: 0x20F91, offset: 0x90949, size: 0x8, addend: 0x0, symName: __ZN4grpc12experimental6binder20RemoveEndpointBinderERKNSt3__112basic_stringIcNS2_11char_traitsIcEENS2_9allocatorIcEEEE, symObjAddr: 0x138, symBinAddr: 0x5D58, symSize: 0x4 }
  - { offsetInCU: 0x20FBD, offset: 0x90975, size: 0x8, addend: 0x0, symName: __ZN4grpc12experimental6binder20RemoveEndpointBinderERKNSt3__112basic_stringIcNS2_11char_traitsIcEENS2_9allocatorIcEEEE, symObjAddr: 0x138, symBinAddr: 0x5D58, symSize: 0x4 }
  - { offsetInCU: 0x20FF9, offset: 0x909B1, size: 0x8, addend: 0x0, symName: __ZN9grpc_core20BinderServerListener5StartEPNS_6ServerEPKNSt3__16vectorIP12grpc_pollsetNS3_9allocatorIS6_EEEE, symObjAddr: 0x704, symBinAddr: 0x6318, symSize: 0x14C }
  - { offsetInCU: 0x236DD, offset: 0x93095, size: 0x8, addend: 0x0, symName: __Z24grpc_get_endpoint_binderRKNSt3__112basic_stringIcNS_11char_traitsIcEENS_9allocatorIcEEEE, symObjAddr: 0x4, symBinAddr: 0x5C24, symSize: 0x9C }
  - { offsetInCU: 0x23978, offset: 0x93330, size: 0x8, addend: 0x0, symName: __ZN4absl12lts_2022062318container_internal12raw_hash_setINS1_17FlatHashMapPolicyINSt3__112basic_stringIcNS4_11char_traitsIcEENS4_9allocatorIcEEEEPvEENS1_10StringHashENS1_8StringEqENS8_INS4_4pairIKSA_SB_EEEEE4findISA_EENSJ_8iteratorERKT_, symObjAddr: 0x2BC, symBinAddr: 0x5EDC, symSize: 0x84 }
  - { offsetInCU: 0x23CDF, offset: 0x93697, size: 0x8, addend: 0x0, symName: __ZNK4absl12lts_2022062318container_internal12raw_hash_setINS1_17FlatHashMapPolicyINSt3__112basic_stringIcNS4_11char_traitsIcEENS4_9allocatorIcEEEEPvEENS1_10StringHashENS1_8StringEqENS8_INS4_4pairIKSA_SB_EEEEE8iteratorptEv, symObjAddr: 0x380, symBinAddr: 0x5FA0, symSize: 0x24 }
  - { offsetInCU: 0x23D43, offset: 0x936FB, size: 0x8, addend: 0x0, symName: __ZN9grpc_core13AddBinderPortERKNSt3__112basic_stringIcNS0_11char_traitsIcEENS0_9allocatorIcEEEEP11grpc_serverNS0_8functionIFNS0_10unique_ptrIN11grpc_binder19TransactionReceiverENS0_14default_deleteISE_EEEENSB_IFN4absl12lts_202206236StatusEjPNSD_14ReadableParcelEiEEEEEENS0_10shared_ptrIN4grpc12experimental6binder14SecurityPolicyEEE, symObjAddr: 0x3A4, symBinAddr: 0x5FC4, symSize: 0x328 }
  - { offsetInCU: 0x23D5B, offset: 0x93713, size: 0x8, addend: 0x0, symName: __Z24grpc_add_endpoint_binderRKNSt3__112basic_stringIcNS_11char_traitsIcEENS_9allocatorIcEEEEPv, symObjAddr: 0xA4, symBinAddr: 0x5CC4, symSize: 0x94 }
  - { offsetInCU: 0x23FBE, offset: 0x93976, size: 0x8, addend: 0x0, symName: __ZN4absl12lts_2022062318container_internal12raw_hash_mapINS1_17FlatHashMapPolicyINSt3__112basic_stringIcNS4_11char_traitsIcEENS4_9allocatorIcEEEEPvEENS1_10StringHashENS1_8StringEqENS8_INS4_4pairIKSA_SB_EEEEEixISA_SC_EEDTclsrT0_5valueclL_ZNS4_9addressofB7v160006ISH_EEPT_RSN_EclL_ZNS4_7declvalIRSH_EEDTclsr3stdE9__declvalISN_ELi0EEEvEEEEERKSN_, symObjAddr: 0x228, symBinAddr: 0x5E48, symSize: 0x3C }
  - { offsetInCU: 0x2408A, offset: 0x93A42, size: 0x8, addend: 0x0, symName: __ZN4absl12lts_2022062318container_internal12raw_hash_setINS1_17FlatHashMapPolicyINSt3__112basic_stringIcNS4_11char_traitsIcEENS4_9allocatorIcEEEEPvEENS1_10StringHashENS1_8StringEqENS8_INS4_4pairIKSA_SB_EEEEE5eraseISA_EEmRKT_, symObjAddr: 0x264, symBinAddr: 0x5E84, symSize: 0x58 }
  - { offsetInCU: 0x240A7, offset: 0x93A5F, size: 0x8, addend: 0x0, symName: __Z27grpc_remove_endpoint_binderRKNSt3__112basic_stringIcNS_11char_traitsIcEENS_9allocatorIcEEEE, symObjAddr: 0x13C, symBinAddr: 0x5D5C, symSize: 0x60 }
  - { offsetInCU: 0x24212, offset: 0x93BCA, size: 0x8, addend: 0x0, symName: __ZN4absl12lts_2022062318container_internal12raw_hash_setINS1_17FlatHashMapPolicyINSt3__112basic_stringIcNS4_11char_traitsIcEENS4_9allocatorIcEEEEPvEENS1_10StringHashENS1_8StringEqENS8_INS4_4pairIKSA_SB_EEEEE5eraseISA_EEmRKT_, symObjAddr: 0x264, symBinAddr: 0x5E84, symSize: 0x58 }
  - { offsetInCU: 0x2435D, offset: 0x93D15, size: 0x8, addend: 0x0, symName: __ZNK4absl12lts_2022062318container_internal12raw_hash_setINS1_17FlatHashMapPolicyINSt3__112basic_stringIcNS4_11char_traitsIcEENS4_9allocatorIcEEEEPvEENS1_10StringHashENS1_8StringEqENS8_INS4_4pairIKSA_SB_EEEEE8iteratordeEv, symObjAddr: 0x1264, symBinAddr: 0x6C24, symSize: 0x28 }
  - { offsetInCU: 0x243B0, offset: 0x93D68, size: 0x8, addend: 0x0, symName: __ZN4absl12lts_2022062318container_internal12raw_hash_mapINS1_17FlatHashMapPolicyINSt3__112basic_stringIcNS4_11char_traitsIcEENS4_9allocatorIcEEEEPvEENS1_10StringHashENS1_8StringEqENS8_INS4_4pairIKSA_SB_EEEEE16try_emplace_implIRSG_JEEENSF_INS1_12raw_hash_setISC_SD_SE_SI_E8iteratorEbEEOT_DpOT0_, symObjAddr: 0x128C, symBinAddr: 0x6C4C, symSize: 0x90 }
  - { offsetInCU: 0x243E4, offset: 0x93D9C, size: 0x8, addend: 0x0, symName: __ZN4absl12lts_2022062318container_internal12raw_hash_mapINS1_17FlatHashMapPolicyINSt3__112basic_stringIcNS4_11char_traitsIcEENS4_9allocatorIcEEEEPvEENS1_10StringHashENS1_8StringEqENS8_INS4_4pairIKSA_SB_EEEEE16try_emplace_implIRSG_JEEENSF_INS1_12raw_hash_setISC_SD_SE_SI_E8iteratorEbEEOT_DpOT0_, symObjAddr: 0x128C, symBinAddr: 0x6C4C, symSize: 0x90 }
  - { offsetInCU: 0x2450F, offset: 0x93EC7, size: 0x8, addend: 0x0, symName: __ZN4absl12lts_2022062318container_internal12raw_hash_setINS1_17FlatHashMapPolicyINSt3__112basic_stringIcNS4_11char_traitsIcEENS4_9allocatorIcEEEEPvEENS1_10StringHashENS1_8StringEqENS8_INS4_4pairIKSA_SB_EEEEE22find_or_prepare_insertISA_EENSF_ImbEERKT_, symObjAddr: 0x131C, symBinAddr: 0x6CDC, symSize: 0x19C }
  - { offsetInCU: 0x24529, offset: 0x93EE1, size: 0x8, addend: 0x0, symName: __ZN4absl12lts_2022062318container_internal12raw_hash_mapINS1_17FlatHashMapPolicyINSt3__112basic_stringIcNS4_11char_traitsIcEENS4_9allocatorIcEEEEPvEENS1_10StringHashENS1_8StringEqENS8_INS4_4pairIKSA_SB_EEEEEixISA_SC_EEDTclsrT0_5valueclL_ZNS4_9addressofB7v160006ISH_EEPT_RSN_EclL_ZNS4_7declvalIRSH_EEDTclsr3stdE9__declvalISN_ELi0EEEvEEEEERKSN_.cold.1, symObjAddr: 0x23E8, symBinAddr: 0x4C1D4, symSize: 0x24 }
  - { offsetInCU: 0x2456D, offset: 0x93F25, size: 0x8, addend: 0x0, symName: __ZN4absl12lts_2022062318container_internal12raw_hash_setINS1_17FlatHashMapPolicyINSt3__112basic_stringIcNS4_11char_traitsIcEENS4_9allocatorIcEEEEPvEENS1_10StringHashENS1_8StringEqENS8_INS4_4pairIKSA_SB_EEEEE5eraseENSJ_8iteratorE, symObjAddr: 0x2188, symBinAddr: 0x7B48, symSize: 0x58 }
  - { offsetInCU: 0x24803, offset: 0x941BB, size: 0x8, addend: 0x0, symName: __ZN4absl12lts_2022062318container_internal12raw_hash_setINS1_17FlatHashMapPolicyINSt3__112basic_stringIcNS4_11char_traitsIcEENS4_9allocatorIcEEEEPvEENS1_10StringHashENS1_8StringEqENS8_INS4_4pairIKSA_SB_EEEEE15erase_meta_onlyENSJ_14const_iteratorE, symObjAddr: 0x21E0, symBinAddr: 0x7BA0, symSize: 0xC4 }
  - { offsetInCU: 0x24B24, offset: 0x944DC, size: 0x8, addend: 0x0, symName: __ZN4absl12lts_2022062313hash_internal15MixingHashState18combine_contiguousES2_PKhm, symObjAddr: 0x16E4, symBinAddr: 0x70A4, symSize: 0x104 }
  - { offsetInCU: 0x24D3F, offset: 0x946F7, size: 0x8, addend: 0x0, symName: __ZN4absl12lts_2022062318container_internal12raw_hash_setINS1_17FlatHashMapPolicyINSt3__112basic_stringIcNS4_11char_traitsIcEENS4_9allocatorIcEEEEPvEENS1_10StringHashENS1_8StringEqENS8_INS4_4pairIKSA_SB_EEEEE4findISA_EENSJ_8iteratorERKT_m, symObjAddr: 0x2044, symBinAddr: 0x7A04, symSize: 0x144 }
  - { offsetInCU: 0x25121, offset: 0x94AD9, size: 0x8, addend: 0x0, symName: __ZN4absl12lts_2022062318container_internal12raw_hash_setINS1_17FlatHashMapPolicyINSt3__112basic_stringIcNS4_11char_traitsIcEENS4_9allocatorIcEEEEPvEENS1_10StringHashENS1_8StringEqENS8_INS4_4pairIKSA_SB_EEEEE5eraseENSJ_8iteratorE, symObjAddr: 0x2188, symBinAddr: 0x7B48, symSize: 0x58 }
  - { offsetInCU: 0x2515E, offset: 0x94B16, size: 0x8, addend: 0x0, symName: __ZN4absl12lts_2022062318container_internaleqERKNS1_12raw_hash_setINS1_17FlatHashMapPolicyINSt3__112basic_stringIcNS4_11char_traitsIcEENS4_9allocatorIcEEEEPvEENS1_10StringHashENS1_8StringEqENS8_INS4_4pairIKSA_SB_EEEEE8iteratorESM_.cold.2, symObjAddr: 0x2434, symBinAddr: 0x4C220, symSize: 0x28 }
  - { offsetInCU: 0x251A4, offset: 0x94B5C, size: 0x8, addend: 0x0, symName: __ZN4absl12lts_2022062318container_internaleqERKNS1_12raw_hash_setINS1_17FlatHashMapPolicyINSt3__112basic_stringIcNS4_11char_traitsIcEENS4_9allocatorIcEEEEPvEENS1_10StringHashENS1_8StringEqENS8_INS4_4pairIKSA_SB_EEEEE8iteratorESM_.cold.1, symObjAddr: 0x240C, symBinAddr: 0x4C1F8, symSize: 0x28 }
  - { offsetInCU: 0x25213, offset: 0x94BCB, size: 0x8, addend: 0x0, symName: __ZNK4absl12lts_2022062318container_internal12raw_hash_setINS1_17FlatHashMapPolicyINSt3__112basic_stringIcNS4_11char_traitsIcEENS4_9allocatorIcEEEEPvEENS1_10StringHashENS1_8StringEqENS8_INS4_4pairIKSA_SB_EEEEE8iteratorptEv.cold.1, symObjAddr: 0x245C, symBinAddr: 0x4C248, symSize: 0x28 }
  - { offsetInCU: 0x259E4, offset: 0x9539C, size: 0x8, addend: 0x0, symName: __ZNSt3__112basic_stringIcNS_11char_traitsIcEENS_9allocatorIcEEEC2B7v160006IDnEEPKc, symObjAddr: 0x1138, symBinAddr: 0x6B00, symSize: 0x9C }
  - { offsetInCU: 0x25D53, offset: 0x9570B, size: 0x8, addend: 0x0, symName: __ZNKSt3__112basic_stringIcNS_11char_traitsIcEENS_9allocatorIcEEE20__throw_length_errorB7v160006Ev, symObjAddr: 0x11D4, symBinAddr: 0x6B9C, symSize: 0x14 }
  - { offsetInCU: 0x25D6C, offset: 0x95724, size: 0x8, addend: 0x0, symName: __ZNSt3__110__function12__value_funcIFNS_10unique_ptrIN11grpc_binder19TransactionReceiverENS_14default_deleteIS4_EEEENS_8functionIFN4absl12lts_202206236StatusEjPNS3_14ReadableParcelEiEEEEEC2B7v160006EOSH_, symObjAddr: 0x22A4, symBinAddr: 0x7C64, symSize: 0x64 }
  - { offsetInCU: 0x25DBA, offset: 0x95772, size: 0x8, addend: 0x0, symName: __ZNKSt3__112basic_stringIcNS_11char_traitsIcEENS_9allocatorIcEEE20__throw_out_of_rangeB7v160006Ev, symObjAddr: 0x2360, symBinAddr: 0x7CC8, symSize: 0x14 }
  - { offsetInCU: 0x25DE3, offset: 0x9579B, size: 0x8, addend: 0x0, symName: __ZNSt3__120__throw_out_of_rangeB7v160006EPKc, symObjAddr: 0x2374, symBinAddr: 0x7CDC, symSize: 0x50 }
  - { offsetInCU: 0x25DEE, offset: 0x957A6, size: 0x8, addend: 0x0, symName: __ZN9grpc_core13AddBinderPortERKNSt3__112basic_stringIcNS0_11char_traitsIcEENS0_9allocatorIcEEEEP11grpc_serverNS0_8functionIFNS0_10unique_ptrIN11grpc_binder19TransactionReceiverENS0_14default_deleteISE_EEEENSB_IFN4absl12lts_202206236StatusEjPNSD_14ReadableParcelEiEEEEEENS0_10shared_ptrIN4grpc12experimental6binder14SecurityPolicyEEE.cold.1, symObjAddr: 0x2484, symBinAddr: 0x4C270, symSize: 0x88 }
  - { offsetInCU: 0x25F68, offset: 0x95920, size: 0x8, addend: 0x0, symName: __ZN9grpc_core20BinderServerListener6OrphanEv, symObjAddr: 0x6D8, symBinAddr: 0x62EC, symSize: 0x14 }
  - { offsetInCU: 0x25F99, offset: 0x95951, size: 0x8, addend: 0x0, symName: __ZN9grpc_core20BinderServerListenerD1Ev, symObjAddr: 0x6EC, symBinAddr: 0x6300, symSize: 0x4 }
  - { offsetInCU: 0x25FBC, offset: 0x95974, size: 0x8, addend: 0x0, symName: __ZN9grpc_core20BinderServerListenerD1Ev, symObjAddr: 0x6EC, symBinAddr: 0x6300, symSize: 0x4 }
  - { offsetInCU: 0x25FD0, offset: 0x95988, size: 0x8, addend: 0x0, symName: __ZN9grpc_core20BinderServerListenerD2Ev, symObjAddr: 0x860, symBinAddr: 0x6474, symSize: 0xF8 }
  - { offsetInCU: 0x263D6, offset: 0x95D8E, size: 0x8, addend: 0x0, symName: __ZN9grpc_core20BinderServerListenerD0Ev, symObjAddr: 0x6F0, symBinAddr: 0x6304, symSize: 0x14 }
  - { offsetInCU: 0x267BC, offset: 0x96174, size: 0x8, addend: 0x0, symName: __ZNK9grpc_core20BinderServerListener27channelz_listen_socket_nodeEv, symObjAddr: 0x850, symBinAddr: 0x6464, symSize: 0x8 }
  - { offsetInCU: 0x267E2, offset: 0x9619A, size: 0x8, addend: 0x0, symName: __ZN9grpc_core20BinderServerListener16SetOnDestroyDoneEP12grpc_closure, symObjAddr: 0x858, symBinAddr: 0x646C, symSize: 0x8 }
  - { offsetInCU: 0x26A10, offset: 0x963C8, size: 0x8, addend: 0x0, symName: __ZNSt3__110__function6__funcIZN9grpc_core20BinderServerListener5StartEPNS2_6ServerEPKNS_6vectorIP12grpc_pollsetNS_9allocatorIS8_EEEEEUljPN11grpc_binder14ReadableParcelEiE_NS9_ISH_EEFN4absl12lts_202206236StatusEjSG_iEED1Ev, symObjAddr: 0x9D4, symBinAddr: 0x656C, symSize: 0x4 }
  - { offsetInCU: 0x26A3C, offset: 0x963F4, size: 0x8, addend: 0x0, symName: __ZNSt3__110__function6__funcIZN9grpc_core20BinderServerListener5StartEPNS2_6ServerEPKNS_6vectorIP12grpc_pollsetNS_9allocatorIS8_EEEEEUljPN11grpc_binder14ReadableParcelEiE_NS9_ISH_EEFN4absl12lts_202206236StatusEjSG_iEED0Ev, symObjAddr: 0x9D8, symBinAddr: 0x6570, symSize: 0x4 }
  - { offsetInCU: 0x26C50, offset: 0x96608, size: 0x8, addend: 0x0, symName: __ZNKSt3__110__function6__funcIZN9grpc_core20BinderServerListener5StartEPNS2_6ServerEPKNS_6vectorIP12grpc_pollsetNS_9allocatorIS8_EEEEEUljPN11grpc_binder14ReadableParcelEiE_NS9_ISH_EEFN4absl12lts_202206236StatusEjSG_iEE7__cloneEv, symObjAddr: 0x9DC, symBinAddr: 0x6574, symSize: 0x34 }
  - { offsetInCU: 0x26F5B, offset: 0x96913, size: 0x8, addend: 0x0, symName: __ZNKSt3__110__function6__funcIZN9grpc_core20BinderServerListener5StartEPNS2_6ServerEPKNS_6vectorIP12grpc_pollsetNS_9allocatorIS8_EEEEEUljPN11grpc_binder14ReadableParcelEiE_NS9_ISH_EEFN4absl12lts_202206236StatusEjSG_iEE7__cloneEPNS0_6__baseISM_EE, symObjAddr: 0xA10, symBinAddr: 0x65A8, symSize: 0x14 }
  - { offsetInCU: 0x26F93, offset: 0x9694B, size: 0x8, addend: 0x0, symName: __ZNKSt3__110__function6__funcIZN9grpc_core20BinderServerListener5StartEPNS2_6ServerEPKNS_6vectorIP12grpc_pollsetNS_9allocatorIS8_EEEEEUljPN11grpc_binder14ReadableParcelEiE_NS9_ISH_EEFN4absl12lts_202206236StatusEjSG_iEE7__cloneEPNS0_6__baseISM_EE, symObjAddr: 0xA10, symBinAddr: 0x65A8, symSize: 0x14 }
  - { offsetInCU: 0x26FC2, offset: 0x9697A, size: 0x8, addend: 0x0, symName: __ZNKSt3__110__function6__funcIZN9grpc_core20BinderServerListener5StartEPNS2_6ServerEPKNS_6vectorIP12grpc_pollsetNS_9allocatorIS8_EEEEEUljPN11grpc_binder14ReadableParcelEiE_NS9_ISH_EEFN4absl12lts_202206236StatusEjSG_iEE7__cloneEPNS0_6__baseISM_EE, symObjAddr: 0xA10, symBinAddr: 0x65A8, symSize: 0x14 }
  - { offsetInCU: 0x26FF1, offset: 0x969A9, size: 0x8, addend: 0x0, symName: __ZNKSt3__110__function6__funcIZN9grpc_core20BinderServerListener5StartEPNS2_6ServerEPKNS_6vectorIP12grpc_pollsetNS_9allocatorIS8_EEEEEUljPN11grpc_binder14ReadableParcelEiE_NS9_ISH_EEFN4absl12lts_202206236StatusEjSG_iEE7__cloneEPNS0_6__baseISM_EE, symObjAddr: 0xA10, symBinAddr: 0x65A8, symSize: 0x14 }
  - { offsetInCU: 0x27007, offset: 0x969BF, size: 0x8, addend: 0x0, symName: __ZNKSt3__110__function6__funcIZN9grpc_core20BinderServerListener5StartEPNS2_6ServerEPKNS_6vectorIP12grpc_pollsetNS_9allocatorIS8_EEEEEUljPN11grpc_binder14ReadableParcelEiE_NS9_ISH_EEFN4absl12lts_202206236StatusEjSG_iEE7__cloneEPNS0_6__baseISM_EE, symObjAddr: 0xA10, symBinAddr: 0x65A8, symSize: 0x14 }
  - { offsetInCU: 0x2701B, offset: 0x969D3, size: 0x8, addend: 0x0, symName: __ZNKSt3__110__function6__funcIZN9grpc_core20BinderServerListener5StartEPNS2_6ServerEPKNS_6vectorIP12grpc_pollsetNS_9allocatorIS8_EEEEEUljPN11grpc_binder14ReadableParcelEiE_NS9_ISH_EEFN4absl12lts_202206236StatusEjSG_iEE7__cloneEPNS0_6__baseISM_EE, symObjAddr: 0xA10, symBinAddr: 0x65A8, symSize: 0x14 }
  - { offsetInCU: 0x2702F, offset: 0x969E7, size: 0x8, addend: 0x0, symName: __ZNKSt3__110__function6__funcIZN9grpc_core20BinderServerListener5StartEPNS2_6ServerEPKNS_6vectorIP12grpc_pollsetNS_9allocatorIS8_EEEEEUljPN11grpc_binder14ReadableParcelEiE_NS9_ISH_EEFN4absl12lts_202206236StatusEjSG_iEE7__cloneEPNS0_6__baseISM_EE, symObjAddr: 0xA10, symBinAddr: 0x65A8, symSize: 0x14 }
  - { offsetInCU: 0x27043, offset: 0x969FB, size: 0x8, addend: 0x0, symName: __ZNKSt3__110__function6__funcIZN9grpc_core20BinderServerListener5StartEPNS2_6ServerEPKNS_6vectorIP12grpc_pollsetNS_9allocatorIS8_EEEEEUljPN11grpc_binder14ReadableParcelEiE_NS9_ISH_EEFN4absl12lts_202206236StatusEjSG_iEE7__cloneEPNS0_6__baseISM_EE, symObjAddr: 0xA10, symBinAddr: 0x65A8, symSize: 0x14 }
  - { offsetInCU: 0x2705C, offset: 0x96A14, size: 0x8, addend: 0x0, symName: __ZNSt3__110__function6__funcIZN9grpc_core20BinderServerListener5StartEPNS2_6ServerEPKNS_6vectorIP12grpc_pollsetNS_9allocatorIS8_EEEEEUljPN11grpc_binder14ReadableParcelEiE_NS9_ISH_EEFN4absl12lts_202206236StatusEjSG_iEE7destroyEv, symObjAddr: 0xA24, symBinAddr: 0x65BC, symSize: 0x4 }
  - { offsetInCU: 0x270B1, offset: 0x96A69, size: 0x8, addend: 0x0, symName: __ZNSt3__110__function6__funcIZN9grpc_core20BinderServerListener5StartEPNS2_6ServerEPKNS_6vectorIP12grpc_pollsetNS_9allocatorIS8_EEEEEUljPN11grpc_binder14ReadableParcelEiE_NS9_ISH_EEFN4absl12lts_202206236StatusEjSG_iEE18destroy_deallocateEv, symObjAddr: 0xA28, symBinAddr: 0x65C0, symSize: 0x4 }
  - { offsetInCU: 0x270E7, offset: 0x96A9F, size: 0x8, addend: 0x0, symName: __ZNSt3__110__function6__funcIZN9grpc_core20BinderServerListener5StartEPNS2_6ServerEPKNS_6vectorIP12grpc_pollsetNS_9allocatorIS8_EEEEEUljPN11grpc_binder14ReadableParcelEiE_NS9_ISH_EEFN4absl12lts_202206236StatusEjSG_iEE18destroy_deallocateEv, symObjAddr: 0xA28, symBinAddr: 0x65C0, symSize: 0x4 }
  - { offsetInCU: 0x2710B, offset: 0x96AC3, size: 0x8, addend: 0x0, symName: __ZNSt3__110__function6__funcIZN9grpc_core20BinderServerListener5StartEPNS2_6ServerEPKNS_6vectorIP12grpc_pollsetNS_9allocatorIS8_EEEEEUljPN11grpc_binder14ReadableParcelEiE_NS9_ISH_EEFN4absl12lts_202206236StatusEjSG_iEE18destroy_deallocateEv, symObjAddr: 0xA28, symBinAddr: 0x65C0, symSize: 0x4 }
  - { offsetInCU: 0x27137, offset: 0x96AEF, size: 0x8, addend: 0x0, symName: __ZNSt3__110__function6__funcIZN9grpc_core20BinderServerListener5StartEPNS2_6ServerEPKNS_6vectorIP12grpc_pollsetNS_9allocatorIS8_EEEEEUljPN11grpc_binder14ReadableParcelEiE_NS9_ISH_EEFN4absl12lts_202206236StatusEjSG_iEE18destroy_deallocateEv, symObjAddr: 0xA28, symBinAddr: 0x65C0, symSize: 0x4 }
  - { offsetInCU: 0x2715E, offset: 0x96B16, size: 0x8, addend: 0x0, symName: __ZNSt3__110__function6__funcIZN9grpc_core20BinderServerListener5StartEPNS2_6ServerEPKNS_6vectorIP12grpc_pollsetNS_9allocatorIS8_EEEEEUljPN11grpc_binder14ReadableParcelEiE_NS9_ISH_EEFN4absl12lts_202206236StatusEjSG_iEE18destroy_deallocateEv, symObjAddr: 0xA28, symBinAddr: 0x65C0, symSize: 0x4 }
  - { offsetInCU: 0x2725C, offset: 0x96C14, size: 0x8, addend: 0x0, symName: __ZNSt3__110__function6__funcIZN9grpc_core20BinderServerListener5StartEPNS2_6ServerEPKNS_6vectorIP12grpc_pollsetNS_9allocatorIS8_EEEEEUljPN11grpc_binder14ReadableParcelEiE_NS9_ISH_EEFN4absl12lts_202206236StatusEjSG_iEEclEOjOSG_Oi, symObjAddr: 0xA2C, symBinAddr: 0x65C4, symSize: 0x14 }
  - { offsetInCU: 0x272B9, offset: 0x96C71, size: 0x8, addend: 0x0, symName: __ZNSt3__110__function6__funcIZN9grpc_core20BinderServerListener5StartEPNS2_6ServerEPKNS_6vectorIP12grpc_pollsetNS_9allocatorIS8_EEEEEUljPN11grpc_binder14ReadableParcelEiE_NS9_ISH_EEFN4absl12lts_202206236StatusEjSG_iEEclEOjOSG_Oi, symObjAddr: 0xA2C, symBinAddr: 0x65C4, symSize: 0x14 }
  - { offsetInCU: 0x272F7, offset: 0x96CAF, size: 0x8, addend: 0x0, symName: __ZNSt3__110__function6__funcIZN9grpc_core20BinderServerListener5StartEPNS2_6ServerEPKNS_6vectorIP12grpc_pollsetNS_9allocatorIS8_EEEEEUljPN11grpc_binder14ReadableParcelEiE_NS9_ISH_EEFN4absl12lts_202206236StatusEjSG_iEEclEOjOSG_Oi, symObjAddr: 0xA2C, symBinAddr: 0x65C4, symSize: 0x14 }
  - { offsetInCU: 0x27333, offset: 0x96CEB, size: 0x8, addend: 0x0, symName: __ZNSt3__110__function6__funcIZN9grpc_core20BinderServerListener5StartEPNS2_6ServerEPKNS_6vectorIP12grpc_pollsetNS_9allocatorIS8_EEEEEUljPN11grpc_binder14ReadableParcelEiE_NS9_ISH_EEFN4absl12lts_202206236StatusEjSG_iEEclEOjOSG_Oi, symObjAddr: 0xA2C, symBinAddr: 0x65C4, symSize: 0x14 }
  - { offsetInCU: 0x273B5, offset: 0x96D6D, size: 0x8, addend: 0x0, symName: __ZN9grpc_core20BinderServerListener16OnSetupTransportEjPN11grpc_binder14ReadableParcelEi, symObjAddr: 0xA88, symBinAddr: 0x6620, symSize: 0x494 }
  - { offsetInCU: 0x28985, offset: 0x9833D, size: 0x8, addend: 0x0, symName: __ZNKSt3__110__function6__funcIZN9grpc_core20BinderServerListener5StartEPNS2_6ServerEPKNS_6vectorIP12grpc_pollsetNS_9allocatorIS8_EEEEEUljPN11grpc_binder14ReadableParcelEiE_NS9_ISH_EEFN4absl12lts_202206236StatusEjSG_iEE6targetERKSt9type_info, symObjAddr: 0xA40, symBinAddr: 0x65D8, symSize: 0x3C }
  - { offsetInCU: 0x28A22, offset: 0x983DA, size: 0x8, addend: 0x0, symName: __ZNKSt3__110__function6__funcIZN9grpc_core20BinderServerListener5StartEPNS2_6ServerEPKNS_6vectorIP12grpc_pollsetNS_9allocatorIS8_EEEEEUljPN11grpc_binder14ReadableParcelEiE_NS9_ISH_EEFN4absl12lts_202206236StatusEjSG_iEE11target_typeEv, symObjAddr: 0xA7C, symBinAddr: 0x6614, symSize: 0xC }
  - { offsetInCU: 0x29067, offset: 0x98A1F, size: 0x8, addend: 0x0, symName: __ZN9grpc_core13RefCountedPtrINS_8channelz10SocketNodeEED2Ev, symObjAddr: 0xFC0, symBinAddr: 0x6AB4, symSize: 0x4C }
  - { offsetInCU: 0x2950F, offset: 0x98EC7, size: 0x8, addend: 0x0, symName: __ZNKSt3__112basic_stringIcNS_11char_traitsIcEENS_9allocatorIcEEE20__throw_length_errorB7v160006Ev, symObjAddr: 0x11D4, symBinAddr: 0x6B9C, symSize: 0x14 }
  - { offsetInCU: 0x29538, offset: 0x98EF0, size: 0x8, addend: 0x0, symName: __ZNSt3__120__throw_length_errorB7v160006EPKc, symObjAddr: 0x11E8, symBinAddr: 0x6BB0, symSize: 0x50 }
  - { offsetInCU: 0x29543, offset: 0x98EFB, size: 0x8, addend: 0x0, symName: __ZNSt12length_errorC1B7v160006EPKc, symObjAddr: 0x1238, symBinAddr: 0x6C00, symSize: 0x24 }
  - { offsetInCU: 0x295CC, offset: 0x98F84, size: 0x8, addend: 0x0, symName: __ZNK4absl12lts_2022062318container_internal12raw_hash_setINS1_17FlatHashMapPolicyINSt3__112basic_stringIcNS4_11char_traitsIcEENS4_9allocatorIcEEEEPvEENS1_10StringHashENS1_8StringEqENS8_INS4_4pairIKSA_SB_EEEEE8iteratordeEv.cold.1, symObjAddr: 0x2544, symBinAddr: 0x4C2F8, symSize: 0x24 }
  - { offsetInCU: 0x29746, offset: 0x990FE, size: 0x8, addend: 0x0, symName: __ZN4absl12lts_2022062318container_internal12raw_hash_setINS1_17FlatHashMapPolicyINSt3__112basic_stringIcNS4_11char_traitsIcEENS4_9allocatorIcEEEEPvEENS1_10StringHashENS1_8StringEqENS8_INS4_4pairIKSA_SB_EEEEE22find_or_prepare_insertISA_EENSF_ImbEERKT_, symObjAddr: 0x131C, symBinAddr: 0x6CDC, symSize: 0x19C }
  - { offsetInCU: 0x29D32, offset: 0x996EA, size: 0x8, addend: 0x0, symName: __ZN4absl12lts_2022062318container_internal12raw_hash_setINS1_17FlatHashMapPolicyINSt3__112basic_stringIcNS4_11char_traitsIcEENS4_9allocatorIcEEEEPvEENS1_10StringHashENS1_8StringEqENS8_INS4_4pairIKSA_SB_EEEEE10emplace_atIJRKNS4_21piecewise_construct_tENS4_5tupleIJRSG_EEENSO_IJEEEEEEvmDpOT_, symObjAddr: 0x14B8, symBinAddr: 0x6E78, symSize: 0x98 }
  - { offsetInCU: 0x29D5D, offset: 0x99715, size: 0x8, addend: 0x0, symName: __ZN4absl12lts_2022062318container_internal12raw_hash_setINS1_17FlatHashMapPolicyINSt3__112basic_stringIcNS4_11char_traitsIcEENS4_9allocatorIcEEEEPvEENS1_10StringHashENS1_8StringEqENS8_INS4_4pairIKSA_SB_EEEEE10emplace_atIJRKNS4_21piecewise_construct_tENS4_5tupleIJRSG_EEENSO_IJEEEEEEvmDpOT_, symObjAddr: 0x14B8, symBinAddr: 0x6E78, symSize: 0x98 }
  - { offsetInCU: 0x2A192, offset: 0x99B4A, size: 0x8, addend: 0x0, symName: __ZN4absl12lts_2022062318container_internal12raw_hash_setINS1_17FlatHashMapPolicyINSt3__112basic_stringIcNS4_11char_traitsIcEENS4_9allocatorIcEEEEPvEENS1_10StringHashENS1_8StringEqENS8_INS4_4pairIKSA_SB_EEEEE14prepare_insertEm, symObjAddr: 0x1550, symBinAddr: 0x6F10, symSize: 0x194 }
  - { offsetInCU: 0x2A1B2, offset: 0x99B6A, size: 0x8, addend: 0x0, symName: __ZN4absl12lts_2022062318container_internal12raw_hash_mapINS1_17FlatHashMapPolicyINSt3__112basic_stringIcNS4_11char_traitsIcEENS4_9allocatorIcEEEEPvEENS1_10StringHashENS1_8StringEqENS8_INS4_4pairIKSA_SB_EEEEE16try_emplace_implIRSG_JEEENSF_INS1_12raw_hash_setISC_SD_SE_SI_E8iteratorEbEEOT_DpOT0_.cold.1, symObjAddr: 0x2568, symBinAddr: 0x4C31C, symSize: 0x24 }
  - { offsetInCU: 0x2A4C6, offset: 0x99E7E, size: 0x8, addend: 0x0, symName: __ZNK4absl12lts_2022062318container_internal12raw_hash_setINS1_17FlatHashMapPolicyINSt3__112basic_stringIcNS4_11char_traitsIcEENS4_9allocatorIcEEEEPvEENS1_10StringHashENS1_8StringEqENS8_INS4_4pairIKSA_SB_EEEEE12EqualElementISA_EclISA_JRKNS4_21piecewise_construct_tENS4_5tupleIJRSG_EEENSQ_IJRKSB_EEEEEEbRKT_DpOT0_, symObjAddr: 0x17E8, symBinAddr: 0x71A8, symSize: 0x70 }
  - { offsetInCU: 0x2A66E, offset: 0x9A026, size: 0x8, addend: 0x0, symName: __ZN4absl12lts_2022062318container_internal12raw_hash_setINS1_17FlatHashMapPolicyINSt3__112basic_stringIcNS4_11char_traitsIcEENS4_9allocatorIcEEEEPvEENS1_10StringHashENS1_8StringEqENS8_INS4_4pairIKSA_SB_EEEEE22find_or_prepare_insertISA_EENSF_ImbEERKT_.cold.1, symObjAddr: 0x258C, symBinAddr: 0x4C340, symSize: 0x28 }
  - { offsetInCU: 0x2A686, offset: 0x9A03E, size: 0x8, addend: 0x0, symName: __ZN4absl12lts_2022062318container_internal12raw_hash_setINS1_17FlatHashMapPolicyINSt3__112basic_stringIcNS4_11char_traitsIcEENS4_9allocatorIcEEEEPvEENS1_10StringHashENS1_8StringEqENS8_INS4_4pairIKSA_SB_EEEEE14prepare_insertEm, symObjAddr: 0x1550, symBinAddr: 0x6F10, symSize: 0x194 }
  - { offsetInCU: 0x2A9DC, offset: 0x9A394, size: 0x8, addend: 0x0, symName: __ZN4absl12lts_2022062318container_internal12raw_hash_setINS1_17FlatHashMapPolicyINSt3__112basic_stringIcNS4_11char_traitsIcEENS4_9allocatorIcEEEEPvEENS1_10StringHashENS1_8StringEqENS8_INS4_4pairIKSA_SB_EEEEE22find_or_prepare_insertISA_EENSF_ImbEERKT_.cold.2, symObjAddr: 0x25B4, symBinAddr: 0x4C368, symSize: 0x24 }
  - { offsetInCU: 0x2AF37, offset: 0x9A8EF, size: 0x8, addend: 0x0, symName: __ZNK4absl12lts_2022062318container_internal12raw_hash_setINS1_17FlatHashMapPolicyINSt3__112basic_stringIcNS4_11char_traitsIcEENS4_9allocatorIcEEEEPvEENS1_10StringHashENS1_8StringEqENS8_INS4_4pairIKSA_SB_EEEEE4findISA_EENSJ_14const_iteratorERKT_, symObjAddr: 0x1FC0, symBinAddr: 0x7980, symSize: 0x84 }
  - { offsetInCU: 0x2B2D0, offset: 0x9AC88, size: 0x8, addend: 0x0, symName: __ZN4absl12lts_2022062318container_internal12raw_hash_setINS1_17FlatHashMapPolicyINSt3__112basic_stringIcNS4_11char_traitsIcEENS4_9allocatorIcEEEEPvEENS1_10StringHashENS1_8StringEqENS8_INS4_4pairIKSA_SB_EEEEE10emplace_atIJRKNS4_21piecewise_construct_tENS4_5tupleIJRSG_EEENSO_IJEEEEEEvmDpOT_.cold.1, symObjAddr: 0x25D8, symBinAddr: 0x4C38C, symSize: 0x24 }
  - { offsetInCU: 0x2B32D, offset: 0x9ACE5, size: 0x8, addend: 0x0, symName: __ZN4absl12lts_2022062318container_internal12raw_hash_setINS1_17FlatHashMapPolicyINSt3__112basic_stringIcNS4_11char_traitsIcEENS4_9allocatorIcEEEEPvEENS1_10StringHashENS1_8StringEqENS8_INS4_4pairIKSA_SB_EEEEE10emplace_atIJRKNS4_21piecewise_construct_tENS4_5tupleIJRSG_EEENSO_IJEEEEEEvmDpOT_.cold.4, symObjAddr: 0x2648, symBinAddr: 0x4C3FC, symSize: 0x24 }
  - { offsetInCU: 0x2B373, offset: 0x9AD2B, size: 0x8, addend: 0x0, symName: __ZN4absl12lts_2022062318container_internal12raw_hash_setINS1_17FlatHashMapPolicyINSt3__112basic_stringIcNS4_11char_traitsIcEENS4_9allocatorIcEEEEPvEENS1_10StringHashENS1_8StringEqENS8_INS4_4pairIKSA_SB_EEEEE10emplace_atIJRKNS4_21piecewise_construct_tENS4_5tupleIJRSG_EEENSO_IJEEEEEEvmDpOT_.cold.2, symObjAddr: 0x25FC, symBinAddr: 0x4C3B0, symSize: 0x24 }
  - { offsetInCU: 0x2B3D0, offset: 0x9AD88, size: 0x8, addend: 0x0, symName: __ZN4absl12lts_2022062318container_internal12raw_hash_setINS1_17FlatHashMapPolicyINSt3__112basic_stringIcNS4_11char_traitsIcEENS4_9allocatorIcEEEEPvEENS1_10StringHashENS1_8StringEqENS8_INS4_4pairIKSA_SB_EEEEE10emplace_atIJRKNS4_21piecewise_construct_tENS4_5tupleIJRSG_EEENSO_IJEEEEEEvmDpOT_.cold.3, symObjAddr: 0x2620, symBinAddr: 0x4C3D4, symSize: 0x28 }
  - { offsetInCU: 0x2B43E, offset: 0x9ADF6, size: 0x8, addend: 0x0, symName: __ZN4absl12lts_2022062318container_internal12raw_hash_setINS1_17FlatHashMapPolicyINSt3__112basic_stringIcNS4_11char_traitsIcEENS4_9allocatorIcEEEEPvEENS1_10StringHashENS1_8StringEqENS8_INS4_4pairIKSA_SB_EEEEE28rehash_and_grow_if_necessaryEv, symObjAddr: 0x1858, symBinAddr: 0x7218, symSize: 0x3C }
  - { offsetInCU: 0x2B639, offset: 0x9AFF1, size: 0x8, addend: 0x0, symName: __ZN4absl12lts_2022062318container_internal12raw_hash_setINS1_17FlatHashMapPolicyINSt3__112basic_stringIcNS4_11char_traitsIcEENS4_9allocatorIcEEEEPvEENS1_10StringHashENS1_8StringEqENS8_INS4_4pairIKSA_SB_EEEEE6resizeEm, symObjAddr: 0x1894, symBinAddr: 0x7254, symSize: 0x214 }
  - { offsetInCU: 0x2C0EC, offset: 0x9BAA4, size: 0x8, addend: 0x0, symName: __ZN4absl12lts_2022062318container_internal12raw_hash_setINS1_17FlatHashMapPolicyINSt3__112basic_stringIcNS4_11char_traitsIcEENS4_9allocatorIcEEEEPvEENS1_10StringHashENS1_8StringEqENS8_INS4_4pairIKSA_SB_EEEEE27drop_deletes_without_resizeEv, symObjAddr: 0x1AA8, symBinAddr: 0x7468, symSize: 0x3EC }
  - { offsetInCU: 0x2C0F7, offset: 0x9BAAF, size: 0x8, addend: 0x0, symName: __ZN4absl12lts_2022062318container_internal12raw_hash_setINS1_17FlatHashMapPolicyINSt3__112basic_stringIcNS4_11char_traitsIcEENS4_9allocatorIcEEEEPvEENS1_10StringHashENS1_8StringEqENS8_INS4_4pairIKSA_SB_EEEEE27drop_deletes_without_resizeEv, symObjAddr: 0x1AA8, symBinAddr: 0x7468, symSize: 0x3EC }
  - { offsetInCU: 0x2D42C, offset: 0x9CDE4, size: 0x8, addend: 0x0, symName: __ZN4absl12lts_2022062318container_internal12raw_hash_setINS1_17FlatHashMapPolicyINSt3__112basic_stringIcNS4_11char_traitsIcEENS4_9allocatorIcEEEEPvEENS1_10StringHashENS1_8StringEqENS8_INS4_4pairIKSA_SB_EEEEE16initialize_slotsEv, symObjAddr: 0x1E94, symBinAddr: 0x7854, symSize: 0x9C }
  - { offsetInCU: 0x2D595, offset: 0x9CF4D, size: 0x8, addend: 0x0, symName: __ZN4absl12lts_2022062318container_internal10DeallocateILm8ENSt3__19allocatorINS3_4pairIKNS3_12basic_stringIcNS3_11char_traitsIcEENS4_IcEEEEPvEEEEEEvPT0_SC_m, symObjAddr: 0x1F30, symBinAddr: 0x78F0, symSize: 0x18 }
  - { offsetInCU: 0x2D5A0, offset: 0x9CF58, size: 0x8, addend: 0x0, symName: __ZN4absl12lts_2022062318container_internal12raw_hash_setINS1_17FlatHashMapPolicyINSt3__112basic_stringIcNS4_11char_traitsIcEENS4_9allocatorIcEEEEPvEENS1_10StringHashENS1_8StringEqENS8_INS4_4pairIKSA_SB_EEEEE6resizeEm.cold.1, symObjAddr: 0x266C, symBinAddr: 0x4C420, symSize: 0x28 }
  - { offsetInCU: 0x2D5CF, offset: 0x9CF87, size: 0x8, addend: 0x0, symName: __ZN4absl12lts_2022062318container_internal12raw_hash_setINS1_17FlatHashMapPolicyINSt3__112basic_stringIcNS4_11char_traitsIcEENS4_9allocatorIcEEEEPvEENS1_10StringHashENS1_8StringEqENS8_INS4_4pairIKSA_SB_EEEEE6resizeEm.cold.4, symObjAddr: 0x26E0, symBinAddr: 0x4C494, symSize: 0x24 }
  - { offsetInCU: 0x2D643, offset: 0x9CFFB, size: 0x8, addend: 0x0, symName: __ZN4absl12lts_2022062318container_internal12raw_hash_setINS1_17FlatHashMapPolicyINSt3__112basic_stringIcNS4_11char_traitsIcEENS4_9allocatorIcEEEEPvEENS1_10StringHashENS1_8StringEqENS8_INS4_4pairIKSA_SB_EEEEE6resizeEm.cold.3, symObjAddr: 0x26B8, symBinAddr: 0x4C46C, symSize: 0x28 }
  - { offsetInCU: 0x2D689, offset: 0x9D041, size: 0x8, addend: 0x0, symName: __ZN4absl12lts_2022062318container_internal12raw_hash_setINS1_17FlatHashMapPolicyINSt3__112basic_stringIcNS4_11char_traitsIcEENS4_9allocatorIcEEEEPvEENS1_10StringHashENS1_8StringEqENS8_INS4_4pairIKSA_SB_EEEEE6resizeEm.cold.5, symObjAddr: 0x2704, symBinAddr: 0x4C4B8, symSize: 0x28 }
  - { offsetInCU: 0x2D6A1, offset: 0x9D059, size: 0x8, addend: 0x0, symName: __ZN4absl12lts_2022062318container_internal12raw_hash_setINS1_17FlatHashMapPolicyINSt3__112basic_stringIcNS4_11char_traitsIcEENS4_9allocatorIcEEEEPvEENS1_10StringHashENS1_8StringEqENS8_INS4_4pairIKSA_SB_EEEEE6resizeEm.cold.2, symObjAddr: 0x2694, symBinAddr: 0x4C448, symSize: 0x24 }
  - { offsetInCU: 0x2D71D, offset: 0x9D0D5, size: 0x8, addend: 0x0, symName: __ZN4absl12lts_2022062318container_internal12raw_hash_setINS1_17FlatHashMapPolicyINSt3__112basic_stringIcNS4_11char_traitsIcEENS4_9allocatorIcEEEEPvEENS1_10StringHashENS1_8StringEqENS8_INS4_4pairIKSA_SB_EEEEE17reset_growth_leftEv, symObjAddr: 0x1F78, symBinAddr: 0x7938, symSize: 0x48 }
  - { offsetInCU: 0x2D79B, offset: 0x9D153, size: 0x8, addend: 0x0, symName: __ZNK4absl12lts_2022062318container_internal12raw_hash_setINS1_17FlatHashMapPolicyINSt3__112basic_stringIcNS4_11char_traitsIcEENS4_9allocatorIcEEEEPvEENS1_10StringHashENS1_8StringEqENS8_INS4_4pairIKSA_SB_EEEEE4findISA_EENSJ_14const_iteratorERKT_, symObjAddr: 0x1FC0, symBinAddr: 0x7980, symSize: 0x84 }
  - { offsetInCU: 0x2D7A6, offset: 0x9D15E, size: 0x8, addend: 0x0, symName: __ZN4absl12lts_2022062318container_internal12raw_hash_setINS1_17FlatHashMapPolicyINSt3__112basic_stringIcNS4_11char_traitsIcEENS4_9allocatorIcEEEEPvEENS1_10StringHashENS1_8StringEqENS8_INS4_4pairIKSA_SB_EEEEE16initialize_slotsEv.cold.1, symObjAddr: 0x272C, symBinAddr: 0x4C4E0, symSize: 0x28 }
  - { offsetInCU: 0x2D7BE, offset: 0x9D176, size: 0x8, addend: 0x0, symName: __ZN4absl12lts_2022062318container_internal12raw_hash_setINS1_17FlatHashMapPolicyINSt3__112basic_stringIcNS4_11char_traitsIcEENS4_9allocatorIcEEEEPvEENS1_10StringHashENS1_8StringEqENS8_INS4_4pairIKSA_SB_EEEEE16initialize_slotsEv.cold.3, symObjAddr: 0x2778, symBinAddr: 0x4C52C, symSize: 0x24 }
  - { offsetInCU: 0x2D804, offset: 0x9D1BC, size: 0x8, addend: 0x0, symName: __ZN4absl12lts_2022062318container_internal12raw_hash_setINS1_17FlatHashMapPolicyINSt3__112basic_stringIcNS4_11char_traitsIcEENS4_9allocatorIcEEEEPvEENS1_10StringHashENS1_8StringEqENS8_INS4_4pairIKSA_SB_EEEEE16initialize_slotsEv.cold.2, symObjAddr: 0x2754, symBinAddr: 0x4C508, symSize: 0x24 }
  - { offsetInCU: 0x2D8CB, offset: 0x9D283, size: 0x8, addend: 0x0, symName: __ZN4absl12lts_2022062318container_internal10DeallocateILm8ENSt3__19allocatorINS3_4pairIKNS3_12basic_stringIcNS3_11char_traitsIcEENS4_IcEEEEPvEEEEEEvPT0_SC_m.cold.1, symObjAddr: 0x279C, symBinAddr: 0x4C550, symSize: 0x28 }
  - { offsetInCU: 0x2D927, offset: 0x9D2DF, size: 0x8, addend: 0x0, symName: __ZN4absl12lts_2022062318container_internal8AllocateILm8ENSt3__19allocatorINS3_4pairIKNS3_12basic_stringIcNS3_11char_traitsIcEENS4_IcEEEEPvEEEEEESC_PT0_m.cold.1, symObjAddr: 0x27C4, symBinAddr: 0x4C578, symSize: 0x28 }
  - { offsetInCU: 0x2D93F, offset: 0x9D2F7, size: 0x8, addend: 0x0, symName: __ZN4absl12lts_2022062318container_internal8AllocateILm8ENSt3__19allocatorINS3_4pairIKNS3_12basic_stringIcNS3_11char_traitsIcEENS4_IcEEEEPvEEEEEESC_PT0_m.cold.2, symObjAddr: 0x27EC, symBinAddr: 0x4C5A0, symSize: 0x28 }
  - { offsetInCU: 0x2D96D, offset: 0x9D325, size: 0x8, addend: 0x0, symName: __ZN4absl12lts_2022062318container_internal12raw_hash_setINS1_17FlatHashMapPolicyINSt3__112basic_stringIcNS4_11char_traitsIcEENS4_9allocatorIcEEEEPvEENS1_10StringHashENS1_8StringEqENS8_INS4_4pairIKSA_SB_EEEEE17reset_growth_leftEv.cold.1, symObjAddr: 0x2814, symBinAddr: 0x4C5C8, symSize: 0x28 }
  - { offsetInCU: 0x2D9D5, offset: 0x9D38D, size: 0x8, addend: 0x0, symName: __ZN4absl12lts_2022062318container_internal12raw_hash_setINS1_17FlatHashMapPolicyINSt3__112basic_stringIcNS4_11char_traitsIcEENS4_9allocatorIcEEEEPvEENS1_10StringHashENS1_8StringEqENS8_INS4_4pairIKSA_SB_EEEEE4findISA_EENSJ_8iteratorERKT_m.cold.1, symObjAddr: 0x283C, symBinAddr: 0x4C5F0, symSize: 0x28 }
  - { offsetInCU: 0x2D9ED, offset: 0x9D3A5, size: 0x8, addend: 0x0, symName: __ZN4absl12lts_2022062318container_internal12raw_hash_setINS1_17FlatHashMapPolicyINSt3__112basic_stringIcNS4_11char_traitsIcEENS4_9allocatorIcEEEEPvEENS1_10StringHashENS1_8StringEqENS8_INS4_4pairIKSA_SB_EEEEE4findISA_EENSJ_8iteratorERKT_m.cold.3, symObjAddr: 0x2888, symBinAddr: 0x4C63C, symSize: 0x24 }
  - { offsetInCU: 0x2DA4A, offset: 0x9D402, size: 0x8, addend: 0x0, symName: __ZN4absl12lts_2022062318container_internal12raw_hash_setINS1_17FlatHashMapPolicyINSt3__112basic_stringIcNS4_11char_traitsIcEENS4_9allocatorIcEEEEPvEENS1_10StringHashENS1_8StringEqENS8_INS4_4pairIKSA_SB_EEEEE4findISA_EENSJ_8iteratorERKT_m.cold.2, symObjAddr: 0x2864, symBinAddr: 0x4C618, symSize: 0x24 }
  - { offsetInCU: 0x2DB24, offset: 0x9D4DC, size: 0x8, addend: 0x0, symName: __ZN4absl12lts_2022062318container_internal12raw_hash_setINS1_17FlatHashMapPolicyINSt3__112basic_stringIcNS4_11char_traitsIcEENS4_9allocatorIcEEEEPvEENS1_10StringHashENS1_8StringEqENS8_INS4_4pairIKSA_SB_EEEEE15erase_meta_onlyENSJ_14const_iteratorE, symObjAddr: 0x21E0, symBinAddr: 0x7BA0, symSize: 0xC4 }
  - { offsetInCU: 0x2DD82, offset: 0x9D73A, size: 0x8, addend: 0x0, symName: __ZNSt3__110__function12__value_funcIFNS_10unique_ptrIN11grpc_binder19TransactionReceiverENS_14default_deleteIS4_EEEENS_8functionIFN4absl12lts_202206236StatusEjPNS3_14ReadableParcelEiEEEEEC2B7v160006EOSH_, symObjAddr: 0x22A4, symBinAddr: 0x7C64, symSize: 0x64 }
  - { offsetInCU: 0x2DD8D, offset: 0x9D745, size: 0x8, addend: 0x0, symName: __ZN4absl12lts_2022062318container_internal12raw_hash_setINS1_17FlatHashMapPolicyINSt3__112basic_stringIcNS4_11char_traitsIcEENS4_9allocatorIcEEEEPvEENS1_10StringHashENS1_8StringEqENS8_INS4_4pairIKSA_SB_EEEEE5eraseENSJ_8iteratorE.cold.1, symObjAddr: 0x28AC, symBinAddr: 0x4C660, symSize: 0x28 }
  - { offsetInCU: 0x2DE02, offset: 0x9D7BA, size: 0x8, addend: 0x0, symName: __ZN4absl12lts_2022062318container_internal12raw_hash_setINS1_17FlatHashMapPolicyINSt3__112basic_stringIcNS4_11char_traitsIcEENS4_9allocatorIcEEEEPvEENS1_10StringHashENS1_8StringEqENS8_INS4_4pairIKSA_SB_EEEEE15erase_meta_onlyENSJ_14const_iteratorE.cold.2, symObjAddr: 0x28FC, symBinAddr: 0x4C6B0, symSize: 0x28 }
  - { offsetInCU: 0x2DE1A, offset: 0x9D7D2, size: 0x8, addend: 0x0, symName: __ZN4absl12lts_2022062318container_internal12raw_hash_setINS1_17FlatHashMapPolicyINSt3__112basic_stringIcNS4_11char_traitsIcEENS4_9allocatorIcEEEEPvEENS1_10StringHashENS1_8StringEqENS8_INS4_4pairIKSA_SB_EEEEE15erase_meta_onlyENSJ_14const_iteratorE.cold.1, symObjAddr: 0x28D4, symBinAddr: 0x4C688, symSize: 0x28 }
  - { offsetInCU: 0x2DE49, offset: 0x9D801, size: 0x8, addend: 0x0, symName: __ZNSt12out_of_rangeC1B7v160006EPKc, symObjAddr: 0x23C4, symBinAddr: 0x7D2C, symSize: 0x24 }
  - { offsetInCU: 0x2DED2, offset: 0x9D88A, size: 0x8, addend: 0x0, symName: _OUTLINED_FUNCTION_0, symObjAddr: 0x2924, symBinAddr: 0x7D50, symSize: 0x8 }
  - { offsetInCU: 0x2DEEA, offset: 0x9D8A2, size: 0x8, addend: 0x0, symName: _OUTLINED_FUNCTION_1, symObjAddr: 0x292C, symBinAddr: 0x7D58, symSize: 0x8 }
  - { offsetInCU: 0x2DF02, offset: 0x9D8BA, size: 0x8, addend: 0x0, symName: _OUTLINED_FUNCTION_2, symObjAddr: 0x2934, symBinAddr: 0x7D60, symSize: 0x8 }
  - { offsetInCU: 0x2DF1A, offset: 0x9D8D2, size: 0x8, addend: 0x0, symName: _OUTLINED_FUNCTION_3, symObjAddr: 0x293C, symBinAddr: 0x7D68, symSize: 0x8 }
  - { offsetInCU: 0x315D, offset: 0xA0B21, size: 0x8, addend: 0x0, symName: __ZN4grpc12experimental23BinderServerCredentialsENSt3__110shared_ptrINS0_6binder14SecurityPolicyEEE, symObjAddr: 0x0, symBinAddr: 0x7DA4, symSize: 0x138 }
  - { offsetInCU: 0x5BA8, offset: 0xA356C, size: 0x8, addend: 0x0, symName: __ZNSt3__110unique_ptrIN4grpc12experimental12_GLOBAL__N_127BinderServerCredentialsImplENS_14default_deleteIS4_EEED1B7v160006Ev, symObjAddr: 0x23C, symBinAddr: 0x7F80, symSize: 0x40 }
  - { offsetInCU: 0x5CAD, offset: 0xA3671, size: 0x8, addend: 0x0, symName: __ZN4grpc12experimental23BinderServerCredentialsENSt3__110shared_ptrINS0_6binder14SecurityPolicyEEE.cold.1, symObjAddr: 0x358, symBinAddr: 0x4C6D8, symSize: 0x38 }
  - { offsetInCU: 0x5D35, offset: 0xA36F9, size: 0x8, addend: 0x0, symName: __ZN4grpc12experimental12_GLOBAL__N_127BinderServerCredentialsImplD1Ev, symObjAddr: 0x138, symBinAddr: 0x7EDC, symSize: 0x28 }
  - { offsetInCU: 0x5DBD, offset: 0xA3781, size: 0x8, addend: 0x0, symName: __ZN4grpc12experimental12_GLOBAL__N_127BinderServerCredentialsImplD0Ev, symObjAddr: 0x160, symBinAddr: 0x7F04, symSize: 0x2C }
  - { offsetInCU: 0x5E4B, offset: 0xA380F, size: 0x8, addend: 0x0, symName: __ZN4grpc12experimental12_GLOBAL__N_127BinderServerCredentialsImpl24SetAuthMetadataProcessorERKNSt3__110shared_ptrINS_21AuthMetadataProcessorEEE, symObjAddr: 0x18C, symBinAddr: 0x7F30, symSize: 0x38 }
  - { offsetInCU: 0x5EAF, offset: 0xA3873, size: 0x8, addend: 0x0, symName: __ZN4grpc12experimental12_GLOBAL__N_127BinderServerCredentialsImpl15AddPortToServerERKNSt3__112basic_stringIcNS3_11char_traitsIcEENS3_9allocatorIcEEEEP11grpc_server, symObjAddr: 0x1C4, symBinAddr: 0x7F68, symSize: 0x8 }
  - { offsetInCU: 0x5EE2, offset: 0xA38A6, size: 0x8, addend: 0x0, symName: __ZNK4grpc12experimental12_GLOBAL__N_127BinderServerCredentialsImpl10IsInsecureEv, symObjAddr: 0x1CC, symBinAddr: 0x7F70, symSize: 0x8 }
  - { offsetInCU: 0x5F05, offset: 0xA38C9, size: 0x8, addend: 0x0, symName: __ZN4grpc17ServerCredentials25AsSecureServerCredentialsEv, symObjAddr: 0x1D4, symBinAddr: 0x7F78, symSize: 0x8 }
  - { offsetInCU: 0x5FB8, offset: 0xA397C, size: 0x8, addend: 0x0, symName: __ZNSt3__120__shared_ptr_pointerIPN4grpc12experimental12_GLOBAL__N_127BinderServerCredentialsImplENS_10shared_ptrINS1_17ServerCredentialsEE27__shared_ptr_default_deleteIS7_S4_EENS_9allocatorIS4_EEED1Ev, symObjAddr: 0x27C, symBinAddr: 0x7FC0, symSize: 0x4 }
  - { offsetInCU: 0x5FDA, offset: 0xA399E, size: 0x8, addend: 0x0, symName: __ZNSt3__120__shared_ptr_pointerIPN4grpc12experimental12_GLOBAL__N_127BinderServerCredentialsImplENS_10shared_ptrINS1_17ServerCredentialsEE27__shared_ptr_default_deleteIS7_S4_EENS_9allocatorIS4_EEED1Ev, symObjAddr: 0x27C, symBinAddr: 0x7FC0, symSize: 0x4 }
  - { offsetInCU: 0x6010, offset: 0xA39D4, size: 0x8, addend: 0x0, symName: __ZNSt3__120__shared_ptr_pointerIPN4grpc12experimental12_GLOBAL__N_127BinderServerCredentialsImplENS_10shared_ptrINS1_17ServerCredentialsEE27__shared_ptr_default_deleteIS7_S4_EENS_9allocatorIS4_EEED0Ev, symObjAddr: 0x280, symBinAddr: 0x7FC4, symSize: 0x14 }
  - { offsetInCU: 0x6073, offset: 0xA3A37, size: 0x8, addend: 0x0, symName: __ZNSt3__120__shared_ptr_pointerIPN4grpc12experimental12_GLOBAL__N_127BinderServerCredentialsImplENS_10shared_ptrINS1_17ServerCredentialsEE27__shared_ptr_default_deleteIS7_S4_EENS_9allocatorIS4_EEE16__on_zero_sharedEv, symObjAddr: 0x294, symBinAddr: 0x7FD8, symSize: 0x8 }
  - { offsetInCU: 0x60A8, offset: 0xA3A6C, size: 0x8, addend: 0x0, symName: __ZNKSt3__114default_deleteIN4grpc12experimental12_GLOBAL__N_127BinderServerCredentialsImplEEclB7v160006EPS4_, symObjAddr: 0x2DC, symBinAddr: 0x8020, symSize: 0x34 }
  - { offsetInCU: 0x6133, offset: 0xA3AF7, size: 0x8, addend: 0x0, symName: __ZNKSt3__120__shared_ptr_pointerIPN4grpc12experimental12_GLOBAL__N_127BinderServerCredentialsImplENS_10shared_ptrINS1_17ServerCredentialsEE27__shared_ptr_default_deleteIS7_S4_EENS_9allocatorIS4_EEE13__get_deleterERKSt9type_info, symObjAddr: 0x29C, symBinAddr: 0x7FE0, symSize: 0x3C }
  - { offsetInCU: 0x6226, offset: 0xA3BEA, size: 0x8, addend: 0x0, symName: __ZNSt3__120__shared_ptr_pointerIPN4grpc12experimental12_GLOBAL__N_127BinderServerCredentialsImplENS_10shared_ptrINS1_17ServerCredentialsEE27__shared_ptr_default_deleteIS7_S4_EENS_9allocatorIS4_EEE21__on_zero_shared_weakEv, symObjAddr: 0x2D8, symBinAddr: 0x801C, symSize: 0x4 }
  - { offsetInCU: 0x625C, offset: 0xA3C20, size: 0x8, addend: 0x0, symName: __ZNSt3__120__shared_ptr_pointerIPN4grpc12experimental12_GLOBAL__N_127BinderServerCredentialsImplENS_10shared_ptrINS1_17ServerCredentialsEE27__shared_ptr_default_deleteIS7_S4_EENS_9allocatorIS4_EEE21__on_zero_shared_weakEv, symObjAddr: 0x2D8, symBinAddr: 0x801C, symSize: 0x4 }
  - { offsetInCU: 0x627F, offset: 0xA3C43, size: 0x8, addend: 0x0, symName: __ZNSt3__120__shared_ptr_pointerIPN4grpc12experimental12_GLOBAL__N_127BinderServerCredentialsImplENS_10shared_ptrINS1_17ServerCredentialsEE27__shared_ptr_default_deleteIS7_S4_EENS_9allocatorIS4_EEE21__on_zero_shared_weakEv, symObjAddr: 0x2D8, symBinAddr: 0x801C, symSize: 0x4 }
  - { offsetInCU: 0x62A9, offset: 0xA3C6D, size: 0x8, addend: 0x0, symName: __ZNSt3__120__shared_ptr_pointerIPN4grpc12experimental12_GLOBAL__N_127BinderServerCredentialsImplENS_10shared_ptrINS1_17ServerCredentialsEE27__shared_ptr_default_deleteIS7_S4_EENS_9allocatorIS4_EEE21__on_zero_shared_weakEv, symObjAddr: 0x2D8, symBinAddr: 0x801C, symSize: 0x4 }
  - { offsetInCU: 0x62CD, offset: 0xA3C91, size: 0x8, addend: 0x0, symName: __ZNSt3__120__shared_ptr_pointerIPN4grpc12experimental12_GLOBAL__N_127BinderServerCredentialsImplENS_10shared_ptrINS1_17ServerCredentialsEE27__shared_ptr_default_deleteIS7_S4_EENS_9allocatorIS4_EEE21__on_zero_shared_weakEv, symObjAddr: 0x2D8, symBinAddr: 0x801C, symSize: 0x4 }
  - { offsetInCU: 0x4D5F, offset: 0xA8A58, size: 0x8, addend: 0x0, symName: __ZN9grpc_core22SimpleIntBasedMetadataIjLj0EE12ParseMementoENS_5SliceEN4absl12lts_2022062311FunctionRefIFvNS4_11string_viewERKS2_EEE, symObjAddr: 0x6FF4, symBinAddr: 0xEDC8, symSize: 0x6C }
  - { offsetInCU: 0x535D, offset: 0xA9056, size: 0x8, addend: 0x0, symName: __ZN9grpc_core22SimpleIntBasedMetadataI16grpc_status_codeLS1_2EE12ParseMementoENS_5SliceEN4absl12lts_2022062311FunctionRefIFvNS5_11string_viewERKS3_EEE, symObjAddr: 0x78C4, symBinAddr: 0xF698, symSize: 0x6C }
  - { offsetInCU: 0x10AAE, offset: 0xB47A7, size: 0x8, addend: 0x0, symName: __ZNSt3__1L19piecewise_constructE, symObjAddr: 0xE0AD, symBinAddr: 0x52270, symSize: 0x0 }
  - { offsetInCU: 0x2F9E2, offset: 0xD36DB, size: 0x8, addend: 0x0, symName: __ZNSt3__130__uninitialized_allocator_copyB7v160006INS_9allocatorINS_4pairINS_12basic_stringIcNS_11char_traitsIcEENS1_IcEEEES7_EEEEPS8_SA_SA_EET2_RT_T0_T1_SB_, symObjAddr: 0x4F08, symBinAddr: 0xCE40, symSize: 0xA0 }
  - { offsetInCU: 0x2FBEA, offset: 0xD38E3, size: 0x8, addend: 0x0, symName: __ZNSt3__119__allocate_at_leastB7v160006INS_9allocatorINS_4pairINS_12basic_stringIcNS_11char_traitsIcEENS1_IcEEEES7_EEEEEENS_19__allocation_resultINS_16allocator_traitsIT_E7pointerEEERSC_m, symObjAddr: 0x5090, symBinAddr: 0xCFC8, symSize: 0x44 }
  - { offsetInCU: 0x2FE53, offset: 0xD3B4C, size: 0x8, addend: 0x0, symName: __ZNSt3__142__uninitialized_allocator_move_if_noexceptB7v160006INS_9allocatorINS_4pairINS_12basic_stringIcNS_11char_traitsIcEENS1_IcEEEES7_EEEENS_16reverse_iteratorIPS8_EESC_SC_EET2_RT_T0_T1_SD_, symObjAddr: 0x56FC, symBinAddr: 0xD5AC, symSize: 0xB4 }
  - { offsetInCU: 0x318B6, offset: 0xD55AF, size: 0x8, addend: 0x0, symName: __ZSt28__throw_bad_array_new_lengthB7v160006v, symObjAddr: 0x1DD4, symBinAddr: 0x9D7C, symSize: 0x28 }
  - { offsetInCU: 0x318EC, offset: 0xD55E5, size: 0x8, addend: 0x0, symName: __ZL6vtable, symObjAddr: 0xDCB0, symBinAddr: 0x692C0, symSize: 0x0 }
  - { offsetInCU: 0x323F4, offset: 0xD60ED, size: 0x8, addend: 0x0, symName: '__ZN4absl12lts_2022062319functional_internal12InvokeObjectIZL14AssignMetadataP19grpc_metadata_batchRKNSt3__16vectorINS5_4pairINS5_12basic_stringIcNS5_11char_traitsIcEENS5_9allocatorIcEEEESD_EENSB_ISE_EEEEE3$_2vJNS0_11string_viewERKN9grpc_core5SliceEEEET0_NS1_7VoidPtrEDpNS1_8ForwardTIT1_E4typeE', symObjAddr: 0x9000, symBinAddr: 0x10DD4, symSize: 0x108 }
  - { offsetInCU: 0x34E31, offset: 0xD8B2A, size: 0x8, addend: 0x0, symName: __ZN4absl12lts_2022062318container_internal10DeallocateILm8ENSt3__19allocatorINS3_4pairIKiP18grpc_binder_streamEEEEEEvPT0_Pvm, symObjAddr: 0x1D44, symBinAddr: 0x9CEC, symSize: 0x18 }
  - { offsetInCU: 0x34F2F, offset: 0xD8C28, size: 0x8, addend: 0x0, symName: __ZN4absl12lts_2022062318container_internal8AllocateILm8ENSt3__19allocatorINS3_4pairIKiP18grpc_binder_streamEEEEEEPvPT0_m, symObjAddr: 0x1D5C, symBinAddr: 0x9D04, symSize: 0x30 }
  - { offsetInCU: 0x3650E, offset: 0xDA207, size: 0x8, addend: 0x0, symName: __ZN4absl12lts_2022062318container_internaleqERKNS1_12raw_hash_setINS1_17FlatHashMapPolicyIiP18grpc_binder_streamEENS0_13hash_internal4HashIiEENSt3__18equal_toIiEENSA_9allocatorINSA_4pairIKiS5_EEEEE8iteratorESL_, symObjAddr: 0x1DFC, symBinAddr: 0x9DA4, symSize: 0x40 }
  - { offsetInCU: 0x365BF, offset: 0xDA2B8, size: 0x8, addend: 0x0, symName: __ZN4absl12lts_2022062318container_internal12raw_hash_setINS1_17FlatHashMapPolicyIiP18grpc_binder_streamEENS0_13hash_internal4HashIiEENSt3__18equal_toIiEENSA_9allocatorINSA_4pairIKiS5_EEEEE4findIiEENSI_8iteratorERSF_m, symObjAddr: 0x1E3C, symBinAddr: 0x9DE4, symSize: 0xC4 }
  - { offsetInCU: 0x36860, offset: 0xDA559, size: 0x8, addend: 0x0, symName: __ZN4absl12lts_2022062318container_internal8AllocateILm8ENSt3__19allocatorINS3_4pairIKiP18grpc_binder_streamEEEEEEPvPT0_m, symObjAddr: 0x1D5C, symBinAddr: 0x9D04, symSize: 0x30 }
  - { offsetInCU: 0x36939, offset: 0xDA632, size: 0x8, addend: 0x0, symName: __ZN4absl12lts_2022062318container_internal12raw_hash_setINS1_17FlatHashMapPolicyIiP18grpc_binder_streamEENS0_13hash_internal4HashIiEENSt3__18equal_toIiEENSA_9allocatorINSA_4pairIKiS5_EEEEE17reset_growth_leftEv, symObjAddr: 0x1D8C, symBinAddr: 0x9D34, symSize: 0x48 }
  - { offsetInCU: 0x3C230, offset: 0xDFF29, size: 0x8, addend: 0x0, symName: __ZNSt3__16vectorINS_4pairINS_12basic_stringIcNS_11char_traitsIcEENS_9allocatorIcEEEES7_EENS5_IS8_EEE26__swap_out_circular_bufferERNS_14__split_bufferIS8_RS9_EE, symObjAddr: 0x5688, symBinAddr: 0xD538, symSize: 0x74 }
  - { offsetInCU: 0x3C38B, offset: 0xE0084, size: 0x8, addend: 0x0, symName: __ZL24perform_stream_op_lockedPvN4absl12lts_202206236StatusE, symObjAddr: 0x2000, symBinAddr: 0x9F38, symSize: 0xA5C }
  - { offsetInCU: 0x3F2C6, offset: 0xE2FBF, size: 0x8, addend: 0x0, symName: __ZL14AssignMetadataP19grpc_metadata_batchRKNSt3__16vectorINS1_4pairINS1_12basic_stringIcNS1_11char_traitsIcEENS1_9allocatorIcEEEES9_EENS7_ISA_EEEE, symObjAddr: 0x616C, symBinAddr: 0xE01C, symSize: 0x148 }
  - { offsetInCU: 0x414E6, offset: 0xE51DF, size: 0x8, addend: 0x0, symName: __ZN21grpc_binder_transportC2ENSt3__110unique_ptrIN11grpc_binder6BinderENS0_14default_deleteIS3_EEEEbNS0_10shared_ptrIN4grpc12experimental6binder14SecurityPolicyEEE, symObjAddr: 0x0, symBinAddr: 0x8088, symSize: 0x4E0 }
  - { offsetInCU: 0x42FEB, offset: 0xE6CE4, size: 0x8, addend: 0x0, symName: __ZN21grpc_binder_transportC1ENSt3__110unique_ptrIN11grpc_binder6BinderENS0_14default_deleteIS3_EEEEbNS0_10shared_ptrIN4grpc12experimental6binder14SecurityPolicyEEE, symObjAddr: 0x614, symBinAddr: 0x866C, symSize: 0x4 }
  - { offsetInCU: 0x4304F, offset: 0xE6D48, size: 0x8, addend: 0x0, symName: __ZN21grpc_binder_transportC1ENSt3__110unique_ptrIN11grpc_binder6BinderENS0_14default_deleteIS3_EEEEbNS0_10shared_ptrIN4grpc12experimental6binder14SecurityPolicyEEE, symObjAddr: 0x614, symBinAddr: 0x866C, symSize: 0x4 }
  - { offsetInCU: 0x46519, offset: 0xEA212, size: 0x8, addend: 0x0, symName: __ZN11grpc_binder27TransportStreamReceiverImplC2EbNSt3__18functionIFvvEEE, symObjAddr: 0xA6F4, symBinAddr: 0x123F4, symSize: 0x188 }
  - { offsetInCU: 0x47025, offset: 0xEAD1E, size: 0x8, addend: 0x0, symName: __ZNSt3__110shared_ptrIN11grpc_binder23TransportStreamReceiverEEaSB7v160006INS1_27TransportStreamReceiverImplEvEERS3_ONS0_IT_EE, symObjAddr: 0x510, symBinAddr: 0x8568, symSize: 0x64 }
  - { offsetInCU: 0x47195, offset: 0xEAE8E, size: 0x8, addend: 0x0, symName: __ZN9grpc_core8RefCount3RefERKNS_13DebugLocationEPKcl, symObjAddr: 0xA39C, symBinAddr: 0x120A4, symSize: 0x70 }
  - { offsetInCU: 0x47297, offset: 0xEAF90, size: 0x8, addend: 0x0, symName: __ZNSt3__110shared_ptrIN11grpc_binder10WireWriterEEaSB7v160006EOS3_, symObjAddr: 0x574, symBinAddr: 0x85CC, symSize: 0x64 }
  - { offsetInCU: 0x47450, offset: 0xEB149, size: 0x8, addend: 0x0, symName: __ZNSt3__110shared_ptrIN11grpc_binder23TransportStreamReceiverEED2B7v160006Ev, symObjAddr: 0xA474, symBinAddr: 0x12174, symSize: 0x58 }
  - { offsetInCU: 0x474DD, offset: 0xEB1D6, size: 0x8, addend: 0x0, symName: __ZN4absl12lts_2022062318container_internal12raw_hash_setINS1_17FlatHashMapPolicyIiP18grpc_binder_streamEENS0_13hash_internal4HashIiEENSt3__18equal_toIiEENSA_9allocatorINSA_4pairIKiS5_EEEEE13destroy_slotsEv, symObjAddr: 0xA40C, symBinAddr: 0x12114, symSize: 0x60 }
  - { offsetInCU: 0x47597, offset: 0xEB290, size: 0x8, addend: 0x0, symName: __ZNSt3__110shared_ptrIN11grpc_binder10WireWriterEED2B7v160006Ev, symObjAddr: 0xA4CC, symBinAddr: 0x121CC, symSize: 0x58 }
  - { offsetInCU: 0x47624, offset: 0xEB31D, size: 0x8, addend: 0x0, symName: __ZNSt3__110unique_ptrIN11grpc_binder10WireReaderEN9grpc_core16OrphanableDeleteEED1B7v160006Ev, symObjAddr: 0x5D8, symBinAddr: 0x8630, symSize: 0x3C }
  - { offsetInCU: 0x4786C, offset: 0xEB565, size: 0x8, addend: 0x0, symName: __ZN21grpc_binder_transportD2Ev, symObjAddr: 0x618, symBinAddr: 0x8670, symSize: 0x80 }
  - { offsetInCU: 0x47A3E, offset: 0xEB737, size: 0x8, addend: 0x0, symName: __ZN21grpc_binder_transportD1Ev, symObjAddr: 0x6A4, symBinAddr: 0x86F0, symSize: 0x4 }
  - { offsetInCU: 0x47A61, offset: 0xEB75A, size: 0x8, addend: 0x0, symName: __ZN21grpc_binder_transportD1Ev, symObjAddr: 0x6A4, symBinAddr: 0x86F0, symSize: 0x4 }
  - { offsetInCU: 0x47B0B, offset: 0xEB804, size: 0x8, addend: 0x0, symName: __Z35grpc_create_binder_transport_clientNSt3__110unique_ptrIN11grpc_binder6BinderENS_14default_deleteIS2_EEEENS_10shared_ptrIN4grpc12experimental6binder14SecurityPolicyEEE, symObjAddr: 0x6A8, symBinAddr: 0x86F4, symSize: 0x12C }
  - { offsetInCU: 0x48018, offset: 0xEBD11, size: 0x8, addend: 0x0, symName: __Z35grpc_create_binder_transport_clientNSt3__110unique_ptrIN11grpc_binder6BinderENS_14default_deleteIS2_EEEENS_10shared_ptrIN4grpc12experimental6binder14SecurityPolicyEEE.cold.1, symObjAddr: 0xB0A4, symBinAddr: 0x4C710, symSize: 0x34 }
  - { offsetInCU: 0x48030, offset: 0xEBD29, size: 0x8, addend: 0x0, symName: __Z35grpc_create_binder_transport_clientNSt3__110unique_ptrIN11grpc_binder6BinderENS_14default_deleteIS2_EEEENS_10shared_ptrIN4grpc12experimental6binder14SecurityPolicyEEE.cold.2, symObjAddr: 0xB0D8, symBinAddr: 0x4C744, symSize: 0x34 }
  - { offsetInCU: 0x48048, offset: 0xEBD41, size: 0x8, addend: 0x0, symName: __Z35grpc_create_binder_transport_serverNSt3__110unique_ptrIN11grpc_binder6BinderENS_14default_deleteIS2_EEEENS_10shared_ptrIN4grpc12experimental6binder14SecurityPolicyEEE, symObjAddr: 0x7D4, symBinAddr: 0x8820, symSize: 0x12C }
  - { offsetInCU: 0x48555, offset: 0xEC24E, size: 0x8, addend: 0x0, symName: __Z35grpc_create_binder_transport_serverNSt3__110unique_ptrIN11grpc_binder6BinderENS_14default_deleteIS2_EEEENS_10shared_ptrIN4grpc12experimental6binder14SecurityPolicyEEE.cold.1, symObjAddr: 0xB10C, symBinAddr: 0x4C778, symSize: 0x34 }
  - { offsetInCU: 0x4856D, offset: 0xEC266, size: 0x8, addend: 0x0, symName: __Z35grpc_create_binder_transport_serverNSt3__110unique_ptrIN11grpc_binder6BinderENS_14default_deleteIS2_EEEENS_10shared_ptrIN4grpc12experimental6binder14SecurityPolicyEEE.cold.2, symObjAddr: 0xB140, symBinAddr: 0x4C7AC, symSize: 0x34 }
  - { offsetInCU: 0x486BE, offset: 0xEC3B7, size: 0x8, addend: 0x0, symName: __ZL11init_streamP14grpc_transportP11grpc_streamP20grpc_stream_refcountPKvPN9grpc_core5ArenaE, symObjAddr: 0x900, symBinAddr: 0x894C, symSize: 0x12C }
  - { offsetInCU: 0x48998, offset: 0xEC691, size: 0x8, addend: 0x0, symName: __ZN21grpc_binder_transport15NewStreamTxCodeEv, symObjAddr: 0xDF4, symBinAddr: 0x8E40, symSize: 0x40 }
  - { offsetInCU: 0x48A69, offset: 0xEC762, size: 0x8, addend: 0x0, symName: __ZL22register_stream_lockedPvN4absl12lts_202206236StatusE, symObjAddr: 0xE34, symBinAddr: 0x8E80, symSize: 0x3C }
  - { offsetInCU: 0x48A74, offset: 0xEC76D, size: 0x8, addend: 0x0, symName: __ZN18grpc_binder_streamC2EP21grpc_binder_transportP20grpc_stream_refcountPKvPN9grpc_core5ArenaEib, symObjAddr: 0xE74, symBinAddr: 0x8EBC, symSize: 0xCC }
  - { offsetInCU: 0x48E56, offset: 0xECB4F, size: 0x8, addend: 0x0, symName: __ZL11set_pollsetP14grpc_transportP11grpc_streamP12grpc_pollset, symObjAddr: 0xA2C, symBinAddr: 0x8A78, symSize: 0x44 }
  - { offsetInCU: 0x48EBE, offset: 0xECBB7, size: 0x8, addend: 0x0, symName: __ZL15set_pollset_setP14grpc_transportP11grpc_streamP16grpc_pollset_set, symObjAddr: 0xA70, symBinAddr: 0x8ABC, symSize: 0x1C }
  - { offsetInCU: 0x48F0E, offset: 0xECC07, size: 0x8, addend: 0x0, symName: __ZL17perform_stream_opP14grpc_transportP11grpc_streamP30grpc_transport_stream_op_batch, symObjAddr: 0xA8C, symBinAddr: 0x8AD8, symSize: 0xE4 }
  - { offsetInCU: 0x490BB, offset: 0xECDB4, size: 0x8, addend: 0x0, symName: __ZL22grpc_binder_stream_refP18grpc_binder_streamPKc, symObjAddr: 0x1F70, symBinAddr: 0x9EA8, symSize: 0x90 }
  - { offsetInCU: 0x49226, offset: 0xECF1F, size: 0x8, addend: 0x0, symName: __ZL20perform_transport_opP14grpc_transportP17grpc_transport_op, symObjAddr: 0xB70, symBinAddr: 0x8BBC, symSize: 0xD8 }
  - { offsetInCU: 0x494AE, offset: 0xED1A7, size: 0x8, addend: 0x0, symName: __ZL14destroy_streamP14grpc_transportP11grpc_streamP12grpc_closure, symObjAddr: 0xC48, symBinAddr: 0x8C94, symSize: 0xB8 }
  - { offsetInCU: 0x49673, offset: 0xED36C, size: 0x8, addend: 0x0, symName: __ZL17destroy_transportP14grpc_transport, symObjAddr: 0xD00, symBinAddr: 0x8D4C, symSize: 0xC4 }
  - { offsetInCU: 0x49837, offset: 0xED530, size: 0x8, addend: 0x0, symName: __ZL12get_endpointP14grpc_transport, symObjAddr: 0xDC4, symBinAddr: 0x8E10, symSize: 0x30 }
  - { offsetInCU: 0x49914, offset: 0xED60D, size: 0x8, addend: 0x0, symName: __ZN21grpc_binder_transport15NewStreamTxCodeEv.cold.1, symObjAddr: 0xB174, symBinAddr: 0x4C7E0, symSize: 0x34 }
  - { offsetInCU: 0x49947, offset: 0xED640, size: 0x8, addend: 0x0, symName: __ZL22register_stream_lockedPvN4absl12lts_202206236StatusE, symObjAddr: 0xE34, symBinAddr: 0x8E80, symSize: 0x3C }
  - { offsetInCU: 0x499C2, offset: 0xED6BB, size: 0x8, addend: 0x0, symName: __ZN4absl12lts_2022062318container_internal12raw_hash_mapINS1_17FlatHashMapPolicyIiP18grpc_binder_streamEENS0_13hash_internal4HashIiEENSt3__18equal_toIiEENSA_9allocatorINSA_4pairIKiS5_EEEEEixIiS6_LPi0EEEDTclsrT0_5valueclL_ZNSA_9addressofB7v160006ISG_EEPT_RSN_EclL_ZNSA_7declvalIRSG_EEDTclsr3stdE9__declvalISN_ELi0EEEvEEEEEOi, symObjAddr: 0x12F8, symBinAddr: 0x92A0, symSize: 0x3C }
  - { offsetInCU: 0x49A8E, offset: 0xED787, size: 0x8, addend: 0x0, symName: __ZNK4absl12lts_2022062318container_internal12raw_hash_setINS1_17FlatHashMapPolicyIiP18grpc_binder_streamEENS0_13hash_internal4HashIiEENSt3__18equal_toIiEENSA_9allocatorINSA_4pairIKiS5_EEEEE8iteratordeEv, symObjAddr: 0x1334, symBinAddr: 0x92DC, symSize: 0x28 }
  - { offsetInCU: 0x49C80, offset: 0xED979, size: 0x8, addend: 0x0, symName: __ZN4absl12lts_202206238StatusOrINSt3__16vectorINS2_4pairINS2_12basic_stringIcNS2_11char_traitsIcEENS2_9allocatorIcEEEESA_EENS8_ISB_EEEEEC2Ev, symObjAddr: 0xF40, symBinAddr: 0x8F88, symSize: 0x70 }
  - { offsetInCU: 0x49D2F, offset: 0xEDA28, size: 0x8, addend: 0x0, symName: __ZN4absl12lts_202206238StatusOrINSt3__112basic_stringIcNS2_11char_traitsIcEENS2_9allocatorIcEEEEEC2Ev, symObjAddr: 0x1008, symBinAddr: 0x9050, symSize: 0x70 }
  - { offsetInCU: 0x49DDE, offset: 0xEDAD7, size: 0x8, addend: 0x0, symName: __ZN4absl12lts_2022062317internal_statusor12StatusOrDataINSt3__112basic_stringIcNS3_11char_traitsIcEENS3_9allocatorIcEEEEED2Ev, symObjAddr: 0x10D0, symBinAddr: 0x9118, symSize: 0x48 }
  - { offsetInCU: 0x49FBE, offset: 0xEDCB7, size: 0x8, addend: 0x0, symName: __ZN4absl12lts_2022062317internal_statusor12StatusOrDataINSt3__16vectorINS3_4pairINS3_12basic_stringIcNS3_11char_traitsIcEENS3_9allocatorIcEEEESB_EENS9_ISC_EEEEED2Ev, symObjAddr: 0x1118, symBinAddr: 0x9160, symSize: 0x40 }
  - { offsetInCU: 0x4A0A5, offset: 0xEDD9E, size: 0x8, addend: 0x0, symName: __ZN4absl12lts_2022062317internal_statusor12StatusOrDataINSt3__16vectorINS3_4pairINS3_12basic_stringIcNS3_11char_traitsIcEENS3_9allocatorIcEEEESB_EENS9_ISC_EEEEEC2INS0_6StatusELi0EEEOT_, symObjAddr: 0xFB0, symBinAddr: 0x8FF8, symSize: 0x58 }
  - { offsetInCU: 0x4A240, offset: 0xEDF39, size: 0x8, addend: 0x0, symName: __ZN4absl12lts_2022062317internal_statusor12StatusOrDataINSt3__112basic_stringIcNS3_11char_traitsIcEENS3_9allocatorIcEEEEEC2INS0_6StatusELi0EEEOT_, symObjAddr: 0x1078, symBinAddr: 0x90C0, symSize: 0x58 }
  - { offsetInCU: 0x4A451, offset: 0xEE14A, size: 0x8, addend: 0x0, symName: __ZNSt3__16vectorINS_4pairINS_12basic_stringIcNS_11char_traitsIcEENS_9allocatorIcEEEES7_EENS5_IS8_EEED2B7v160006Ev, symObjAddr: 0x1158, symBinAddr: 0x91A0, symSize: 0x38 }
  - { offsetInCU: 0x4A531, offset: 0xEE22A, size: 0x8, addend: 0x0, symName: __ZNSt3__16vectorINS_4pairINS_12basic_stringIcNS_11char_traitsIcEENS_9allocatorIcEEEES7_EENS5_IS8_EEE16__destroy_vectorclB7v160006Ev, symObjAddr: 0x1190, symBinAddr: 0x91D8, symSize: 0x84 }
  - { offsetInCU: 0x4A767, offset: 0xEE460, size: 0x8, addend: 0x0, symName: __ZNSt3__19allocatorINS_4pairINS_12basic_stringIcNS_11char_traitsIcEENS0_IcEEEES6_EEE7destroyB7v160006EPS7_, symObjAddr: 0x1214, symBinAddr: 0x925C, symSize: 0x44 }
  - { offsetInCU: 0x4AB33, offset: 0xEE82C, size: 0x8, addend: 0x0, symName: __ZNK4absl12lts_2022062318container_internal12raw_hash_setINS1_17FlatHashMapPolicyIiP18grpc_binder_streamEENS0_13hash_internal4HashIiEENSt3__18equal_toIiEENSA_9allocatorINSA_4pairIKiS5_EEEEE8iteratordeEv, symObjAddr: 0x1334, symBinAddr: 0x92DC, symSize: 0x28 }
  - { offsetInCU: 0x4AB86, offset: 0xEE87F, size: 0x8, addend: 0x0, symName: __ZN4absl12lts_2022062318container_internal12raw_hash_mapINS1_17FlatHashMapPolicyIiP18grpc_binder_streamEENS0_13hash_internal4HashIiEENSt3__18equal_toIiEENSA_9allocatorINSA_4pairIKiS5_EEEEE16try_emplace_implIiJEEENSE_INS1_12raw_hash_setIS6_S9_SC_SH_E8iteratorEbEEOT_DpOT0_, symObjAddr: 0x135C, symBinAddr: 0x9304, symSize: 0x90 }
  - { offsetInCU: 0x4ABBA, offset: 0xEE8B3, size: 0x8, addend: 0x0, symName: __ZN4absl12lts_2022062318container_internal12raw_hash_mapINS1_17FlatHashMapPolicyIiP18grpc_binder_streamEENS0_13hash_internal4HashIiEENSt3__18equal_toIiEENSA_9allocatorINSA_4pairIKiS5_EEEEE16try_emplace_implIiJEEENSE_INS1_12raw_hash_setIS6_S9_SC_SH_E8iteratorEbEEOT_DpOT0_, symObjAddr: 0x135C, symBinAddr: 0x9304, symSize: 0x90 }
  - { offsetInCU: 0x4ACE5, offset: 0xEE9DE, size: 0x8, addend: 0x0, symName: __ZN4absl12lts_2022062318container_internal12raw_hash_setINS1_17FlatHashMapPolicyIiP18grpc_binder_streamEENS0_13hash_internal4HashIiEENSt3__18equal_toIiEENSA_9allocatorINSA_4pairIKiS5_EEEEE22find_or_prepare_insertIiEENSE_ImbEERKT_, symObjAddr: 0x13EC, symBinAddr: 0x9394, symSize: 0xF4 }
  - { offsetInCU: 0x4ACFF, offset: 0xEE9F8, size: 0x8, addend: 0x0, symName: __ZN4absl12lts_2022062318container_internal12raw_hash_mapINS1_17FlatHashMapPolicyIiP18grpc_binder_streamEENS0_13hash_internal4HashIiEENSt3__18equal_toIiEENSA_9allocatorINSA_4pairIKiS5_EEEEEixIiS6_LPi0EEEDTclsrT0_5valueclL_ZNSA_9addressofB7v160006ISG_EEPT_RSN_EclL_ZNSA_7declvalIRSG_EEDTclsr3stdE9__declvalISN_ELi0EEEvEEEEEOi.cold.1, symObjAddr: 0xB1A8, symBinAddr: 0x4C814, symSize: 0x24 }
  - { offsetInCU: 0x4AD43, offset: 0xEEA3C, size: 0x8, addend: 0x0, symName: __ZNK4absl12lts_2022062318container_internal12raw_hash_setINS1_17FlatHashMapPolicyIiP18grpc_binder_streamEENS0_13hash_internal4HashIiEENSt3__18equal_toIiEENSA_9allocatorINSA_4pairIKiS5_EEEEE8iteratordeEv.cold.1, symObjAddr: 0xB1CC, symBinAddr: 0x4C838, symSize: 0x24 }
  - { offsetInCU: 0x4AEA1, offset: 0xEEB9A, size: 0x8, addend: 0x0, symName: __ZN4absl12lts_2022062318container_internal12raw_hash_setINS1_17FlatHashMapPolicyIiP18grpc_binder_streamEENS0_13hash_internal4HashIiEENSt3__18equal_toIiEENSA_9allocatorINSA_4pairIKiS5_EEEEE22find_or_prepare_insertIiEENSE_ImbEERKT_, symObjAddr: 0x13EC, symBinAddr: 0x9394, symSize: 0xF4 }
  - { offsetInCU: 0x4B212, offset: 0xEEF0B, size: 0x8, addend: 0x0, symName: __ZN4absl12lts_2022062318container_internal12raw_hash_setINS1_17FlatHashMapPolicyIiP18grpc_binder_streamEENS0_13hash_internal4HashIiEENSt3__18equal_toIiEENSA_9allocatorINSA_4pairIKiS5_EEEEE10emplace_atIJRKNSA_21piecewise_construct_tENSA_5tupleIJOiEEENSN_IJEEEEEEvmDpOT_, symObjAddr: 0x14E0, symBinAddr: 0x9488, symSize: 0xC0 }
  - { offsetInCU: 0x4B238, offset: 0xEEF31, size: 0x8, addend: 0x0, symName: __ZN4absl12lts_2022062318container_internal12raw_hash_setINS1_17FlatHashMapPolicyIiP18grpc_binder_streamEENS0_13hash_internal4HashIiEENSt3__18equal_toIiEENSA_9allocatorINSA_4pairIKiS5_EEEEE10emplace_atIJRKNSA_21piecewise_construct_tENSA_5tupleIJOiEEENSN_IJEEEEEEvmDpOT_, symObjAddr: 0x14E0, symBinAddr: 0x9488, symSize: 0xC0 }
  - { offsetInCU: 0x4B773, offset: 0xEF46C, size: 0x8, addend: 0x0, symName: __ZN4absl12lts_2022062318container_internal12raw_hash_setINS1_17FlatHashMapPolicyIiP18grpc_binder_streamEENS0_13hash_internal4HashIiEENSt3__18equal_toIiEENSA_9allocatorINSA_4pairIKiS5_EEEEE14prepare_insertEm, symObjAddr: 0x15A0, symBinAddr: 0x9548, symSize: 0x194 }
  - { offsetInCU: 0x4B793, offset: 0xEF48C, size: 0x8, addend: 0x0, symName: __ZN4absl12lts_2022062318container_internal12raw_hash_mapINS1_17FlatHashMapPolicyIiP18grpc_binder_streamEENS0_13hash_internal4HashIiEENSt3__18equal_toIiEENSA_9allocatorINSA_4pairIKiS5_EEEEE16try_emplace_implIiJEEENSE_INS1_12raw_hash_setIS6_S9_SC_SH_E8iteratorEbEEOT_DpOT0_.cold.1, symObjAddr: 0xB1F0, symBinAddr: 0x4C85C, symSize: 0x24 }
  - { offsetInCU: 0x4BB4E, offset: 0xEF847, size: 0x8, addend: 0x0, symName: __ZN4absl12lts_2022062318container_internal12raw_hash_setINS1_17FlatHashMapPolicyIiP18grpc_binder_streamEENS0_13hash_internal4HashIiEENSt3__18equal_toIiEENSA_9allocatorINSA_4pairIKiS5_EEEEE22find_or_prepare_insertIiEENSE_ImbEERKT_.cold.1, symObjAddr: 0xB214, symBinAddr: 0x4C880, symSize: 0x28 }
  - { offsetInCU: 0x4BB66, offset: 0xEF85F, size: 0x8, addend: 0x0, symName: __ZN4absl12lts_2022062318container_internal12raw_hash_setINS1_17FlatHashMapPolicyIiP18grpc_binder_streamEENS0_13hash_internal4HashIiEENSt3__18equal_toIiEENSA_9allocatorINSA_4pairIKiS5_EEEEE14prepare_insertEm, symObjAddr: 0x15A0, symBinAddr: 0x9548, symSize: 0x194 }
  - { offsetInCU: 0x4BEBC, offset: 0xEFBB5, size: 0x8, addend: 0x0, symName: __ZN4absl12lts_2022062318container_internal12raw_hash_setINS1_17FlatHashMapPolicyIiP18grpc_binder_streamEENS0_13hash_internal4HashIiEENSt3__18equal_toIiEENSA_9allocatorINSA_4pairIKiS5_EEEEE22find_or_prepare_insertIiEENSE_ImbEERKT_.cold.2, symObjAddr: 0xB23C, symBinAddr: 0x4C8A8, symSize: 0x24 }
  - { offsetInCU: 0x4C520, offset: 0xF0219, size: 0x8, addend: 0x0, symName: __ZN4absl12lts_2022062318container_internal12raw_hash_setINS1_17FlatHashMapPolicyIiP18grpc_binder_streamEENS0_13hash_internal4HashIiEENSt3__18equal_toIiEENSA_9allocatorINSA_4pairIKiS5_EEEEE4findIiEENSI_8iteratorERSF_m, symObjAddr: 0x1E3C, symBinAddr: 0x9DE4, symSize: 0xC4 }
  - { offsetInCU: 0x4C8A9, offset: 0xF05A2, size: 0x8, addend: 0x0, symName: __ZN4absl12lts_2022062318container_internal12raw_hash_setINS1_17FlatHashMapPolicyIiP18grpc_binder_streamEENS0_13hash_internal4HashIiEENSt3__18equal_toIiEENSA_9allocatorINSA_4pairIKiS5_EEEEE10emplace_atIJRKNSA_21piecewise_construct_tENSA_5tupleIJOiEEENSN_IJEEEEEEvmDpOT_.cold.1, symObjAddr: 0xB260, symBinAddr: 0x4C8CC, symSize: 0x24 }
  - { offsetInCU: 0x4C906, offset: 0xF05FF, size: 0x8, addend: 0x0, symName: __ZN4absl12lts_2022062318container_internal12raw_hash_setINS1_17FlatHashMapPolicyIiP18grpc_binder_streamEENS0_13hash_internal4HashIiEENSt3__18equal_toIiEENSA_9allocatorINSA_4pairIKiS5_EEEEE10emplace_atIJRKNSA_21piecewise_construct_tENSA_5tupleIJOiEEENSN_IJEEEEEEvmDpOT_.cold.4, symObjAddr: 0xB2D0, symBinAddr: 0x4C93C, symSize: 0x24 }
  - { offsetInCU: 0x4C94C, offset: 0xF0645, size: 0x8, addend: 0x0, symName: __ZN4absl12lts_2022062318container_internal12raw_hash_setINS1_17FlatHashMapPolicyIiP18grpc_binder_streamEENS0_13hash_internal4HashIiEENSt3__18equal_toIiEENSA_9allocatorINSA_4pairIKiS5_EEEEE10emplace_atIJRKNSA_21piecewise_construct_tENSA_5tupleIJOiEEENSN_IJEEEEEEvmDpOT_.cold.2, symObjAddr: 0xB284, symBinAddr: 0x4C8F0, symSize: 0x24 }
  - { offsetInCU: 0x4C9A9, offset: 0xF06A2, size: 0x8, addend: 0x0, symName: __ZN4absl12lts_2022062318container_internal12raw_hash_setINS1_17FlatHashMapPolicyIiP18grpc_binder_streamEENS0_13hash_internal4HashIiEENSt3__18equal_toIiEENSA_9allocatorINSA_4pairIKiS5_EEEEE10emplace_atIJRKNSA_21piecewise_construct_tENSA_5tupleIJOiEEENSN_IJEEEEEEvmDpOT_.cold.3, symObjAddr: 0xB2A8, symBinAddr: 0x4C914, symSize: 0x28 }
  - { offsetInCU: 0x4CA17, offset: 0xF0710, size: 0x8, addend: 0x0, symName: __ZN4absl12lts_2022062318container_internal12raw_hash_setINS1_17FlatHashMapPolicyIiP18grpc_binder_streamEENS0_13hash_internal4HashIiEENSt3__18equal_toIiEENSA_9allocatorINSA_4pairIKiS5_EEEEE28rehash_and_grow_if_necessaryEv, symObjAddr: 0x1734, symBinAddr: 0x96DC, symSize: 0x3C }
  - { offsetInCU: 0x4CAA1, offset: 0xF079A, size: 0x8, addend: 0x0, symName: __ZN4absl12lts_2022062318container_internal12raw_hash_setINS1_17FlatHashMapPolicyIiP18grpc_binder_streamEENS0_13hash_internal4HashIiEENSt3__18equal_toIiEENSA_9allocatorINSA_4pairIKiS5_EEEEE6resizeEm, symObjAddr: 0x1770, symBinAddr: 0x9718, symSize: 0x1DC }
  - { offsetInCU: 0x4D06C, offset: 0xF0D65, size: 0x8, addend: 0x0, symName: __ZN4absl12lts_2022062318container_internal12raw_hash_setINS1_17FlatHashMapPolicyIiP18grpc_binder_streamEENS0_13hash_internal4HashIiEENSt3__18equal_toIiEENSA_9allocatorINSA_4pairIKiS5_EEEEE27drop_deletes_without_resizeEv, symObjAddr: 0x194C, symBinAddr: 0x98F4, symSize: 0x35C }
  - { offsetInCU: 0x4D077, offset: 0xF0D70, size: 0x8, addend: 0x0, symName: __ZN4absl12lts_2022062318container_internal12raw_hash_setINS1_17FlatHashMapPolicyIiP18grpc_binder_streamEENS0_13hash_internal4HashIiEENSt3__18equal_toIiEENSA_9allocatorINSA_4pairIKiS5_EEEEE27drop_deletes_without_resizeEv, symObjAddr: 0x194C, symBinAddr: 0x98F4, symSize: 0x35C }
  - { offsetInCU: 0x4DBF4, offset: 0xF18ED, size: 0x8, addend: 0x0, symName: __ZN4absl12lts_2022062318container_internal12raw_hash_setINS1_17FlatHashMapPolicyIiP18grpc_binder_streamEENS0_13hash_internal4HashIiEENSt3__18equal_toIiEENSA_9allocatorINSA_4pairIKiS5_EEEEE16initialize_slotsEv, symObjAddr: 0x1CA8, symBinAddr: 0x9C50, symSize: 0x9C }
  - { offsetInCU: 0x4DD5D, offset: 0xF1A56, size: 0x8, addend: 0x0, symName: __ZN4absl12lts_2022062318container_internal10DeallocateILm8ENSt3__19allocatorINS3_4pairIKiP18grpc_binder_streamEEEEEEvPT0_Pvm, symObjAddr: 0x1D44, symBinAddr: 0x9CEC, symSize: 0x18 }
  - { offsetInCU: 0x4DD68, offset: 0xF1A61, size: 0x8, addend: 0x0, symName: __ZN4absl12lts_2022062318container_internal12raw_hash_setINS1_17FlatHashMapPolicyIiP18grpc_binder_streamEENS0_13hash_internal4HashIiEENSt3__18equal_toIiEENSA_9allocatorINSA_4pairIKiS5_EEEEE6resizeEm.cold.1, symObjAddr: 0xB2F4, symBinAddr: 0x4C960, symSize: 0x28 }
  - { offsetInCU: 0x4DD97, offset: 0xF1A90, size: 0x8, addend: 0x0, symName: __ZN4absl12lts_2022062318container_internal12raw_hash_setINS1_17FlatHashMapPolicyIiP18grpc_binder_streamEENS0_13hash_internal4HashIiEENSt3__18equal_toIiEENSA_9allocatorINSA_4pairIKiS5_EEEEE6resizeEm.cold.4, symObjAddr: 0xB368, symBinAddr: 0x4C9D4, symSize: 0x24 }
  - { offsetInCU: 0x4DE0B, offset: 0xF1B04, size: 0x8, addend: 0x0, symName: __ZN4absl12lts_2022062318container_internal12raw_hash_setINS1_17FlatHashMapPolicyIiP18grpc_binder_streamEENS0_13hash_internal4HashIiEENSt3__18equal_toIiEENSA_9allocatorINSA_4pairIKiS5_EEEEE6resizeEm.cold.3, symObjAddr: 0xB340, symBinAddr: 0x4C9AC, symSize: 0x28 }
  - { offsetInCU: 0x4DE51, offset: 0xF1B4A, size: 0x8, addend: 0x0, symName: __ZN4absl12lts_2022062318container_internal12raw_hash_setINS1_17FlatHashMapPolicyIiP18grpc_binder_streamEENS0_13hash_internal4HashIiEENSt3__18equal_toIiEENSA_9allocatorINSA_4pairIKiS5_EEEEE6resizeEm.cold.5, symObjAddr: 0xB38C, symBinAddr: 0x4C9F8, symSize: 0x28 }
  - { offsetInCU: 0x4DE69, offset: 0xF1B62, size: 0x8, addend: 0x0, symName: __ZN4absl12lts_2022062318container_internal12raw_hash_setINS1_17FlatHashMapPolicyIiP18grpc_binder_streamEENS0_13hash_internal4HashIiEENSt3__18equal_toIiEENSA_9allocatorINSA_4pairIKiS5_EEEEE6resizeEm.cold.2, symObjAddr: 0xB31C, symBinAddr: 0x4C988, symSize: 0x24 }
  - { offsetInCU: 0x4DEE5, offset: 0xF1BDE, size: 0x8, addend: 0x0, symName: __ZN4absl12lts_2022062318container_internal12raw_hash_setINS1_17FlatHashMapPolicyIiP18grpc_binder_streamEENS0_13hash_internal4HashIiEENSt3__18equal_toIiEENSA_9allocatorINSA_4pairIKiS5_EEEEE17reset_growth_leftEv, symObjAddr: 0x1D8C, symBinAddr: 0x9D34, symSize: 0x48 }
  - { offsetInCU: 0x4DF63, offset: 0xF1C5C, size: 0x8, addend: 0x0, symName: __ZSt28__throw_bad_array_new_lengthB7v160006v, symObjAddr: 0x1DD4, symBinAddr: 0x9D7C, symSize: 0x28 }
  - { offsetInCU: 0x4DF6E, offset: 0xF1C67, size: 0x8, addend: 0x0, symName: __ZN4absl12lts_2022062318container_internal12raw_hash_setINS1_17FlatHashMapPolicyIiP18grpc_binder_streamEENS0_13hash_internal4HashIiEENSt3__18equal_toIiEENSA_9allocatorINSA_4pairIKiS5_EEEEE16initialize_slotsEv.cold.1, symObjAddr: 0xB3B4, symBinAddr: 0x4CA20, symSize: 0x28 }
  - { offsetInCU: 0x4DF86, offset: 0xF1C7F, size: 0x8, addend: 0x0, symName: __ZN4absl12lts_2022062318container_internal12raw_hash_setINS1_17FlatHashMapPolicyIiP18grpc_binder_streamEENS0_13hash_internal4HashIiEENSt3__18equal_toIiEENSA_9allocatorINSA_4pairIKiS5_EEEEE16initialize_slotsEv.cold.3, symObjAddr: 0xB400, symBinAddr: 0x4CA6C, symSize: 0x24 }
  - { offsetInCU: 0x4DFCC, offset: 0xF1CC5, size: 0x8, addend: 0x0, symName: __ZN4absl12lts_2022062318container_internal12raw_hash_setINS1_17FlatHashMapPolicyIiP18grpc_binder_streamEENS0_13hash_internal4HashIiEENSt3__18equal_toIiEENSA_9allocatorINSA_4pairIKiS5_EEEEE16initialize_slotsEv.cold.2, symObjAddr: 0xB3DC, symBinAddr: 0x4CA48, symSize: 0x24 }
  - { offsetInCU: 0x4E063, offset: 0xF1D5C, size: 0x8, addend: 0x0, symName: __ZN4absl12lts_2022062318container_internal10DeallocateILm8ENSt3__19allocatorINS3_4pairIKiP18grpc_binder_streamEEEEEEvPT0_Pvm.cold.1, symObjAddr: 0xB424, symBinAddr: 0x4CA90, symSize: 0x28 }
  - { offsetInCU: 0x4E0BF, offset: 0xF1DB8, size: 0x8, addend: 0x0, symName: __ZN4absl12lts_2022062318container_internal8AllocateILm8ENSt3__19allocatorINS3_4pairIKiP18grpc_binder_streamEEEEEEPvPT0_m.cold.1, symObjAddr: 0xB44C, symBinAddr: 0x4CAB8, symSize: 0x28 }
  - { offsetInCU: 0x4E0D7, offset: 0xF1DD0, size: 0x8, addend: 0x0, symName: __ZN4absl12lts_2022062318container_internal8AllocateILm8ENSt3__19allocatorINS3_4pairIKiP18grpc_binder_streamEEEEEEPvPT0_m.cold.2, symObjAddr: 0xB474, symBinAddr: 0x4CAE0, symSize: 0x28 }
  - { offsetInCU: 0x4E105, offset: 0xF1DFE, size: 0x8, addend: 0x0, symName: __ZN4absl12lts_2022062318container_internal12raw_hash_setINS1_17FlatHashMapPolicyIiP18grpc_binder_streamEENS0_13hash_internal4HashIiEENSt3__18equal_toIiEENSA_9allocatorINSA_4pairIKiS5_EEEEE17reset_growth_leftEv.cold.1, symObjAddr: 0xB49C, symBinAddr: 0x4CB08, symSize: 0x28 }
  - { offsetInCU: 0x4E15D, offset: 0xF1E56, size: 0x8, addend: 0x0, symName: __ZN4absl12lts_2022062318container_internaleqERKNS1_12raw_hash_setINS1_17FlatHashMapPolicyIiP18grpc_binder_streamEENS0_13hash_internal4HashIiEENSt3__18equal_toIiEENSA_9allocatorINSA_4pairIKiS5_EEEEE8iteratorESL_.cold.2, symObjAddr: 0xB4EC, symBinAddr: 0x4CB58, symSize: 0x28 }
  - { offsetInCU: 0x4E1A3, offset: 0xF1E9C, size: 0x8, addend: 0x0, symName: __ZN4absl12lts_2022062318container_internaleqERKNS1_12raw_hash_setINS1_17FlatHashMapPolicyIiP18grpc_binder_streamEENS0_13hash_internal4HashIiEENSt3__18equal_toIiEENSA_9allocatorINSA_4pairIKiS5_EEEEE8iteratorESL_.cold.1, symObjAddr: 0xB4C4, symBinAddr: 0x4CB30, symSize: 0x28 }
  - { offsetInCU: 0x4E1E9, offset: 0xF1EE2, size: 0x8, addend: 0x0, symName: __ZN4absl12lts_2022062318container_internal12raw_hash_setINS1_17FlatHashMapPolicyIiP18grpc_binder_streamEENS0_13hash_internal4HashIiEENSt3__18equal_toIiEENSA_9allocatorINSA_4pairIKiS5_EEEEE4findIiEENSI_8iteratorERSF_m.cold.1, symObjAddr: 0xB514, symBinAddr: 0x4CB80, symSize: 0x28 }
  - { offsetInCU: 0x4E201, offset: 0xF1EFA, size: 0x8, addend: 0x0, symName: __ZN4absl12lts_2022062318container_internal12raw_hash_setINS1_17FlatHashMapPolicyIiP18grpc_binder_streamEENS0_13hash_internal4HashIiEENSt3__18equal_toIiEENSA_9allocatorINSA_4pairIKiS5_EEEEE4findIiEENSI_8iteratorERSF_m.cold.3, symObjAddr: 0xB560, symBinAddr: 0x4CBCC, symSize: 0x24 }
  - { offsetInCU: 0x4E25E, offset: 0xF1F57, size: 0x8, addend: 0x0, symName: __ZN4absl12lts_2022062318container_internal12raw_hash_setINS1_17FlatHashMapPolicyIiP18grpc_binder_streamEENS0_13hash_internal4HashIiEENSt3__18equal_toIiEENSA_9allocatorINSA_4pairIKiS5_EEEEE4findIiEENSI_8iteratorERSF_m.cold.2, symObjAddr: 0xB53C, symBinAddr: 0x4CBA8, symSize: 0x24 }
  - { offsetInCU: 0x4E317, offset: 0xF2010, size: 0x8, addend: 0x0, symName: __ZN9grpc_core8RefCount10RefNonZeroERKNS_13DebugLocationEPKc, symObjAddr: 0x2A5C, symBinAddr: 0xA994, symSize: 0x84 }
  - { offsetInCU: 0x4E41A, offset: 0xF2113, size: 0x8, addend: 0x0, symName: __ZN11grpc_binder11Transaction9SetSuffixENSt3__16vectorINS1_4pairINS1_12basic_stringIcNS1_11char_traitsIcEENS1_9allocatorIcEEEES9_EENS7_ISA_EEEE, symObjAddr: 0x2AE0, symBinAddr: 0xAA18, symSize: 0x70 }
  - { offsetInCU: 0x4F658, offset: 0xF3351, size: 0x8, addend: 0x0, symName: __ZN11grpc_binder11Transaction9SetSuffixENSt3__16vectorINS1_4pairINS1_12basic_stringIcNS1_11char_traitsIcEENS1_9allocatorIcEEEES9_EENS7_ISA_EEEE, symObjAddr: 0x2AE0, symBinAddr: 0xAA18, symSize: 0x70 }
  - { offsetInCU: 0x4F6EF, offset: 0xF33E8, size: 0x8, addend: 0x0, symName: __ZN11grpc_binder11Transaction9SetStatusEi, symObjAddr: 0x2B50, symBinAddr: 0xAA88, symSize: 0x40 }
  - { offsetInCU: 0x4F6FA, offset: 0xF33F3, size: 0x8, addend: 0x0, symName: __ZN11grpc_binder11Transaction9SetStatusEi, symObjAddr: 0x2B50, symBinAddr: 0xAA88, symSize: 0x40 }
  - { offsetInCU: 0x4F74F, offset: 0xF3448, size: 0x8, addend: 0x0, symName: __ZL20cancel_stream_lockedP21grpc_binder_transportP18grpc_binder_streamN4absl12lts_202206236StatusE, symObjAddr: 0x2B90, symBinAddr: 0xAAC8, symSize: 0x20C }
  - { offsetInCU: 0x4F75A, offset: 0xF3453, size: 0x8, addend: 0x0, symName: __ZNKSt3__114default_deleteIN11grpc_binder11TransactionEEclB7v160006EPS2_, symObjAddr: 0x5148, symBinAddr: 0xD00C, symSize: 0x68 }
  - { offsetInCU: 0x4FBB9, offset: 0xF38B2, size: 0x8, addend: 0x0, symName: __ZL20cancel_stream_lockedP21grpc_binder_transportP18grpc_binder_streamN4absl12lts_202206236StatusE, symObjAddr: 0x2B90, symBinAddr: 0xAAC8, symSize: 0x20C }
  - { offsetInCU: 0x50310, offset: 0xF4009, size: 0x8, addend: 0x0, symName: __ZL24grpc_binder_stream_unrefP18grpc_binder_streamPKc, symObjAddr: 0x2D9C, symBinAddr: 0xACD4, symSize: 0xA0 }
  - { offsetInCU: 0x5048D, offset: 0xF4186, size: 0x8, addend: 0x0, symName: __ZNK9grpc_core11MetadataMapI19grpc_metadata_batchJNS_16HttpPathMetadataENS_21HttpAuthorityMetadataENS_18HttpMethodMetadataENS_18HttpStatusMetadataENS_18HttpSchemeMetadataENS_19ContentTypeMetadataENS_10TeMetadataENS_20GrpcEncodingMetadataENS_27GrpcInternalEncodingRequestENS_26GrpcAcceptEncodingMetadataENS_18GrpcStatusMetadataENS_19GrpcTimeoutMetadataENS_31GrpcPreviousRpcAttemptsMetadataENS_27GrpcRetryPushbackMsMetadataENS_17UserAgentMetadataENS_19GrpcMessageMetadataENS_12HostMetadataENS_30EndpointLoadMetricsBinMetadataENS_26GrpcServerStatsBinMetadataENS_20GrpcTraceBinMetadataENS_19GrpcTagsBinMetadataENS_25GrpcLbClientStatsMetadataENS_17LbCostBinMetadataENS_15LbTokenMetadataENS_22GrpcStreamNetworkStateENS_10PeerStringENS_17GrpcStatusContextENS_12WaitForReadyEEE6EncodeIN11grpc_binder12_GLOBAL__N_115MetadataEncoderEEEvPT_, symObjAddr: 0x2E3C, symBinAddr: 0xAD74, symSize: 0x1D88 }
  - { offsetInCU: 0x5D9CE, offset: 0x1016C7, size: 0x8, addend: 0x0, symName: __ZNSt3__16vectorINS_4pairINS_12basic_stringIcNS_11char_traitsIcEENS_9allocatorIcEEEES7_EENS5_IS8_EEEC2ERKSA_, symObjAddr: 0x5A48, symBinAddr: 0xD8F8, symSize: 0xB4 }
  - { offsetInCU: 0x5DC48, offset: 0x101941, size: 0x8, addend: 0x0, symName: __ZN11grpc_binder11Transaction9SetPrefixENSt3__16vectorINS1_4pairINS1_12basic_stringIcNS1_11char_traitsIcEENS1_9allocatorIcEEEES9_EENS7_ISA_EEEE, symObjAddr: 0x4BC4, symBinAddr: 0xCAFC, symSize: 0x58 }
  - { offsetInCU: 0x5DCB5, offset: 0x1019AE, size: 0x8, addend: 0x0, symName: __ZN11grpc_binder11Transaction7SetDataENSt3__112basic_stringIcNS1_11char_traitsIcEENS1_9allocatorIcEEEE, symObjAddr: 0x4C1C, symBinAddr: 0xCB54, symSize: 0x48 }
  - { offsetInCU: 0x5DCC0, offset: 0x1019B9, size: 0x8, addend: 0x0, symName: __ZN11grpc_binder11Transaction7SetDataENSt3__112basic_stringIcNS1_11char_traitsIcEENS1_9allocatorIcEEEE, symObjAddr: 0x4C1C, symBinAddr: 0xCB54, symSize: 0x48 }
  - { offsetInCU: 0x5DCF9, offset: 0x1019F2, size: 0x8, addend: 0x0, symName: __ZNSt3__16vectorINS_4pairINS_12basic_stringIcNS_11char_traitsIcEENS_9allocatorIcEEEES7_EENS5_IS8_EEE6assignIPS8_Li0EEEvT_SD_, symObjAddr: 0x4C64, symBinAddr: 0xCB9C, symSize: 0x17C }
  - { offsetInCU: 0x5DD19, offset: 0x101A12, size: 0x8, addend: 0x0, symName: __ZL24perform_stream_op_lockedPvN4absl12lts_202206236StatusE.cold.1, symObjAddr: 0xB584, symBinAddr: 0x4CBF0, symSize: 0x34 }
  - { offsetInCU: 0x5DD97, offset: 0x101A90, size: 0x8, addend: 0x0, symName: __ZN9grpc_core8RefCount10RefNonZeroERKNS_13DebugLocationEPKc.cold.1, symObjAddr: 0xB5B8, symBinAddr: 0x4CC24, symSize: 0x28 }
  - { offsetInCU: 0x5DDEA, offset: 0x101AE3, size: 0x8, addend: 0x0, symName: __ZNSt3__16vectorINS_4pairINS_12basic_stringIcNS_11char_traitsIcEENS_9allocatorIcEEEES7_EENS5_IS8_EEE6assignIPS8_Li0EEEvT_SD_, symObjAddr: 0x4C64, symBinAddr: 0xCB9C, symSize: 0x17C }
  - { offsetInCU: 0x5E263, offset: 0x101F5C, size: 0x8, addend: 0x0, symName: __ZN11grpc_binder11Transaction9SetSuffixENSt3__16vectorINS1_4pairINS1_12basic_stringIcNS1_11char_traitsIcEENS1_9allocatorIcEEEES9_EENS7_ISA_EEEE.cold.1, symObjAddr: 0xB5E0, symBinAddr: 0x4CC4C, symSize: 0x34 }
  - { offsetInCU: 0x5E27B, offset: 0x101F74, size: 0x8, addend: 0x0, symName: __ZN11grpc_binder11Transaction9SetSuffixENSt3__16vectorINS1_4pairINS1_12basic_stringIcNS1_11char_traitsIcEENS1_9allocatorIcEEEES9_EENS7_ISA_EEEE.cold.2, symObjAddr: 0xB614, symBinAddr: 0x4CC80, symSize: 0x34 }
  - { offsetInCU: 0x5E293, offset: 0x101F8C, size: 0x8, addend: 0x0, symName: __ZN11grpc_binder11Transaction9SetStatusEi.cold.3, symObjAddr: 0xB6B0, symBinAddr: 0x4CD1C, symSize: 0x34 }
  - { offsetInCU: 0x5E2AB, offset: 0x101FA4, size: 0x8, addend: 0x0, symName: __ZN11grpc_binder11Transaction9SetStatusEi.cold.1, symObjAddr: 0xB648, symBinAddr: 0x4CCB4, symSize: 0x34 }
  - { offsetInCU: 0x5E2C3, offset: 0x101FBC, size: 0x8, addend: 0x0, symName: __ZN11grpc_binder11Transaction9SetStatusEi.cold.2, symObjAddr: 0xB67C, symBinAddr: 0x4CCE8, symSize: 0x34 }
  - { offsetInCU: 0x5E323, offset: 0x10201C, size: 0x8, addend: 0x0, symName: __ZN4absl12lts_2022062318container_internal12raw_hash_setINS1_17FlatHashMapPolicyIiP18grpc_binder_streamEENS0_13hash_internal4HashIiEENSt3__18equal_toIiEENSA_9allocatorINSA_4pairIKiS5_EEEEE5eraseIiEEmRSF_, symObjAddr: 0x51B0, symBinAddr: 0xD074, symSize: 0x90 }
  - { offsetInCU: 0x5E4AF, offset: 0x1021A8, size: 0x8, addend: 0x0, symName: __ZN4absl12lts_2022062317optional_internal23optional_data_dtor_baseIN9grpc_core11SliceBufferELb0EE8destructEv, symObjAddr: 0x5324, symBinAddr: 0xD1E8, symSize: 0x34 }
  - { offsetInCU: 0x5E513, offset: 0x10220C, size: 0x8, addend: 0x0, symName: __ZL20cancel_stream_lockedP21grpc_binder_transportP18grpc_binder_streamN4absl12lts_202206236StatusE.cold.1, symObjAddr: 0xB6E4, symBinAddr: 0x4CD50, symSize: 0x34 }
  - { offsetInCU: 0x5E551, offset: 0x10224A, size: 0x8, addend: 0x0, symName: __ZN9grpc_core8RefCount5UnrefERKNS_13DebugLocationEPKc, symObjAddr: 0x5358, symBinAddr: 0xD21C, symSize: 0x88 }
  - { offsetInCU: 0x5E657, offset: 0x102350, size: 0x8, addend: 0x0, symName: __ZNK9grpc_core12slice_detail9BaseSlice14as_string_viewEv, symObjAddr: 0x53E0, symBinAddr: 0xD2A4, symSize: 0x38 }
  - { offsetInCU: 0x609AD, offset: 0x1046A6, size: 0x8, addend: 0x0, symName: __ZNK9grpc_core12slice_detail9BaseSlice14as_string_viewEv, symObjAddr: 0x53E0, symBinAddr: 0xD2A4, symSize: 0x38 }
  - { offsetInCU: 0x60A61, offset: 0x10475A, size: 0x8, addend: 0x0, symName: __ZNK4absl12lts_2022062311string_view6substrEmm, symObjAddr: 0x5418, symBinAddr: 0xD2DC, symSize: 0x44 }
  - { offsetInCU: 0x60A6C, offset: 0x104765, size: 0x8, addend: 0x0, symName: __ZNK4absl12lts_2022062311string_view6substrEmm, symObjAddr: 0x5418, symBinAddr: 0xD2DC, symSize: 0x44 }
  - { offsetInCU: 0x60B55, offset: 0x10484E, size: 0x8, addend: 0x0, symName: __ZN11grpc_binder11Transaction12SetMethodRefENSt3__112basic_stringIcNS1_11char_traitsIcEENS1_9allocatorIcEEEE, symObjAddr: 0x545C, symBinAddr: 0xD320, symSize: 0x20 }
  - { offsetInCU: 0x60B60, offset: 0x104859, size: 0x8, addend: 0x0, symName: __ZNSt3__112basic_stringIcNS_11char_traitsIcEENS_9allocatorIcEEEC2B7v160006EPKcm, symObjAddr: 0x547C, symBinAddr: 0xD340, symSize: 0x94 }
  - { offsetInCU: 0x60EB0, offset: 0x104BA9, size: 0x8, addend: 0x0, symName: __ZN11grpc_binder11Transaction12SetMethodRefENSt3__112basic_stringIcNS1_11char_traitsIcEENS1_9allocatorIcEEEE, symObjAddr: 0x545C, symBinAddr: 0xD320, symSize: 0x20 }
  - { offsetInCU: 0x60EE9, offset: 0x104BE2, size: 0x8, addend: 0x0, symName: __ZNSt3__112basic_stringIcNS_11char_traitsIcEENS_9allocatorIcEEEC2B7v160006EPKcm, symObjAddr: 0x547C, symBinAddr: 0xD340, symSize: 0x94 }
  - { offsetInCU: 0x60EF4, offset: 0x104BED, size: 0x8, addend: 0x0, symName: __ZNSt3__16vectorINS_4pairINS_12basic_stringIcNS_11char_traitsIcEENS_9allocatorIcEEEES7_EENS5_IS8_EEE12emplace_backIJS7_S7_EEEvDpOT_, symObjAddr: 0x5524, symBinAddr: 0xD3D4, symSize: 0x164 }
  - { offsetInCU: 0x61513, offset: 0x10520C, size: 0x8, addend: 0x0, symName: __ZN9grpc_core12slice_detail16CopyConstructorsINS_5SliceEE9FromInt64Ex, symObjAddr: 0x58F4, symBinAddr: 0xD7A4, symSize: 0x7C }
  - { offsetInCU: 0x61637, offset: 0x105330, size: 0x8, addend: 0x0, symName: __ZN9grpc_core10TeMetadata6EncodeENS0_9ValueTypeE, symObjAddr: 0x5970, symBinAddr: 0xD820, symSize: 0x70 }
  - { offsetInCU: 0x616F6, offset: 0x1053EF, size: 0x8, addend: 0x0, symName: __ZN9grpc_core33CompressionAlgorithmBasedMetadata6EncodeE26grpc_compression_algorithm, symObjAddr: 0x5A08, symBinAddr: 0xD8B8, symSize: 0x40 }
  - { offsetInCU: 0x617CD, offset: 0x1054C6, size: 0x8, addend: 0x0, symName: __ZNSt3__16vectorINS_4pairINS_12basic_stringIcNS_11char_traitsIcEENS_9allocatorIcEEEES7_EENS5_IS8_EEEC2ERKSA_, symObjAddr: 0x5A48, symBinAddr: 0xD8F8, symSize: 0xB4 }
  - { offsetInCU: 0x617D8, offset: 0x1054D1, size: 0x8, addend: 0x0, symName: __ZNK9grpc_core11MetadataMapI19grpc_metadata_batchJNS_16HttpPathMetadataENS_21HttpAuthorityMetadataENS_18HttpMethodMetadataENS_18HttpStatusMetadataENS_18HttpSchemeMetadataENS_19ContentTypeMetadataENS_10TeMetadataENS_20GrpcEncodingMetadataENS_27GrpcInternalEncodingRequestENS_26GrpcAcceptEncodingMetadataENS_18GrpcStatusMetadataENS_19GrpcTimeoutMetadataENS_31GrpcPreviousRpcAttemptsMetadataENS_27GrpcRetryPushbackMsMetadataENS_17UserAgentMetadataENS_19GrpcMessageMetadataENS_12HostMetadataENS_30EndpointLoadMetricsBinMetadataENS_26GrpcServerStatsBinMetadataENS_20GrpcTraceBinMetadataENS_19GrpcTagsBinMetadataENS_25GrpcLbClientStatsMetadataENS_17LbCostBinMetadataENS_15LbTokenMetadataENS_22GrpcStreamNetworkStateENS_10PeerStringENS_17GrpcStatusContextENS_12WaitForReadyEEE6EncodeIN11grpc_binder12_GLOBAL__N_115MetadataEncoderEEEvPT_.cold.1, symObjAddr: 0xB718, symBinAddr: 0x4CD84, symSize: 0x34 }
  - { offsetInCU: 0x6187A, offset: 0x105573, size: 0x8, addend: 0x0, symName: __ZN11grpc_binder11Transaction9SetPrefixENSt3__16vectorINS1_4pairINS1_12basic_stringIcNS1_11char_traitsIcEENS1_9allocatorIcEEEES9_EENS7_ISA_EEEE.cold.1, symObjAddr: 0xB74C, symBinAddr: 0x4CDB8, symSize: 0x34 }
  - { offsetInCU: 0x61892, offset: 0x10558B, size: 0x8, addend: 0x0, symName: __ZN11grpc_binder11Transaction7SetDataENSt3__112basic_stringIcNS1_11char_traitsIcEENS1_9allocatorIcEEEE.cold.1, symObjAddr: 0xB780, symBinAddr: 0x4CDEC, symSize: 0x34 }
  - { offsetInCU: 0x61A7E, offset: 0x105777, size: 0x8, addend: 0x0, symName: __ZNSt3__16vectorINS_4pairINS_12basic_stringIcNS_11char_traitsIcEENS_9allocatorIcEEEES7_EENS5_IS8_EEE13__vdeallocateEv, symObjAddr: 0x4DE0, symBinAddr: 0xCD18, symSize: 0x6C }
  - { offsetInCU: 0x61C34, offset: 0x10592D, size: 0x8, addend: 0x0, symName: __ZNSt3__16vectorINS_4pairINS_12basic_stringIcNS_11char_traitsIcEENS_9allocatorIcEEEES7_EENS5_IS8_EEE11__vallocateB7v160006Em, symObjAddr: 0x4E4C, symBinAddr: 0xCD84, symSize: 0x50 }
  - { offsetInCU: 0x61CB3, offset: 0x1059AC, size: 0x8, addend: 0x0, symName: __ZNKSt3__111__copy_loopINS_17_ClassicAlgPolicyEEclB7v160006IPNS_4pairINS_12basic_stringIcNS_11char_traitsIcEENS_9allocatorIcEEEESA_EESC_SC_EENS4_IT_T1_EESD_T0_SE_, symObjAddr: 0x4E9C, symBinAddr: 0xCDD4, symSize: 0x6C }
  - { offsetInCU: 0x61CD0, offset: 0x1059C9, size: 0x8, addend: 0x0, symName: __ZNKSt3__111__copy_loopINS_17_ClassicAlgPolicyEEclB7v160006IPNS_4pairINS_12basic_stringIcNS_11char_traitsIcEENS_9allocatorIcEEEESA_EESC_SC_EENS4_IT_T1_EESD_T0_SE_, symObjAddr: 0x4E9C, symBinAddr: 0xCDD4, symSize: 0x6C }
  - { offsetInCU: 0x61D64, offset: 0x105A5D, size: 0x8, addend: 0x0, symName: __ZNKSt3__16vectorINS_4pairINS_12basic_stringIcNS_11char_traitsIcEENS_9allocatorIcEEEES7_EENS5_IS8_EEE20__throw_length_errorB7v160006Ev, symObjAddr: 0x507C, symBinAddr: 0xCFB4, symSize: 0x14 }
  - { offsetInCU: 0x61D8D, offset: 0x105A86, size: 0x8, addend: 0x0, symName: __ZNSt3__119__allocate_at_leastB7v160006INS_9allocatorINS_4pairINS_12basic_stringIcNS_11char_traitsIcEENS1_IcEEEES7_EEEEEENS_19__allocation_resultINS_16allocator_traitsIT_E7pointerEEERSC_m, symObjAddr: 0x5090, symBinAddr: 0xCFC8, symSize: 0x44 }
  - { offsetInCU: 0x61F1E, offset: 0x105C17, size: 0x8, addend: 0x0, symName: __ZNSt3__14pairINS_12basic_stringIcNS_11char_traitsIcEENS_9allocatorIcEEEES6_EC2ERKS7_, symObjAddr: 0x4FA8, symBinAddr: 0xCEE0, symSize: 0x50 }
  - { offsetInCU: 0x62064, offset: 0x105D5D, size: 0x8, addend: 0x0, symName: __ZNSt3__128__exception_guard_exceptionsINS_29_AllocatorDestroyRangeReverseINS_9allocatorINS_4pairINS_12basic_stringIcNS_11char_traitsIcEENS2_IcEEEES8_EEEEPS9_EEED2B7v160006Ev, symObjAddr: 0x4FF8, symBinAddr: 0xCF30, symSize: 0x34 }
  - { offsetInCU: 0x620A3, offset: 0x105D9C, size: 0x8, addend: 0x0, symName: __ZNKSt3__129_AllocatorDestroyRangeReverseINS_9allocatorINS_4pairINS_12basic_stringIcNS_11char_traitsIcEENS1_IcEEEES7_EEEEPS8_EclB7v160006Ev, symObjAddr: 0x502C, symBinAddr: 0xCF64, symSize: 0x50 }
  - { offsetInCU: 0x622E1, offset: 0x105FDA, size: 0x8, addend: 0x0, symName: __ZN4absl12lts_2022062318container_internal12raw_hash_setINS1_17FlatHashMapPolicyIiP18grpc_binder_streamEENS0_13hash_internal4HashIiEENSt3__18equal_toIiEENSA_9allocatorINSA_4pairIKiS5_EEEEE5eraseENSI_8iteratorE, symObjAddr: 0x5240, symBinAddr: 0xD104, symSize: 0x20 }
  - { offsetInCU: 0x62356, offset: 0x10604F, size: 0x8, addend: 0x0, symName: __ZN4absl12lts_2022062318container_internal12raw_hash_setINS1_17FlatHashMapPolicyIiP18grpc_binder_streamEENS0_13hash_internal4HashIiEENSt3__18equal_toIiEENSA_9allocatorINSA_4pairIKiS5_EEEEE15erase_meta_onlyENSI_14const_iteratorE, symObjAddr: 0x5260, symBinAddr: 0xD124, symSize: 0xC4 }
  - { offsetInCU: 0x6238A, offset: 0x106083, size: 0x8, addend: 0x0, symName: __ZN4absl12lts_2022062318container_internal12raw_hash_setINS1_17FlatHashMapPolicyIiP18grpc_binder_streamEENS0_13hash_internal4HashIiEENSt3__18equal_toIiEENSA_9allocatorINSA_4pairIKiS5_EEEEE15erase_meta_onlyENSI_14const_iteratorE, symObjAddr: 0x5260, symBinAddr: 0xD124, symSize: 0xC4 }
  - { offsetInCU: 0x625E8, offset: 0x1062E1, size: 0x8, addend: 0x0, symName: __ZN4absl12lts_2022062317optional_internal23optional_data_dtor_baseIN9grpc_core11SliceBufferELb0EE8destructEv, symObjAddr: 0x5324, symBinAddr: 0xD1E8, symSize: 0x34 }
  - { offsetInCU: 0x625F3, offset: 0x1062EC, size: 0x8, addend: 0x0, symName: __ZN4absl12lts_2022062318container_internal12raw_hash_setINS1_17FlatHashMapPolicyIiP18grpc_binder_streamEENS0_13hash_internal4HashIiEENSt3__18equal_toIiEENSA_9allocatorINSA_4pairIKiS5_EEEEE5eraseENSI_8iteratorE.cold.1, symObjAddr: 0xB7B4, symBinAddr: 0x4CE20, symSize: 0x28 }
  - { offsetInCU: 0x62668, offset: 0x106361, size: 0x8, addend: 0x0, symName: __ZN4absl12lts_2022062318container_internal12raw_hash_setINS1_17FlatHashMapPolicyIiP18grpc_binder_streamEENS0_13hash_internal4HashIiEENSt3__18equal_toIiEENSA_9allocatorINSA_4pairIKiS5_EEEEE15erase_meta_onlyENSI_14const_iteratorE.cold.2, symObjAddr: 0xB804, symBinAddr: 0x4CE70, symSize: 0x28 }
  - { offsetInCU: 0x62680, offset: 0x106379, size: 0x8, addend: 0x0, symName: __ZN4absl12lts_2022062318container_internal12raw_hash_setINS1_17FlatHashMapPolicyIiP18grpc_binder_streamEENS0_13hash_internal4HashIiEENSt3__18equal_toIiEENSA_9allocatorINSA_4pairIKiS5_EEEEE15erase_meta_onlyENSI_14const_iteratorE.cold.1, symObjAddr: 0xB7DC, symBinAddr: 0x4CE48, symSize: 0x28 }
  - { offsetInCU: 0x62720, offset: 0x106419, size: 0x8, addend: 0x0, symName: __ZN9grpc_core8RefCount5UnrefERKNS_13DebugLocationEPKc.cold.1, symObjAddr: 0xB82C, symBinAddr: 0x4CE98, symSize: 0x34 }
  - { offsetInCU: 0x62738, offset: 0x106431, size: 0x8, addend: 0x0, symName: __ZNK9grpc_core12slice_detail9BaseSlice14as_string_viewEv.cold.1, symObjAddr: 0xB860, symBinAddr: 0x4CECC, symSize: 0x28 }
  - { offsetInCU: 0x627C8, offset: 0x1064C1, size: 0x8, addend: 0x0, symName: __ZNK4absl12lts_2022062311string_view6substrEmm.cold.1, symObjAddr: 0xB888, symBinAddr: 0x4CEF4, symSize: 0x28 }
  - { offsetInCU: 0x62838, offset: 0x106531, size: 0x8, addend: 0x0, symName: __ZN11grpc_binder11Transaction12SetMethodRefENSt3__112basic_stringIcNS1_11char_traitsIcEENS1_9allocatorIcEEEE.cold.1, symObjAddr: 0xB8B0, symBinAddr: 0x4CF1C, symSize: 0x34 }
  - { offsetInCU: 0x628AD, offset: 0x1065A6, size: 0x8, addend: 0x0, symName: __ZNSt3__16vectorINS_4pairINS_12basic_stringIcNS_11char_traitsIcEENS_9allocatorIcEEEES7_EENS5_IS8_EEE12emplace_backIJS7_S7_EEEvDpOT_, symObjAddr: 0x5524, symBinAddr: 0xD3D4, symSize: 0x164 }
  - { offsetInCU: 0x62C5D, offset: 0x106956, size: 0x8, addend: 0x0, symName: __ZNSt3__114__split_bufferINS_4pairINS_12basic_stringIcNS_11char_traitsIcEENS_9allocatorIcEEEES7_EERNS5_IS8_EEED2Ev, symObjAddr: 0x5834, symBinAddr: 0xD6E4, symSize: 0x30 }
  - { offsetInCU: 0x62E53, offset: 0x106B4C, size: 0x8, addend: 0x0, symName: __ZNSt3__128__exception_guard_exceptionsINS_29_AllocatorDestroyRangeReverseINS_9allocatorINS_4pairINS_12basic_stringIcNS_11char_traitsIcEENS2_IcEEEES8_EEEENS_16reverse_iteratorIPS9_EEEEED2B7v160006Ev, symObjAddr: 0x57B0, symBinAddr: 0xD660, symSize: 0x34 }
  - { offsetInCU: 0x62E92, offset: 0x106B8B, size: 0x8, addend: 0x0, symName: __ZNKSt3__129_AllocatorDestroyRangeReverseINS_9allocatorINS_4pairINS_12basic_stringIcNS_11char_traitsIcEENS1_IcEEEES7_EEEENS_16reverse_iteratorIPS8_EEEclB7v160006Ev, symObjAddr: 0x57E4, symBinAddr: 0xD694, symSize: 0x50 }
  - { offsetInCU: 0x62F75, offset: 0x106C6E, size: 0x8, addend: 0x0, symName: __ZNSt3__114__split_bufferINS_4pairINS_12basic_stringIcNS_11char_traitsIcEENS_9allocatorIcEEEES7_EERNS5_IS8_EEE5clearB7v160006Ev, symObjAddr: 0x5864, symBinAddr: 0xD714, symSize: 0x44 }
  - { offsetInCU: 0x63104, offset: 0x106DFD, size: 0x8, addend: 0x0, symName: __ZN9grpc_core5SliceD2Ev, symObjAddr: 0x58A8, symBinAddr: 0xD758, symSize: 0x4C }
  - { offsetInCU: 0x63264, offset: 0x106F5D, size: 0x8, addend: 0x0, symName: __ZN9grpc_core11StaticSliceC2ERK10grpc_slice, symObjAddr: 0x59E0, symBinAddr: 0xD890, symSize: 0x28 }
  - { offsetInCU: 0x632C3, offset: 0x106FBC, size: 0x8, addend: 0x0, symName: __ZN9grpc_core33CompressionAlgorithmBasedMetadata6EncodeE26grpc_compression_algorithm, symObjAddr: 0x5A08, symBinAddr: 0xD8B8, symSize: 0x40 }
  - { offsetInCU: 0x632CE, offset: 0x106FC7, size: 0x8, addend: 0x0, symName: __ZN9grpc_core10TeMetadata6EncodeENS0_9ValueTypeE.cold.1, symObjAddr: 0xB8E4, symBinAddr: 0x4CF50, symSize: 0x34 }
  - { offsetInCU: 0x632E6, offset: 0x106FDF, size: 0x8, addend: 0x0, symName: __ZN9grpc_core11StaticSliceC2ERK10grpc_slice.cold.1, symObjAddr: 0xB918, symBinAddr: 0x4CF84, symSize: 0x34 }
  - { offsetInCU: 0x6333E, offset: 0x107037, size: 0x8, addend: 0x0, symName: __ZN9grpc_core33CompressionAlgorithmBasedMetadata6EncodeE26grpc_compression_algorithm.cold.1, symObjAddr: 0xB94C, symBinAddr: 0x4CFB8, symSize: 0x34 }
  - { offsetInCU: 0x633D7, offset: 0x1070D0, size: 0x8, addend: 0x0, symName: __ZNSt3__128__exception_guard_exceptionsINS_6vectorINS_4pairINS_12basic_stringIcNS_11char_traitsIcEENS_9allocatorIcEEEES8_EENS6_IS9_EEE16__destroy_vectorEED2B7v160006Ev, symObjAddr: 0x5AFC, symBinAddr: 0xD9AC, symSize: 0x34 }
  - { offsetInCU: 0x63416, offset: 0x10710F, size: 0x8, addend: 0x0, symName: '__ZNSt3__110__function6__funcIZL24perform_stream_op_lockedPvN4absl12lts_202206236StatusEE3$_3NS_9allocatorIS6_EEFvNS4_8StatusOrINS_6vectorINS_4pairINS_12basic_stringIcNS_11char_traitsIcEENS7_IcEEEESG_EENS7_ISH_EEEEEEEED1Ev', symObjAddr: 0x5B30, symBinAddr: 0xD9E0, symSize: 0x4 }
  - { offsetInCU: 0x63442, offset: 0x10713B, size: 0x8, addend: 0x0, symName: '__ZNSt3__110__function6__funcIZL24perform_stream_op_lockedPvN4absl12lts_202206236StatusEE3$_3NS_9allocatorIS6_EEFvNS4_8StatusOrINS_6vectorINS_4pairINS_12basic_stringIcNS_11char_traitsIcEENS7_IcEEEESG_EENS7_ISH_EEEEEEEED0Ev', symObjAddr: 0x5B34, symBinAddr: 0xD9E4, symSize: 0x4 }
  - { offsetInCU: 0x6362F, offset: 0x107328, size: 0x8, addend: 0x0, symName: '__ZNKSt3__110__function6__funcIZL24perform_stream_op_lockedPvN4absl12lts_202206236StatusEE3$_3NS_9allocatorIS6_EEFvNS4_8StatusOrINS_6vectorINS_4pairINS_12basic_stringIcNS_11char_traitsIcEENS7_IcEEEESG_EENS7_ISH_EEEEEEEE7__cloneEv', symObjAddr: 0x5B38, symBinAddr: 0xD9E8, symSize: 0x40 }
  - { offsetInCU: 0x63967, offset: 0x107660, size: 0x8, addend: 0x0, symName: '__ZNKSt3__110__function6__funcIZL24perform_stream_op_lockedPvN4absl12lts_202206236StatusEE3$_3NS_9allocatorIS6_EEFvNS4_8StatusOrINS_6vectorINS_4pairINS_12basic_stringIcNS_11char_traitsIcEENS7_IcEEEESG_EENS7_ISH_EEEEEEEE7__cloneEPNS0_6__baseISL_EE', symObjAddr: 0x5B78, symBinAddr: 0xDA28, symSize: 0x20 }
  - { offsetInCU: 0x639A0, offset: 0x107699, size: 0x8, addend: 0x0, symName: '__ZNKSt3__110__function6__funcIZL24perform_stream_op_lockedPvN4absl12lts_202206236StatusEE3$_3NS_9allocatorIS6_EEFvNS4_8StatusOrINS_6vectorINS_4pairINS_12basic_stringIcNS_11char_traitsIcEENS7_IcEEEESG_EENS7_ISH_EEEEEEEE7__cloneEPNS0_6__baseISL_EE', symObjAddr: 0x5B78, symBinAddr: 0xDA28, symSize: 0x20 }
  - { offsetInCU: 0x639CF, offset: 0x1076C8, size: 0x8, addend: 0x0, symName: '__ZNKSt3__110__function6__funcIZL24perform_stream_op_lockedPvN4absl12lts_202206236StatusEE3$_3NS_9allocatorIS6_EEFvNS4_8StatusOrINS_6vectorINS_4pairINS_12basic_stringIcNS_11char_traitsIcEENS7_IcEEEESG_EENS7_ISH_EEEEEEEE7__cloneEPNS0_6__baseISL_EE', symObjAddr: 0x5B78, symBinAddr: 0xDA28, symSize: 0x20 }
  - { offsetInCU: 0x63AE6, offset: 0x1077DF, size: 0x8, addend: 0x0, symName: '__ZNSt3__110__function6__funcIZL24perform_stream_op_lockedPvN4absl12lts_202206236StatusEE3$_3NS_9allocatorIS6_EEFvNS4_8StatusOrINS_6vectorINS_4pairINS_12basic_stringIcNS_11char_traitsIcEENS7_IcEEEESG_EENS7_ISH_EEEEEEEE7destroyEv', symObjAddr: 0x5B98, symBinAddr: 0xDA48, symSize: 0x4 }
  - { offsetInCU: 0x63B39, offset: 0x107832, size: 0x8, addend: 0x0, symName: '__ZNSt3__110__function6__funcIZL24perform_stream_op_lockedPvN4absl12lts_202206236StatusEE3$_3NS_9allocatorIS6_EEFvNS4_8StatusOrINS_6vectorINS_4pairINS_12basic_stringIcNS_11char_traitsIcEENS7_IcEEEESG_EENS7_ISH_EEEEEEEE18destroy_deallocateEv', symObjAddr: 0x5B9C, symBinAddr: 0xDA4C, symSize: 0x4 }
  - { offsetInCU: 0x63B70, offset: 0x107869, size: 0x8, addend: 0x0, symName: '__ZNSt3__110__function6__funcIZL24perform_stream_op_lockedPvN4absl12lts_202206236StatusEE3$_3NS_9allocatorIS6_EEFvNS4_8StatusOrINS_6vectorINS_4pairINS_12basic_stringIcNS_11char_traitsIcEENS7_IcEEEESG_EENS7_ISH_EEEEEEEE18destroy_deallocateEv', symObjAddr: 0x5B9C, symBinAddr: 0xDA4C, symSize: 0x4 }
  - { offsetInCU: 0x63B94, offset: 0x10788D, size: 0x8, addend: 0x0, symName: '__ZNSt3__110__function6__funcIZL24perform_stream_op_lockedPvN4absl12lts_202206236StatusEE3$_3NS_9allocatorIS6_EEFvNS4_8StatusOrINS_6vectorINS_4pairINS_12basic_stringIcNS_11char_traitsIcEENS7_IcEEEESG_EENS7_ISH_EEEEEEEE18destroy_deallocateEv', symObjAddr: 0x5B9C, symBinAddr: 0xDA4C, symSize: 0x4 }
  - { offsetInCU: 0x63BC0, offset: 0x1078B9, size: 0x8, addend: 0x0, symName: '__ZNSt3__110__function6__funcIZL24perform_stream_op_lockedPvN4absl12lts_202206236StatusEE3$_3NS_9allocatorIS6_EEFvNS4_8StatusOrINS_6vectorINS_4pairINS_12basic_stringIcNS_11char_traitsIcEENS7_IcEEEESG_EENS7_ISH_EEEEEEEE18destroy_deallocateEv', symObjAddr: 0x5B9C, symBinAddr: 0xDA4C, symSize: 0x4 }
  - { offsetInCU: 0x63BE7, offset: 0x1078E0, size: 0x8, addend: 0x0, symName: '__ZNSt3__110__function6__funcIZL24perform_stream_op_lockedPvN4absl12lts_202206236StatusEE3$_3NS_9allocatorIS6_EEFvNS4_8StatusOrINS_6vectorINS_4pairINS_12basic_stringIcNS_11char_traitsIcEENS7_IcEEEESG_EENS7_ISH_EEEEEEEE18destroy_deallocateEv', symObjAddr: 0x5B9C, symBinAddr: 0xDA4C, symSize: 0x4 }
  - { offsetInCU: 0x63DF2, offset: 0x107AEB, size: 0x8, addend: 0x0, symName: '__ZNSt3__110__function6__funcIZL24perform_stream_op_lockedPvN4absl12lts_202206236StatusEE3$_3NS_9allocatorIS6_EEFvNS4_8StatusOrINS_6vectorINS_4pairINS_12basic_stringIcNS_11char_traitsIcEENS7_IcEEEESG_EENS7_ISH_EEEEEEEEclEOSK_', symObjAddr: 0x5BA0, symBinAddr: 0xDA50, symSize: 0x120 }
  - { offsetInCU: 0x6439B, offset: 0x108094, size: 0x8, addend: 0x0, symName: __ZN4absl12lts_2022062317internal_statusor12StatusOrDataINSt3__16vectorINS3_4pairINS3_12basic_stringIcNS3_11char_traitsIcEENS3_9allocatorIcEEEESB_EENS9_ISC_EEEEEaSEOSF_, symObjAddr: 0x5FDC, symBinAddr: 0xDE8C, symSize: 0x48 }
  - { offsetInCU: 0x64437, offset: 0x108130, size: 0x8, addend: 0x0, symName: '__ZNKSt3__110__function6__funcIZL24perform_stream_op_lockedPvN4absl12lts_202206236StatusEE3$_3NS_9allocatorIS6_EEFvNS4_8StatusOrINS_6vectorINS_4pairINS_12basic_stringIcNS_11char_traitsIcEENS7_IcEEEESG_EENS7_ISH_EEEEEEEE6targetERKSt9type_info', symObjAddr: 0x5CC0, symBinAddr: 0xDB70, symSize: 0x3C }
  - { offsetInCU: 0x644D4, offset: 0x1081CD, size: 0x8, addend: 0x0, symName: '__ZNKSt3__110__function6__funcIZL24perform_stream_op_lockedPvN4absl12lts_202206236StatusEE3$_3NS_9allocatorIS6_EEFvNS4_8StatusOrINS_6vectorINS_4pairINS_12basic_stringIcNS_11char_traitsIcEENS7_IcEEEESG_EENS7_ISH_EEEEEEEE11target_typeEv', symObjAddr: 0x5CFC, symBinAddr: 0xDBAC, symSize: 0xC }
  - { offsetInCU: 0x644F9, offset: 0x1081F2, size: 0x8, addend: 0x0, symName: __ZL28recv_initial_metadata_lockedPvN4absl12lts_202206236StatusE, symObjAddr: 0x5D08, symBinAddr: 0xDBB8, symSize: 0x2D4 }
  - { offsetInCU: 0x651CA, offset: 0x108EC3, size: 0x8, addend: 0x0, symName: __ZL28recv_initial_metadata_lockedPvN4absl12lts_202206236StatusE.cold.1, symObjAddr: 0xB980, symBinAddr: 0x4CFEC, symSize: 0x34 }
  - { offsetInCU: 0x651F8, offset: 0x108EF1, size: 0x8, addend: 0x0, symName: __ZL28recv_initial_metadata_lockedPvN4absl12lts_202206236StatusE.cold.2, symObjAddr: 0xB9B4, symBinAddr: 0x4D020, symSize: 0x34 }
  - { offsetInCU: 0x65226, offset: 0x108F1F, size: 0x8, addend: 0x0, symName: __ZN4absl12lts_2022062317internal_statusor12StatusOrDataINSt3__16vectorINS3_4pairINS3_12basic_stringIcNS3_11char_traitsIcEENS3_9allocatorIcEEEESB_EENS9_ISC_EEEEE12AssignStatusINS0_6StatusEEEvOT_, symObjAddr: 0x60C4, symBinAddr: 0xDF74, symSize: 0xA8 }
  - { offsetInCU: 0x6543C, offset: 0x109135, size: 0x8, addend: 0x0, symName: __ZN4absl12lts_2022062317internal_statusor12StatusOrDataINSt3__16vectorINS3_4pairINS3_12basic_stringIcNS3_11char_traitsIcEENS3_9allocatorIcEEEESB_EENS9_ISC_EEEEE6AssignISE_EEvOT_, symObjAddr: 0x6024, symBinAddr: 0xDED4, symSize: 0xA0 }
  - { offsetInCU: 0x656F2, offset: 0x1093EB, size: 0x8, addend: 0x0, symName: __ZN9grpc_core5TableIJNS_15metadata_detail5ValueINS_16HttpPathMetadataEvEENS2_INS_21HttpAuthorityMetadataEvEENS2_INS_18HttpMethodMetadataEvEENS2_INS_18HttpStatusMetadataEvEENS2_INS_18HttpSchemeMetadataEvEENS2_INS_19ContentTypeMetadataEvEENS2_INS_10TeMetadataEvEENS2_INS_20GrpcEncodingMetadataEvEENS2_INS_27GrpcInternalEncodingRequestEvEENS2_INS_26GrpcAcceptEncodingMetadataEvEENS2_INS_18GrpcStatusMetadataEvEENS2_INS_19GrpcTimeoutMetadataEvEENS2_INS_31GrpcPreviousRpcAttemptsMetadataEvEENS2_INS_27GrpcRetryPushbackMsMetadataEvEENS2_INS_17UserAgentMetadataEvEENS2_INS_19GrpcMessageMetadataEvEENS2_INS_12HostMetadataEvEENS2_INS_30EndpointLoadMetricsBinMetadataEvEENS2_INS_26GrpcServerStatsBinMetadataEvEENS2_INS_20GrpcTraceBinMetadataEvEENS2_INS_19GrpcTagsBinMetadataEvEENS2_INS_25GrpcLbClientStatsMetadataEvEENS2_INS_17LbCostBinMetadataEvEENS2_INS_15LbTokenMetadataEvEENS2_INS_22GrpcStreamNetworkStateEvEENS2_INS_10PeerStringEvEENS2_INS_17GrpcStatusContextEvEENS2_INS_12WaitForReadyEvEEEE12ClearAllImplIJLm0ELm1ELm2ELm3ELm4ELm5ELm6ELm7ELm8ELm9ELm10ELm11ELm12ELm13ELm14ELm15ELm16ELm17ELm18ELm19ELm20ELm21ELm22ELm23ELm24ELm25ELm26ELm27EEEEvN4absl12lts_2022062316integer_sequenceImJXspT_EEEE, symObjAddr: 0x652C, symBinAddr: 0xE300, symSize: 0x148 }
  - { offsetInCU: 0x67E98, offset: 0x10BB91, size: 0x8, addend: 0x0, symName: __ZN9grpc_core13ChunkedVectorINSt3__14pairINS_5SliceES3_EELm10EE5ClearEv, symObjAddr: 0x67F8, symBinAddr: 0xE5CC, symSize: 0x88 }
  - { offsetInCU: 0x67FFF, offset: 0x10BCF8, size: 0x8, addend: 0x0, symName: __ZN9grpc_core12slice_detail16CopyConstructorsINS_5SliceEE16FromCopiedStringENSt3__112basic_stringIcNS4_11char_traitsIcEENS4_9allocatorIcEEEE, symObjAddr: 0x6480, symBinAddr: 0xE254, symSize: 0xAC }
  - { offsetInCU: 0x68358, offset: 0x10C051, size: 0x8, addend: 0x0, symName: __ZN9grpc_core11MetadataMapI19grpc_metadata_batchJNS_16HttpPathMetadataENS_21HttpAuthorityMetadataENS_18HttpMethodMetadataENS_18HttpStatusMetadataENS_18HttpSchemeMetadataENS_19ContentTypeMetadataENS_10TeMetadataENS_20GrpcEncodingMetadataENS_27GrpcInternalEncodingRequestENS_26GrpcAcceptEncodingMetadataENS_18GrpcStatusMetadataENS_19GrpcTimeoutMetadataENS_31GrpcPreviousRpcAttemptsMetadataENS_27GrpcRetryPushbackMsMetadataENS_17UserAgentMetadataENS_19GrpcMessageMetadataENS_12HostMetadataENS_30EndpointLoadMetricsBinMetadataENS_26GrpcServerStatsBinMetadataENS_20GrpcTraceBinMetadataENS_19GrpcTagsBinMetadataENS_25GrpcLbClientStatsMetadataENS_17LbCostBinMetadataENS_15LbTokenMetadataENS_22GrpcStreamNetworkStateENS_10PeerStringENS_17GrpcStatusContextENS_12WaitForReadyEEE6AppendEN4absl12lts_2022062311string_viewENS_5SliceENSW_11FunctionRefIFvSX_RKSY_EEE, symObjAddr: 0x6390, symBinAddr: 0xE164, symSize: 0xF0 }
  - { offsetInCU: 0x68994, offset: 0x10C68D, size: 0x8, addend: 0x0, symName: __ZN9grpc_core5Slice9TakeOwnedEv, symObjAddr: 0x6880, symBinAddr: 0xE654, symSize: 0x9C }
  - { offsetInCU: 0x68AD9, offset: 0x10C7D2, size: 0x8, addend: 0x0, symName: __ZN9grpc_core15metadata_detail10NameLookupIvJNS_16HttpPathMetadataENS_21HttpAuthorityMetadataENS_18HttpMethodMetadataENS_18HttpStatusMetadataENS_18HttpSchemeMetadataENS_19ContentTypeMetadataENS_10TeMetadataENS_20GrpcEncodingMetadataENS_27GrpcInternalEncodingRequestENS_26GrpcAcceptEncodingMetadataENS_18GrpcStatusMetadataENS_19GrpcTimeoutMetadataENS_31GrpcPreviousRpcAttemptsMetadataENS_27GrpcRetryPushbackMsMetadataENS_17UserAgentMetadataENS_19GrpcMessageMetadataENS_12HostMetadataENS_30EndpointLoadMetricsBinMetadataENS_26GrpcServerStatsBinMetadataENS_20GrpcTraceBinMetadataENS_19GrpcTagsBinMetadataENS_25GrpcLbClientStatsMetadataENS_17LbCostBinMetadataENS_15LbTokenMetadataENS_22GrpcStreamNetworkStateENS_10PeerStringENS_17GrpcStatusContextENS_12WaitForReadyEEE6LookupINS0_12AppendHelperI19grpc_metadata_batchEEEEDTclptfp0_5FoundcvS2__EEEN4absl12lts_2022062311string_viewEPT_, symObjAddr: 0x691C, symBinAddr: 0xE6F0, symSize: 0x38 }
  - { offsetInCU: 0x68B0D, offset: 0x10C806, size: 0x8, addend: 0x0, symName: __ZN9grpc_core15metadata_detail10NameLookupIvJNS_16HttpPathMetadataENS_21HttpAuthorityMetadataENS_18HttpMethodMetadataENS_18HttpStatusMetadataENS_18HttpSchemeMetadataENS_19ContentTypeMetadataENS_10TeMetadataENS_20GrpcEncodingMetadataENS_27GrpcInternalEncodingRequestENS_26GrpcAcceptEncodingMetadataENS_18GrpcStatusMetadataENS_19GrpcTimeoutMetadataENS_31GrpcPreviousRpcAttemptsMetadataENS_27GrpcRetryPushbackMsMetadataENS_17UserAgentMetadataENS_19GrpcMessageMetadataENS_12HostMetadataENS_30EndpointLoadMetricsBinMetadataENS_26GrpcServerStatsBinMetadataENS_20GrpcTraceBinMetadataENS_19GrpcTagsBinMetadataENS_25GrpcLbClientStatsMetadataENS_17LbCostBinMetadataENS_15LbTokenMetadataENS_22GrpcStreamNetworkStateENS_10PeerStringENS_17GrpcStatusContextENS_12WaitForReadyEEE6LookupINS0_12AppendHelperI19grpc_metadata_batchEEEEDTclptfp0_5FoundcvS2__EEEN4absl12lts_2022062311string_viewEPT_, symObjAddr: 0x691C, symBinAddr: 0xE6F0, symSize: 0x38 }
  - { offsetInCU: 0x6A810, offset: 0x10E509, size: 0x8, addend: 0x0, symName: __ZN4absl12lts_2022062323inlined_vector_internal7StorageIN9grpc_core17LbCostBinMetadata9ValueTypeELm1ENSt3__19allocatorIS5_EEED2Ev, symObjAddr: 0x6674, symBinAddr: 0xE448, symSize: 0x34 }
  - { offsetInCU: 0x6A84F, offset: 0x10E548, size: 0x8, addend: 0x0, symName: __ZN4absl12lts_2022062323inlined_vector_internal7StorageINSt3__112basic_stringIcNS3_11char_traitsIcEENS3_9allocatorIcEEEELm1ENS7_IS9_EEED2Ev, symObjAddr: 0x6734, symBinAddr: 0xE508, symSize: 0x34 }
  - { offsetInCU: 0x6A88E, offset: 0x10E587, size: 0x8, addend: 0x0, symName: __ZN4absl12lts_2022062323inlined_vector_internal7StorageIN9grpc_core17LbCostBinMetadata9ValueTypeELm1ENSt3__19allocatorIS5_EEE15DestroyContentsEv, symObjAddr: 0x66A8, symBinAddr: 0xE47C, symSize: 0x8C }
  - { offsetInCU: 0x6AD88, offset: 0x10EA81, size: 0x8, addend: 0x0, symName: __ZN4absl12lts_2022062323inlined_vector_internal7StorageINSt3__112basic_stringIcNS3_11char_traitsIcEENS3_9allocatorIcEEEELm1ENS7_IS9_EEE15DestroyContentsEv, symObjAddr: 0x6768, symBinAddr: 0xE53C, symSize: 0x90 }
  - { offsetInCU: 0x6B285, offset: 0x10EF7E, size: 0x8, addend: 0x0, symName: __ZN9grpc_core15metadata_detail10NameLookupIvJNS_21HttpAuthorityMetadataENS_18HttpMethodMetadataENS_18HttpStatusMetadataENS_18HttpSchemeMetadataENS_19ContentTypeMetadataENS_10TeMetadataENS_20GrpcEncodingMetadataENS_27GrpcInternalEncodingRequestENS_26GrpcAcceptEncodingMetadataENS_18GrpcStatusMetadataENS_19GrpcTimeoutMetadataENS_31GrpcPreviousRpcAttemptsMetadataENS_27GrpcRetryPushbackMsMetadataENS_17UserAgentMetadataENS_19GrpcMessageMetadataENS_12HostMetadataENS_30EndpointLoadMetricsBinMetadataENS_26GrpcServerStatsBinMetadataENS_20GrpcTraceBinMetadataENS_19GrpcTagsBinMetadataENS_25GrpcLbClientStatsMetadataENS_17LbCostBinMetadataENS_15LbTokenMetadataENS_22GrpcStreamNetworkStateENS_10PeerStringENS_17GrpcStatusContextENS_12WaitForReadyEEE6LookupINS0_12AppendHelperI19grpc_metadata_batchEEEEDTclptfp0_5FoundcvS2__EEEN4absl12lts_2022062311string_viewEPT_, symObjAddr: 0x6A04, symBinAddr: 0xE7D8, symSize: 0x40 }
  - { offsetInCU: 0x6B2B9, offset: 0x10EFB2, size: 0x8, addend: 0x0, symName: __ZN9grpc_core15metadata_detail10NameLookupIvJNS_21HttpAuthorityMetadataENS_18HttpMethodMetadataENS_18HttpStatusMetadataENS_18HttpSchemeMetadataENS_19ContentTypeMetadataENS_10TeMetadataENS_20GrpcEncodingMetadataENS_27GrpcInternalEncodingRequestENS_26GrpcAcceptEncodingMetadataENS_18GrpcStatusMetadataENS_19GrpcTimeoutMetadataENS_31GrpcPreviousRpcAttemptsMetadataENS_27GrpcRetryPushbackMsMetadataENS_17UserAgentMetadataENS_19GrpcMessageMetadataENS_12HostMetadataENS_30EndpointLoadMetricsBinMetadataENS_26GrpcServerStatsBinMetadataENS_20GrpcTraceBinMetadataENS_19GrpcTagsBinMetadataENS_25GrpcLbClientStatsMetadataENS_17LbCostBinMetadataENS_15LbTokenMetadataENS_22GrpcStreamNetworkStateENS_10PeerStringENS_17GrpcStatusContextENS_12WaitForReadyEEE6LookupINS0_12AppendHelperI19grpc_metadata_batchEEEEDTclptfp0_5FoundcvS2__EEEN4absl12lts_2022062311string_viewEPT_, symObjAddr: 0x6A04, symBinAddr: 0xE7D8, symSize: 0x40 }
  - { offsetInCU: 0x6B306, offset: 0x10EFFF, size: 0x8, addend: 0x0, symName: __ZN9grpc_core15metadata_detail12AppendHelperI19grpc_metadata_batchE5FoundINS_16HttpPathMetadataEEEvT_, symObjAddr: 0x6954, symBinAddr: 0xE728, symSize: 0xB0 }
  - { offsetInCU: 0x6B535, offset: 0x10F22E, size: 0x8, addend: 0x0, symName: __ZN9grpc_core15metadata_detail10ParseValueIFNS_5SliceES2_N4absl12lts_2022062311FunctionRefIFvNS4_11string_viewERKS2_EEEEFS2_S2_EE5ParseIXadL_ZNS_24SimpleSliceBasedMetadata12ParseMementoES2_SA_EEXadL_ZNSF_14MementoToValueES2_EEEEDTclT0_clT_clL_ZNSt3__14moveB7v160006IRS2_EEOu20__remove_reference_tIT_EOSJ_Edefp_Efp0_EEEPS2_SA_, symObjAddr: 0x6A44, symBinAddr: 0xE818, symSize: 0xBC }
  - { offsetInCU: 0x6B750, offset: 0x10F449, size: 0x8, addend: 0x0, symName: __ZN9grpc_core5TableIJNS_15metadata_detail5ValueINS_16HttpPathMetadataEvEENS2_INS_21HttpAuthorityMetadataEvEENS2_INS_18HttpMethodMetadataEvEENS2_INS_18HttpStatusMetadataEvEENS2_INS_18HttpSchemeMetadataEvEENS2_INS_19ContentTypeMetadataEvEENS2_INS_10TeMetadataEvEENS2_INS_20GrpcEncodingMetadataEvEENS2_INS_27GrpcInternalEncodingRequestEvEENS2_INS_26GrpcAcceptEncodingMetadataEvEENS2_INS_18GrpcStatusMetadataEvEENS2_INS_19GrpcTimeoutMetadataEvEENS2_INS_31GrpcPreviousRpcAttemptsMetadataEvEENS2_INS_27GrpcRetryPushbackMsMetadataEvEENS2_INS_17UserAgentMetadataEvEENS2_INS_19GrpcMessageMetadataEvEENS2_INS_12HostMetadataEvEENS2_INS_30EndpointLoadMetricsBinMetadataEvEENS2_INS_26GrpcServerStatsBinMetadataEvEENS2_INS_20GrpcTraceBinMetadataEvEENS2_INS_19GrpcTagsBinMetadataEvEENS2_INS_25GrpcLbClientStatsMetadataEvEENS2_INS_17LbCostBinMetadataEvEENS2_INS_15LbTokenMetadataEvEENS2_INS_22GrpcStreamNetworkStateEvEENS2_INS_10PeerStringEvEENS2_INS_17GrpcStatusContextEvEENS2_INS_12WaitForReadyEvEEEE3setILm0EJNS_5SliceEEEEPNS_12table_detail15TypeIndexStructIXT_EJS4_S6_S8_SA_SC_SE_SG_SI_SK_SM_SO_SQ_SS_SU_SW_SY_S10_S12_S14_S16_S18_S1A_S1C_S1E_S1G_S1I_S1K_S1M_EE4TypeEDpOT0_, symObjAddr: 0x6B00, symBinAddr: 0xE8D4, symSize: 0xE0 }
  - { offsetInCU: 0x6BB2C, offset: 0x10F825, size: 0x8, addend: 0x0, symName: __ZN9grpc_core15metadata_detail10NameLookupIvJNS_18HttpMethodMetadataENS_18HttpStatusMetadataENS_18HttpSchemeMetadataENS_19ContentTypeMetadataENS_10TeMetadataENS_20GrpcEncodingMetadataENS_27GrpcInternalEncodingRequestENS_26GrpcAcceptEncodingMetadataENS_18GrpcStatusMetadataENS_19GrpcTimeoutMetadataENS_31GrpcPreviousRpcAttemptsMetadataENS_27GrpcRetryPushbackMsMetadataENS_17UserAgentMetadataENS_19GrpcMessageMetadataENS_12HostMetadataENS_30EndpointLoadMetricsBinMetadataENS_26GrpcServerStatsBinMetadataENS_20GrpcTraceBinMetadataENS_19GrpcTagsBinMetadataENS_25GrpcLbClientStatsMetadataENS_17LbCostBinMetadataENS_15LbTokenMetadataENS_22GrpcStreamNetworkStateENS_10PeerStringENS_17GrpcStatusContextENS_12WaitForReadyEEE6LookupINS0_12AppendHelperI19grpc_metadata_batchEEEEDTclptfp0_5FoundcvS2__EEEN4absl12lts_2022062311string_viewEPT_, symObjAddr: 0x6C90, symBinAddr: 0xEA64, symSize: 0x3C }
  - { offsetInCU: 0x6BB60, offset: 0x10F859, size: 0x8, addend: 0x0, symName: __ZN9grpc_core15metadata_detail10NameLookupIvJNS_18HttpMethodMetadataENS_18HttpStatusMetadataENS_18HttpSchemeMetadataENS_19ContentTypeMetadataENS_10TeMetadataENS_20GrpcEncodingMetadataENS_27GrpcInternalEncodingRequestENS_26GrpcAcceptEncodingMetadataENS_18GrpcStatusMetadataENS_19GrpcTimeoutMetadataENS_31GrpcPreviousRpcAttemptsMetadataENS_27GrpcRetryPushbackMsMetadataENS_17UserAgentMetadataENS_19GrpcMessageMetadataENS_12HostMetadataENS_30EndpointLoadMetricsBinMetadataENS_26GrpcServerStatsBinMetadataENS_20GrpcTraceBinMetadataENS_19GrpcTagsBinMetadataENS_25GrpcLbClientStatsMetadataENS_17LbCostBinMetadataENS_15LbTokenMetadataENS_22GrpcStreamNetworkStateENS_10PeerStringENS_17GrpcStatusContextENS_12WaitForReadyEEE6LookupINS0_12AppendHelperI19grpc_metadata_batchEEEEDTclptfp0_5FoundcvS2__EEEN4absl12lts_2022062311string_viewEPT_, symObjAddr: 0x6C90, symBinAddr: 0xEA64, symSize: 0x3C }
  - { offsetInCU: 0x6BBAD, offset: 0x10F8A6, size: 0x8, addend: 0x0, symName: __ZN9grpc_core15metadata_detail12AppendHelperI19grpc_metadata_batchE5FoundINS_21HttpAuthorityMetadataEEEvT_, symObjAddr: 0x6BE0, symBinAddr: 0xE9B4, symSize: 0xB0 }
  - { offsetInCU: 0x6BEA1, offset: 0x10FB9A, size: 0x8, addend: 0x0, symName: __ZN9grpc_core5TableIJNS_15metadata_detail5ValueINS_16HttpPathMetadataEvEENS2_INS_21HttpAuthorityMetadataEvEENS2_INS_18HttpMethodMetadataEvEENS2_INS_18HttpStatusMetadataEvEENS2_INS_18HttpSchemeMetadataEvEENS2_INS_19ContentTypeMetadataEvEENS2_INS_10TeMetadataEvEENS2_INS_20GrpcEncodingMetadataEvEENS2_INS_27GrpcInternalEncodingRequestEvEENS2_INS_26GrpcAcceptEncodingMetadataEvEENS2_INS_18GrpcStatusMetadataEvEENS2_INS_19GrpcTimeoutMetadataEvEENS2_INS_31GrpcPreviousRpcAttemptsMetadataEvEENS2_INS_27GrpcRetryPushbackMsMetadataEvEENS2_INS_17UserAgentMetadataEvEENS2_INS_19GrpcMessageMetadataEvEENS2_INS_12HostMetadataEvEENS2_INS_30EndpointLoadMetricsBinMetadataEvEENS2_INS_26GrpcServerStatsBinMetadataEvEENS2_INS_20GrpcTraceBinMetadataEvEENS2_INS_19GrpcTagsBinMetadataEvEENS2_INS_25GrpcLbClientStatsMetadataEvEENS2_INS_17LbCostBinMetadataEvEENS2_INS_15LbTokenMetadataEvEENS2_INS_22GrpcStreamNetworkStateEvEENS2_INS_10PeerStringEvEENS2_INS_17GrpcStatusContextEvEENS2_INS_12WaitForReadyEvEEEE3setILm1EJNS_5SliceEEEEPNS_12table_detail15TypeIndexStructIXT_EJS4_S6_S8_SA_SC_SE_SG_SI_SK_SM_SO_SQ_SS_SU_SW_SY_S10_S12_S14_S16_S18_S1A_S1C_S1E_S1G_S1I_S1K_S1M_EE4TypeEDpOT0_, symObjAddr: 0x6CCC, symBinAddr: 0xEAA0, symSize: 0xE0 }
  - { offsetInCU: 0x6C29B, offset: 0x10FF94, size: 0x8, addend: 0x0, symName: __ZN9grpc_core15metadata_detail10NameLookupIvJNS_18HttpStatusMetadataENS_18HttpSchemeMetadataENS_19ContentTypeMetadataENS_10TeMetadataENS_20GrpcEncodingMetadataENS_27GrpcInternalEncodingRequestENS_26GrpcAcceptEncodingMetadataENS_18GrpcStatusMetadataENS_19GrpcTimeoutMetadataENS_31GrpcPreviousRpcAttemptsMetadataENS_27GrpcRetryPushbackMsMetadataENS_17UserAgentMetadataENS_19GrpcMessageMetadataENS_12HostMetadataENS_30EndpointLoadMetricsBinMetadataENS_26GrpcServerStatsBinMetadataENS_20GrpcTraceBinMetadataENS_19GrpcTagsBinMetadataENS_25GrpcLbClientStatsMetadataENS_17LbCostBinMetadataENS_15LbTokenMetadataENS_22GrpcStreamNetworkStateENS_10PeerStringENS_17GrpcStatusContextENS_12WaitForReadyEEE6LookupINS0_12AppendHelperI19grpc_metadata_batchEEEEDTclptfp0_5FoundcvS2__EEEN4absl12lts_2022062311string_viewEPT_, symObjAddr: 0x6DE8, symBinAddr: 0xEBBC, symSize: 0x3C }
  - { offsetInCU: 0x6C2CF, offset: 0x10FFC8, size: 0x8, addend: 0x0, symName: __ZN9grpc_core15metadata_detail10NameLookupIvJNS_18HttpStatusMetadataENS_18HttpSchemeMetadataENS_19ContentTypeMetadataENS_10TeMetadataENS_20GrpcEncodingMetadataENS_27GrpcInternalEncodingRequestENS_26GrpcAcceptEncodingMetadataENS_18GrpcStatusMetadataENS_19GrpcTimeoutMetadataENS_31GrpcPreviousRpcAttemptsMetadataENS_27GrpcRetryPushbackMsMetadataENS_17UserAgentMetadataENS_19GrpcMessageMetadataENS_12HostMetadataENS_30EndpointLoadMetricsBinMetadataENS_26GrpcServerStatsBinMetadataENS_20GrpcTraceBinMetadataENS_19GrpcTagsBinMetadataENS_25GrpcLbClientStatsMetadataENS_17LbCostBinMetadataENS_15LbTokenMetadataENS_22GrpcStreamNetworkStateENS_10PeerStringENS_17GrpcStatusContextENS_12WaitForReadyEEE6LookupINS0_12AppendHelperI19grpc_metadata_batchEEEEDTclptfp0_5FoundcvS2__EEEN4absl12lts_2022062311string_viewEPT_, symObjAddr: 0x6DE8, symBinAddr: 0xEBBC, symSize: 0x3C }
  - { offsetInCU: 0x6C31C, offset: 0x110015, size: 0x8, addend: 0x0, symName: __ZN9grpc_core15metadata_detail12AppendHelperI19grpc_metadata_batchE5FoundINS_18HttpMethodMetadataEEEvT_, symObjAddr: 0x6DAC, symBinAddr: 0xEB80, symSize: 0x3C }
  - { offsetInCU: 0x6C5B1, offset: 0x1102AA, size: 0x8, addend: 0x0, symName: __ZN9grpc_core15metadata_detail10ParseValueIFNS_18HttpMethodMetadata9ValueTypeENS_5SliceEN4absl12lts_2022062311FunctionRefIFvNS6_11string_viewERKS4_EEEEFS3_S3_EE5ParseIXadL_ZNS2_12ParseMementoES4_SC_EEXadL_ZNS2_14MementoToValueES3_EEEEDTclT0_clT_clL_ZNSt3__14moveB7v160006IRS4_EEOu20__remove_reference_tIT_EOSK_Edefp_Efp0_EEEPS4_SC_, symObjAddr: 0x6E24, symBinAddr: 0xEBF8, symSize: 0xAC }
  - { offsetInCU: 0x6C73B, offset: 0x110434, size: 0x8, addend: 0x0, symName: __ZN9grpc_core15metadata_detail10NameLookupIvJNS_18HttpSchemeMetadataENS_19ContentTypeMetadataENS_10TeMetadataENS_20GrpcEncodingMetadataENS_27GrpcInternalEncodingRequestENS_26GrpcAcceptEncodingMetadataENS_18GrpcStatusMetadataENS_19GrpcTimeoutMetadataENS_31GrpcPreviousRpcAttemptsMetadataENS_27GrpcRetryPushbackMsMetadataENS_17UserAgentMetadataENS_19GrpcMessageMetadataENS_12HostMetadataENS_30EndpointLoadMetricsBinMetadataENS_26GrpcServerStatsBinMetadataENS_20GrpcTraceBinMetadataENS_19GrpcTagsBinMetadataENS_25GrpcLbClientStatsMetadataENS_17LbCostBinMetadataENS_15LbTokenMetadataENS_22GrpcStreamNetworkStateENS_10PeerStringENS_17GrpcStatusContextENS_12WaitForReadyEEE6LookupINS0_12AppendHelperI19grpc_metadata_batchEEEEDTclptfp0_5FoundcvS2__EEEN4absl12lts_2022062311string_viewEPT_, symObjAddr: 0x6F0C, symBinAddr: 0xECE0, symSize: 0x3C }
  - { offsetInCU: 0x6C76F, offset: 0x110468, size: 0x8, addend: 0x0, symName: __ZN9grpc_core15metadata_detail10NameLookupIvJNS_18HttpSchemeMetadataENS_19ContentTypeMetadataENS_10TeMetadataENS_20GrpcEncodingMetadataENS_27GrpcInternalEncodingRequestENS_26GrpcAcceptEncodingMetadataENS_18GrpcStatusMetadataENS_19GrpcTimeoutMetadataENS_31GrpcPreviousRpcAttemptsMetadataENS_27GrpcRetryPushbackMsMetadataENS_17UserAgentMetadataENS_19GrpcMessageMetadataENS_12HostMetadataENS_30EndpointLoadMetricsBinMetadataENS_26GrpcServerStatsBinMetadataENS_20GrpcTraceBinMetadataENS_19GrpcTagsBinMetadataENS_25GrpcLbClientStatsMetadataENS_17LbCostBinMetadataENS_15LbTokenMetadataENS_22GrpcStreamNetworkStateENS_10PeerStringENS_17GrpcStatusContextENS_12WaitForReadyEEE6LookupINS0_12AppendHelperI19grpc_metadata_batchEEEEDTclptfp0_5FoundcvS2__EEEN4absl12lts_2022062311string_viewEPT_, symObjAddr: 0x6F0C, symBinAddr: 0xECE0, symSize: 0x3C }
  - { offsetInCU: 0x6C7BC, offset: 0x1104B5, size: 0x8, addend: 0x0, symName: __ZN9grpc_core15metadata_detail12AppendHelperI19grpc_metadata_batchE5FoundINS_18HttpStatusMetadataEEEvT_, symObjAddr: 0x6ED0, symBinAddr: 0xECA4, symSize: 0x3C }
  - { offsetInCU: 0x6CA20, offset: 0x110719, size: 0x8, addend: 0x0, symName: __ZN9grpc_core15metadata_detail10ParseValueIFjNS_5SliceEN4absl12lts_2022062311FunctionRefIFvNS4_11string_viewERKS2_EEEEFjjEE5ParseIXadL_ZNS_22SimpleIntBasedMetadataIjLj0EE12ParseMementoES2_SA_EEXadL_ZNS_26SimpleIntBasedMetadataBaseIjE14MementoToValueEjEEEEDTclT0_clT_clL_ZNSt3__14moveB7v160006IRS2_EEOu20__remove_reference_tIT_EOSM_Edefp_Efp0_EEEPS2_SA_, symObjAddr: 0x6F48, symBinAddr: 0xED1C, symSize: 0xAC }
  - { offsetInCU: 0x6CBB9, offset: 0x1108B2, size: 0x8, addend: 0x0, symName: __ZN9grpc_core22SimpleIntBasedMetadataIjLj0EE12ParseMementoENS_5SliceEN4absl12lts_2022062311FunctionRefIFvNS4_11string_viewERKS2_EEE, symObjAddr: 0x6FF4, symBinAddr: 0xEDC8, symSize: 0x6C }
  - { offsetInCU: 0x6CBD0, offset: 0x1108C9, size: 0x8, addend: 0x0, symName: __ZN9grpc_core15metadata_detail10NameLookupIvJNS_19ContentTypeMetadataENS_10TeMetadataENS_20GrpcEncodingMetadataENS_27GrpcInternalEncodingRequestENS_26GrpcAcceptEncodingMetadataENS_18GrpcStatusMetadataENS_19GrpcTimeoutMetadataENS_31GrpcPreviousRpcAttemptsMetadataENS_27GrpcRetryPushbackMsMetadataENS_17UserAgentMetadataENS_19GrpcMessageMetadataENS_12HostMetadataENS_30EndpointLoadMetricsBinMetadataENS_26GrpcServerStatsBinMetadataENS_20GrpcTraceBinMetadataENS_19GrpcTagsBinMetadataENS_25GrpcLbClientStatsMetadataENS_17LbCostBinMetadataENS_15LbTokenMetadataENS_22GrpcStreamNetworkStateENS_10PeerStringENS_17GrpcStatusContextENS_12WaitForReadyEEE6LookupINS0_12AppendHelperI19grpc_metadata_batchEEEEDTclptfp0_5FoundcvS2__EEEN4absl12lts_2022062311string_viewEPT_, symObjAddr: 0x709C, symBinAddr: 0xEE70, symSize: 0x44 }
  - { offsetInCU: 0x6CC04, offset: 0x1108FD, size: 0x8, addend: 0x0, symName: __ZN9grpc_core15metadata_detail10NameLookupIvJNS_19ContentTypeMetadataENS_10TeMetadataENS_20GrpcEncodingMetadataENS_27GrpcInternalEncodingRequestENS_26GrpcAcceptEncodingMetadataENS_18GrpcStatusMetadataENS_19GrpcTimeoutMetadataENS_31GrpcPreviousRpcAttemptsMetadataENS_27GrpcRetryPushbackMsMetadataENS_17UserAgentMetadataENS_19GrpcMessageMetadataENS_12HostMetadataENS_30EndpointLoadMetricsBinMetadataENS_26GrpcServerStatsBinMetadataENS_20GrpcTraceBinMetadataENS_19GrpcTagsBinMetadataENS_25GrpcLbClientStatsMetadataENS_17LbCostBinMetadataENS_15LbTokenMetadataENS_22GrpcStreamNetworkStateENS_10PeerStringENS_17GrpcStatusContextENS_12WaitForReadyEEE6LookupINS0_12AppendHelperI19grpc_metadata_batchEEEEDTclptfp0_5FoundcvS2__EEEN4absl12lts_2022062311string_viewEPT_, symObjAddr: 0x709C, symBinAddr: 0xEE70, symSize: 0x44 }
  - { offsetInCU: 0x6CC51, offset: 0x11094A, size: 0x8, addend: 0x0, symName: __ZN9grpc_core15metadata_detail12AppendHelperI19grpc_metadata_batchE5FoundINS_18HttpSchemeMetadataEEEvT_, symObjAddr: 0x7060, symBinAddr: 0xEE34, symSize: 0x3C }
  - { offsetInCU: 0x6CD78, offset: 0x110A71, size: 0x8, addend: 0x0, symName: __ZN9grpc_core22SimpleIntBasedMetadataIjLj0EE12ParseMementoENS_5SliceEN4absl12lts_2022062311FunctionRefIFvNS4_11string_viewERKS2_EEE, symObjAddr: 0x6FF4, symBinAddr: 0xEDC8, symSize: 0x6C }
  - { offsetInCU: 0x6CFFE, offset: 0x110CF7, size: 0x8, addend: 0x0, symName: __ZN9grpc_core15metadata_detail10ParseValueIFNS_18HttpSchemeMetadata9ValueTypeENS_5SliceEN4absl12lts_2022062311FunctionRefIFvNS6_11string_viewERKS4_EEEEFS3_S3_EE5ParseIXadL_ZNS2_12ParseMementoES4_SC_EEXadL_ZNS2_14MementoToValueES3_EEEEDTclT0_clT_clL_ZNSt3__14moveB7v160006IRS4_EEOu20__remove_reference_tIT_EOSK_Edefp_Efp0_EEEPS4_SC_, symObjAddr: 0x70E0, symBinAddr: 0xEEB4, symSize: 0xFC }
  - { offsetInCU: 0x6D21E, offset: 0x110F17, size: 0x8, addend: 0x0, symName: __ZN9grpc_core15metadata_detail10NameLookupIvJNS_10TeMetadataENS_20GrpcEncodingMetadataENS_27GrpcInternalEncodingRequestENS_26GrpcAcceptEncodingMetadataENS_18GrpcStatusMetadataENS_19GrpcTimeoutMetadataENS_31GrpcPreviousRpcAttemptsMetadataENS_27GrpcRetryPushbackMsMetadataENS_17UserAgentMetadataENS_19GrpcMessageMetadataENS_12HostMetadataENS_30EndpointLoadMetricsBinMetadataENS_26GrpcServerStatsBinMetadataENS_20GrpcTraceBinMetadataENS_19GrpcTagsBinMetadataENS_25GrpcLbClientStatsMetadataENS_17LbCostBinMetadataENS_15LbTokenMetadataENS_22GrpcStreamNetworkStateENS_10PeerStringENS_17GrpcStatusContextENS_12WaitForReadyEEE6LookupINS0_12AppendHelperI19grpc_metadata_batchEEEEDTclptfp0_5FoundcvS2__EEEN4absl12lts_2022062311string_viewEPT_, symObjAddr: 0x7218, symBinAddr: 0xEFEC, symSize: 0x24 }
  - { offsetInCU: 0x6D252, offset: 0x110F4B, size: 0x8, addend: 0x0, symName: __ZN9grpc_core15metadata_detail10NameLookupIvJNS_10TeMetadataENS_20GrpcEncodingMetadataENS_27GrpcInternalEncodingRequestENS_26GrpcAcceptEncodingMetadataENS_18GrpcStatusMetadataENS_19GrpcTimeoutMetadataENS_31GrpcPreviousRpcAttemptsMetadataENS_27GrpcRetryPushbackMsMetadataENS_17UserAgentMetadataENS_19GrpcMessageMetadataENS_12HostMetadataENS_30EndpointLoadMetricsBinMetadataENS_26GrpcServerStatsBinMetadataENS_20GrpcTraceBinMetadataENS_19GrpcTagsBinMetadataENS_25GrpcLbClientStatsMetadataENS_17LbCostBinMetadataENS_15LbTokenMetadataENS_22GrpcStreamNetworkStateENS_10PeerStringENS_17GrpcStatusContextENS_12WaitForReadyEEE6LookupINS0_12AppendHelperI19grpc_metadata_batchEEEEDTclptfp0_5FoundcvS2__EEEN4absl12lts_2022062311string_viewEPT_, symObjAddr: 0x7218, symBinAddr: 0xEFEC, symSize: 0x24 }
  - { offsetInCU: 0x6D29F, offset: 0x110F98, size: 0x8, addend: 0x0, symName: __ZN9grpc_core15metadata_detail12AppendHelperI19grpc_metadata_batchE5FoundINS_19ContentTypeMetadataEEEvT_, symObjAddr: 0x71DC, symBinAddr: 0xEFB0, symSize: 0x3C }
  - { offsetInCU: 0x6D51D, offset: 0x111216, size: 0x8, addend: 0x0, symName: __ZN9grpc_core15metadata_detail10ParseValueIFNS_19ContentTypeMetadata9ValueTypeENS_5SliceEN4absl12lts_2022062311FunctionRefIFvNS6_11string_viewERKS4_EEEEFS3_S3_EE5ParseIXadL_ZNS2_12ParseMementoES4_SC_EEXadL_ZNS2_14MementoToValueES3_EEEEDTclT0_clT_clL_ZNSt3__14moveB7v160006IRS4_EEOu20__remove_reference_tIT_EOSK_Edefp_Efp0_EEEPS4_SC_, symObjAddr: 0x723C, symBinAddr: 0xF010, symSize: 0xAC }
  - { offsetInCU: 0x6D6A7, offset: 0x1113A0, size: 0x8, addend: 0x0, symName: __ZN9grpc_core15metadata_detail10NameLookupIvJNS_20GrpcEncodingMetadataENS_27GrpcInternalEncodingRequestENS_26GrpcAcceptEncodingMetadataENS_18GrpcStatusMetadataENS_19GrpcTimeoutMetadataENS_31GrpcPreviousRpcAttemptsMetadataENS_27GrpcRetryPushbackMsMetadataENS_17UserAgentMetadataENS_19GrpcMessageMetadataENS_12HostMetadataENS_30EndpointLoadMetricsBinMetadataENS_26GrpcServerStatsBinMetadataENS_20GrpcTraceBinMetadataENS_19GrpcTagsBinMetadataENS_25GrpcLbClientStatsMetadataENS_17LbCostBinMetadataENS_15LbTokenMetadataENS_22GrpcStreamNetworkStateENS_10PeerStringENS_17GrpcStatusContextENS_12WaitForReadyEEE6LookupINS0_12AppendHelperI19grpc_metadata_batchEEEEDTclptfp0_5FoundcvS2__EEEN4absl12lts_2022062311string_viewEPT_, symObjAddr: 0x7324, symBinAddr: 0xF0F8, symSize: 0x4C }
  - { offsetInCU: 0x6D6DB, offset: 0x1113D4, size: 0x8, addend: 0x0, symName: __ZN9grpc_core15metadata_detail10NameLookupIvJNS_20GrpcEncodingMetadataENS_27GrpcInternalEncodingRequestENS_26GrpcAcceptEncodingMetadataENS_18GrpcStatusMetadataENS_19GrpcTimeoutMetadataENS_31GrpcPreviousRpcAttemptsMetadataENS_27GrpcRetryPushbackMsMetadataENS_17UserAgentMetadataENS_19GrpcMessageMetadataENS_12HostMetadataENS_30EndpointLoadMetricsBinMetadataENS_26GrpcServerStatsBinMetadataENS_20GrpcTraceBinMetadataENS_19GrpcTagsBinMetadataENS_25GrpcLbClientStatsMetadataENS_17LbCostBinMetadataENS_15LbTokenMetadataENS_22GrpcStreamNetworkStateENS_10PeerStringENS_17GrpcStatusContextENS_12WaitForReadyEEE6LookupINS0_12AppendHelperI19grpc_metadata_batchEEEEDTclptfp0_5FoundcvS2__EEEN4absl12lts_2022062311string_viewEPT_, symObjAddr: 0x7324, symBinAddr: 0xF0F8, symSize: 0x4C }
  - { offsetInCU: 0x6D728, offset: 0x111421, size: 0x8, addend: 0x0, symName: __ZN9grpc_core15metadata_detail12AppendHelperI19grpc_metadata_batchE5FoundINS_10TeMetadataEEEvT_, symObjAddr: 0x72E8, symBinAddr: 0xF0BC, symSize: 0x3C }
  - { offsetInCU: 0x6D986, offset: 0x11167F, size: 0x8, addend: 0x0, symName: __ZN9grpc_core15metadata_detail10ParseValueIFNS_10TeMetadata9ValueTypeENS_5SliceEN4absl12lts_2022062311FunctionRefIFvNS6_11string_viewERKS4_EEEEFS3_S3_EE5ParseIXadL_ZNS2_12ParseMementoES4_SC_EEXadL_ZNS2_14MementoToValueES3_EEEEDTclT0_clT_clL_ZNSt3__14moveB7v160006IRS4_EEOu20__remove_reference_tIT_EOSK_Edefp_Efp0_EEEPS4_SC_, symObjAddr: 0x7370, symBinAddr: 0xF144, symSize: 0xAC }
  - { offsetInCU: 0x6DB10, offset: 0x111809, size: 0x8, addend: 0x0, symName: __ZN9grpc_core15metadata_detail10NameLookupIvJNS_27GrpcInternalEncodingRequestENS_26GrpcAcceptEncodingMetadataENS_18GrpcStatusMetadataENS_19GrpcTimeoutMetadataENS_31GrpcPreviousRpcAttemptsMetadataENS_27GrpcRetryPushbackMsMetadataENS_17UserAgentMetadataENS_19GrpcMessageMetadataENS_12HostMetadataENS_30EndpointLoadMetricsBinMetadataENS_26GrpcServerStatsBinMetadataENS_20GrpcTraceBinMetadataENS_19GrpcTagsBinMetadataENS_25GrpcLbClientStatsMetadataENS_17LbCostBinMetadataENS_15LbTokenMetadataENS_22GrpcStreamNetworkStateENS_10PeerStringENS_17GrpcStatusContextENS_12WaitForReadyEEE6LookupINS0_12AppendHelperI19grpc_metadata_batchEEEEDTclptfp0_5FoundcvS2__EEEN4absl12lts_2022062311string_viewEPT_, symObjAddr: 0x7458, symBinAddr: 0xF22C, symSize: 0x80 }
  - { offsetInCU: 0x6DB44, offset: 0x11183D, size: 0x8, addend: 0x0, symName: __ZN9grpc_core15metadata_detail10NameLookupIvJNS_27GrpcInternalEncodingRequestENS_26GrpcAcceptEncodingMetadataENS_18GrpcStatusMetadataENS_19GrpcTimeoutMetadataENS_31GrpcPreviousRpcAttemptsMetadataENS_27GrpcRetryPushbackMsMetadataENS_17UserAgentMetadataENS_19GrpcMessageMetadataENS_12HostMetadataENS_30EndpointLoadMetricsBinMetadataENS_26GrpcServerStatsBinMetadataENS_20GrpcTraceBinMetadataENS_19GrpcTagsBinMetadataENS_25GrpcLbClientStatsMetadataENS_17LbCostBinMetadataENS_15LbTokenMetadataENS_22GrpcStreamNetworkStateENS_10PeerStringENS_17GrpcStatusContextENS_12WaitForReadyEEE6LookupINS0_12AppendHelperI19grpc_metadata_batchEEEEDTclptfp0_5FoundcvS2__EEEN4absl12lts_2022062311string_viewEPT_, symObjAddr: 0x7458, symBinAddr: 0xF22C, symSize: 0x80 }
  - { offsetInCU: 0x6DB91, offset: 0x11188A, size: 0x8, addend: 0x0, symName: __ZN9grpc_core15metadata_detail12AppendHelperI19grpc_metadata_batchE5FoundINS_20GrpcEncodingMetadataEEEvT_, symObjAddr: 0x741C, symBinAddr: 0xF1F0, symSize: 0x3C }
  - { offsetInCU: 0x6DDF5, offset: 0x111AEE, size: 0x8, addend: 0x0, symName: __ZN9grpc_core15metadata_detail10ParseValueIF26grpc_compression_algorithmNS_5SliceEN4absl12lts_2022062311FunctionRefIFvNS5_11string_viewERKS3_EEEEFS2_S2_EE5ParseIXadL_ZNS_33CompressionAlgorithmBasedMetadata12ParseMementoES3_SB_EEXadL_ZNSG_14MementoToValueES2_EEEEDTclT0_clT_clL_ZNSt3__14moveB7v160006IRS3_EEOu20__remove_reference_tIT_EOSK_Edefp_Efp0_EEEPS3_SB_, symObjAddr: 0x74D8, symBinAddr: 0xF2AC, symSize: 0xAC }
  - { offsetInCU: 0x6DF7F, offset: 0x111C78, size: 0x8, addend: 0x0, symName: __ZN9grpc_core15metadata_detail10NameLookupIvJNS_26GrpcAcceptEncodingMetadataENS_18GrpcStatusMetadataENS_19GrpcTimeoutMetadataENS_31GrpcPreviousRpcAttemptsMetadataENS_27GrpcRetryPushbackMsMetadataENS_17UserAgentMetadataENS_19GrpcMessageMetadataENS_12HostMetadataENS_30EndpointLoadMetricsBinMetadataENS_26GrpcServerStatsBinMetadataENS_20GrpcTraceBinMetadataENS_19GrpcTagsBinMetadataENS_25GrpcLbClientStatsMetadataENS_17LbCostBinMetadataENS_15LbTokenMetadataENS_22GrpcStreamNetworkStateENS_10PeerStringENS_17GrpcStatusContextENS_12WaitForReadyEEE6LookupINS0_12AppendHelperI19grpc_metadata_batchEEEEDTclptfp0_5FoundcvS2__EEEN4absl12lts_2022062311string_viewEPT_, symObjAddr: 0x75C0, symBinAddr: 0xF394, symSize: 0x5C }
  - { offsetInCU: 0x6DFB3, offset: 0x111CAC, size: 0x8, addend: 0x0, symName: __ZN9grpc_core15metadata_detail10NameLookupIvJNS_26GrpcAcceptEncodingMetadataENS_18GrpcStatusMetadataENS_19GrpcTimeoutMetadataENS_31GrpcPreviousRpcAttemptsMetadataENS_27GrpcRetryPushbackMsMetadataENS_17UserAgentMetadataENS_19GrpcMessageMetadataENS_12HostMetadataENS_30EndpointLoadMetricsBinMetadataENS_26GrpcServerStatsBinMetadataENS_20GrpcTraceBinMetadataENS_19GrpcTagsBinMetadataENS_25GrpcLbClientStatsMetadataENS_17LbCostBinMetadataENS_15LbTokenMetadataENS_22GrpcStreamNetworkStateENS_10PeerStringENS_17GrpcStatusContextENS_12WaitForReadyEEE6LookupINS0_12AppendHelperI19grpc_metadata_batchEEEEDTclptfp0_5FoundcvS2__EEEN4absl12lts_2022062311string_viewEPT_, symObjAddr: 0x75C0, symBinAddr: 0xF394, symSize: 0x5C }
  - { offsetInCU: 0x6E000, offset: 0x111CF9, size: 0x8, addend: 0x0, symName: __ZN9grpc_core15metadata_detail12AppendHelperI19grpc_metadata_batchE5FoundINS_27GrpcInternalEncodingRequestEEEvT_, symObjAddr: 0x7584, symBinAddr: 0xF358, symSize: 0x3C }
  - { offsetInCU: 0x6E237, offset: 0x111F30, size: 0x8, addend: 0x0, symName: __ZN9grpc_core15metadata_detail10NameLookupIvJNS_18GrpcStatusMetadataENS_19GrpcTimeoutMetadataENS_31GrpcPreviousRpcAttemptsMetadataENS_27GrpcRetryPushbackMsMetadataENS_17UserAgentMetadataENS_19GrpcMessageMetadataENS_12HostMetadataENS_30EndpointLoadMetricsBinMetadataENS_26GrpcServerStatsBinMetadataENS_20GrpcTraceBinMetadataENS_19GrpcTagsBinMetadataENS_25GrpcLbClientStatsMetadataENS_17LbCostBinMetadataENS_15LbTokenMetadataENS_22GrpcStreamNetworkStateENS_10PeerStringENS_17GrpcStatusContextENS_12WaitForReadyEEE6LookupINS0_12AppendHelperI19grpc_metadata_batchEEEEDTclptfp0_5FoundcvS2__EEEN4absl12lts_2022062311string_viewEPT_, symObjAddr: 0x7658, symBinAddr: 0xF42C, symSize: 0x4C }
  - { offsetInCU: 0x6E26B, offset: 0x111F64, size: 0x8, addend: 0x0, symName: __ZN9grpc_core15metadata_detail10NameLookupIvJNS_18GrpcStatusMetadataENS_19GrpcTimeoutMetadataENS_31GrpcPreviousRpcAttemptsMetadataENS_27GrpcRetryPushbackMsMetadataENS_17UserAgentMetadataENS_19GrpcMessageMetadataENS_12HostMetadataENS_30EndpointLoadMetricsBinMetadataENS_26GrpcServerStatsBinMetadataENS_20GrpcTraceBinMetadataENS_19GrpcTagsBinMetadataENS_25GrpcLbClientStatsMetadataENS_17LbCostBinMetadataENS_15LbTokenMetadataENS_22GrpcStreamNetworkStateENS_10PeerStringENS_17GrpcStatusContextENS_12WaitForReadyEEE6LookupINS0_12AppendHelperI19grpc_metadata_batchEEEEDTclptfp0_5FoundcvS2__EEEN4absl12lts_2022062311string_viewEPT_, symObjAddr: 0x7658, symBinAddr: 0xF42C, symSize: 0x4C }
  - { offsetInCU: 0x6E2B8, offset: 0x111FB1, size: 0x8, addend: 0x0, symName: __ZN9grpc_core15metadata_detail12AppendHelperI19grpc_metadata_batchE5FoundINS_26GrpcAcceptEncodingMetadataEEEvT_, symObjAddr: 0x761C, symBinAddr: 0xF3F0, symSize: 0x3C }
  - { offsetInCU: 0x6E51C, offset: 0x112215, size: 0x8, addend: 0x0, symName: __ZN9grpc_core15metadata_detail10ParseValueIFNS_23CompressionAlgorithmSetENS_5SliceEN4absl12lts_2022062311FunctionRefIFvNS5_11string_viewERKS3_EEEEFS2_S2_EE5ParseIXadL_ZNS_26GrpcAcceptEncodingMetadata12ParseMementoES3_SB_EEXadL_ZNSG_14MementoToValueES2_EEEEDTclT0_clT_clL_ZNSt3__14moveB7v160006IRS3_EEOu20__remove_reference_tIT_EOSK_Edefp_Efp0_EEEPS3_SB_, symObjAddr: 0x76A4, symBinAddr: 0xF478, symSize: 0xF4 }
  - { offsetInCU: 0x6E73C, offset: 0x112435, size: 0x8, addend: 0x0, symName: __ZN9grpc_core15metadata_detail10NameLookupIvJNS_19GrpcTimeoutMetadataENS_31GrpcPreviousRpcAttemptsMetadataENS_27GrpcRetryPushbackMsMetadataENS_17UserAgentMetadataENS_19GrpcMessageMetadataENS_12HostMetadataENS_30EndpointLoadMetricsBinMetadataENS_26GrpcServerStatsBinMetadataENS_20GrpcTraceBinMetadataENS_19GrpcTagsBinMetadataENS_25GrpcLbClientStatsMetadataENS_17LbCostBinMetadataENS_15LbTokenMetadataENS_22GrpcStreamNetworkStateENS_10PeerStringENS_17GrpcStatusContextENS_12WaitForReadyEEE6LookupINS0_12AppendHelperI19grpc_metadata_batchEEEEDTclptfp0_5FoundcvS2__EEEN4absl12lts_2022062311string_viewEPT_, symObjAddr: 0x77D4, symBinAddr: 0xF5A8, symSize: 0x44 }
  - { offsetInCU: 0x6E770, offset: 0x112469, size: 0x8, addend: 0x0, symName: __ZN9grpc_core15metadata_detail10NameLookupIvJNS_19GrpcTimeoutMetadataENS_31GrpcPreviousRpcAttemptsMetadataENS_27GrpcRetryPushbackMsMetadataENS_17UserAgentMetadataENS_19GrpcMessageMetadataENS_12HostMetadataENS_30EndpointLoadMetricsBinMetadataENS_26GrpcServerStatsBinMetadataENS_20GrpcTraceBinMetadataENS_19GrpcTagsBinMetadataENS_25GrpcLbClientStatsMetadataENS_17LbCostBinMetadataENS_15LbTokenMetadataENS_22GrpcStreamNetworkStateENS_10PeerStringENS_17GrpcStatusContextENS_12WaitForReadyEEE6LookupINS0_12AppendHelperI19grpc_metadata_batchEEEEDTclptfp0_5FoundcvS2__EEEN4absl12lts_2022062311string_viewEPT_, symObjAddr: 0x77D4, symBinAddr: 0xF5A8, symSize: 0x44 }
  - { offsetInCU: 0x6E7BD, offset: 0x1124B6, size: 0x8, addend: 0x0, symName: __ZN9grpc_core15metadata_detail12AppendHelperI19grpc_metadata_batchE5FoundINS_18GrpcStatusMetadataEEEvT_, symObjAddr: 0x7798, symBinAddr: 0xF56C, symSize: 0x3C }
  - { offsetInCU: 0x6EA3D, offset: 0x112736, size: 0x8, addend: 0x0, symName: __ZN9grpc_core15metadata_detail10ParseValueIF16grpc_status_codeNS_5SliceEN4absl12lts_2022062311FunctionRefIFvNS5_11string_viewERKS3_EEEEFS2_S2_EE5ParseIXadL_ZNS_22SimpleIntBasedMetadataIS2_LS2_2EE12ParseMementoES3_SB_EEXadL_ZNS_26SimpleIntBasedMetadataBaseIS2_E14MementoToValueES2_EEEEDTclT0_clT_clL_ZNSt3__14moveB7v160006IRS3_EEOu20__remove_reference_tIT_EOSN_Edefp_Efp0_EEEPS3_SB_, symObjAddr: 0x7818, symBinAddr: 0xF5EC, symSize: 0xAC }
  - { offsetInCU: 0x6EBD6, offset: 0x1128CF, size: 0x8, addend: 0x0, symName: __ZN9grpc_core22SimpleIntBasedMetadataI16grpc_status_codeLS1_2EE12ParseMementoENS_5SliceEN4absl12lts_2022062311FunctionRefIFvNS5_11string_viewERKS3_EEE, symObjAddr: 0x78C4, symBinAddr: 0xF698, symSize: 0x6C }
  - { offsetInCU: 0x6EBED, offset: 0x1128E6, size: 0x8, addend: 0x0, symName: __ZN9grpc_core15metadata_detail10NameLookupIvJNS_31GrpcPreviousRpcAttemptsMetadataENS_27GrpcRetryPushbackMsMetadataENS_17UserAgentMetadataENS_19GrpcMessageMetadataENS_12HostMetadataENS_30EndpointLoadMetricsBinMetadataENS_26GrpcServerStatsBinMetadataENS_20GrpcTraceBinMetadataENS_19GrpcTagsBinMetadataENS_25GrpcLbClientStatsMetadataENS_17LbCostBinMetadataENS_15LbTokenMetadataENS_22GrpcStreamNetworkStateENS_10PeerStringENS_17GrpcStatusContextENS_12WaitForReadyEEE6LookupINS0_12AppendHelperI19grpc_metadata_batchEEEEDTclptfp0_5FoundcvS2__EEEN4absl12lts_2022062311string_viewEPT_, symObjAddr: 0x796C, symBinAddr: 0xF740, symSize: 0x74 }
  - { offsetInCU: 0x6EC21, offset: 0x11291A, size: 0x8, addend: 0x0, symName: __ZN9grpc_core15metadata_detail10NameLookupIvJNS_31GrpcPreviousRpcAttemptsMetadataENS_27GrpcRetryPushbackMsMetadataENS_17UserAgentMetadataENS_19GrpcMessageMetadataENS_12HostMetadataENS_30EndpointLoadMetricsBinMetadataENS_26GrpcServerStatsBinMetadataENS_20GrpcTraceBinMetadataENS_19GrpcTagsBinMetadataENS_25GrpcLbClientStatsMetadataENS_17LbCostBinMetadataENS_15LbTokenMetadataENS_22GrpcStreamNetworkStateENS_10PeerStringENS_17GrpcStatusContextENS_12WaitForReadyEEE6LookupINS0_12AppendHelperI19grpc_metadata_batchEEEEDTclptfp0_5FoundcvS2__EEEN4absl12lts_2022062311string_viewEPT_, symObjAddr: 0x796C, symBinAddr: 0xF740, symSize: 0x74 }
  - { offsetInCU: 0x6EC6E, offset: 0x112967, size: 0x8, addend: 0x0, symName: __ZN9grpc_core15metadata_detail12AppendHelperI19grpc_metadata_batchE5FoundINS_19GrpcTimeoutMetadataEEEvT_, symObjAddr: 0x7930, symBinAddr: 0xF704, symSize: 0x3C }
  - { offsetInCU: 0x6ED95, offset: 0x112A8E, size: 0x8, addend: 0x0, symName: __ZN9grpc_core22SimpleIntBasedMetadataI16grpc_status_codeLS1_2EE12ParseMementoENS_5SliceEN4absl12lts_2022062311FunctionRefIFvNS5_11string_viewERKS3_EEE, symObjAddr: 0x78C4, symBinAddr: 0xF698, symSize: 0x6C }
  - { offsetInCU: 0x6EFEE, offset: 0x112CE7, size: 0x8, addend: 0x0, symName: __ZN9grpc_core15metadata_detail10ParseValueIFNS_8DurationENS_5SliceEN4absl12lts_2022062311FunctionRefIFvNS5_11string_viewERKS3_EEEEFNS_9TimestampES2_EE5ParseIXadL_ZNS_19GrpcTimeoutMetadata12ParseMementoES3_SB_EEXadL_ZNSH_14MementoToValueES2_EEEEDTclT0_clT_clL_ZNSt3__14moveB7v160006IRS3_EEOu20__remove_reference_tIT_EOSL_Edefp_Efp0_EEEPS3_SB_, symObjAddr: 0x79E0, symBinAddr: 0xF7B4, symSize: 0xB0 }
  - { offsetInCU: 0x6F183, offset: 0x112E7C, size: 0x8, addend: 0x0, symName: __ZN9grpc_core15metadata_detail10NameLookupIvJNS_27GrpcRetryPushbackMsMetadataENS_17UserAgentMetadataENS_19GrpcMessageMetadataENS_12HostMetadataENS_30EndpointLoadMetricsBinMetadataENS_26GrpcServerStatsBinMetadataENS_20GrpcTraceBinMetadataENS_19GrpcTagsBinMetadataENS_25GrpcLbClientStatsMetadataENS_17LbCostBinMetadataENS_15LbTokenMetadataENS_22GrpcStreamNetworkStateENS_10PeerStringENS_17GrpcStatusContextENS_12WaitForReadyEEE6LookupINS0_12AppendHelperI19grpc_metadata_batchEEEEDTclptfp0_5FoundcvS2__EEEN4absl12lts_2022062311string_viewEPT_, symObjAddr: 0x7ACC, symBinAddr: 0xF8A0, symSize: 0x64 }
  - { offsetInCU: 0x6F1B7, offset: 0x112EB0, size: 0x8, addend: 0x0, symName: __ZN9grpc_core15metadata_detail10NameLookupIvJNS_27GrpcRetryPushbackMsMetadataENS_17UserAgentMetadataENS_19GrpcMessageMetadataENS_12HostMetadataENS_30EndpointLoadMetricsBinMetadataENS_26GrpcServerStatsBinMetadataENS_20GrpcTraceBinMetadataENS_19GrpcTagsBinMetadataENS_25GrpcLbClientStatsMetadataENS_17LbCostBinMetadataENS_15LbTokenMetadataENS_22GrpcStreamNetworkStateENS_10PeerStringENS_17GrpcStatusContextENS_12WaitForReadyEEE6LookupINS0_12AppendHelperI19grpc_metadata_batchEEEEDTclptfp0_5FoundcvS2__EEEN4absl12lts_2022062311string_viewEPT_, symObjAddr: 0x7ACC, symBinAddr: 0xF8A0, symSize: 0x64 }
  - { offsetInCU: 0x6F204, offset: 0x112EFD, size: 0x8, addend: 0x0, symName: __ZN9grpc_core15metadata_detail12AppendHelperI19grpc_metadata_batchE5FoundINS_31GrpcPreviousRpcAttemptsMetadataEEEvT_, symObjAddr: 0x7A90, symBinAddr: 0xF864, symSize: 0x3C }
  - { offsetInCU: 0x6F43B, offset: 0x113134, size: 0x8, addend: 0x0, symName: __ZN9grpc_core15metadata_detail10NameLookupIvJNS_17UserAgentMetadataENS_19GrpcMessageMetadataENS_12HostMetadataENS_30EndpointLoadMetricsBinMetadataENS_26GrpcServerStatsBinMetadataENS_20GrpcTraceBinMetadataENS_19GrpcTagsBinMetadataENS_25GrpcLbClientStatsMetadataENS_17LbCostBinMetadataENS_15LbTokenMetadataENS_22GrpcStreamNetworkStateENS_10PeerStringENS_17GrpcStatusContextENS_12WaitForReadyEEE6LookupINS0_12AppendHelperI19grpc_metadata_batchEEEEDTclptfp0_5FoundcvS2__EEEN4absl12lts_2022062311string_viewEPT_, symObjAddr: 0x7B6C, symBinAddr: 0xF940, symSize: 0x40 }
  - { offsetInCU: 0x6F46F, offset: 0x113168, size: 0x8, addend: 0x0, symName: __ZN9grpc_core15metadata_detail10NameLookupIvJNS_17UserAgentMetadataENS_19GrpcMessageMetadataENS_12HostMetadataENS_30EndpointLoadMetricsBinMetadataENS_26GrpcServerStatsBinMetadataENS_20GrpcTraceBinMetadataENS_19GrpcTagsBinMetadataENS_25GrpcLbClientStatsMetadataENS_17LbCostBinMetadataENS_15LbTokenMetadataENS_22GrpcStreamNetworkStateENS_10PeerStringENS_17GrpcStatusContextENS_12WaitForReadyEEE6LookupINS0_12AppendHelperI19grpc_metadata_batchEEEEDTclptfp0_5FoundcvS2__EEEN4absl12lts_2022062311string_viewEPT_, symObjAddr: 0x7B6C, symBinAddr: 0xF940, symSize: 0x40 }
  - { offsetInCU: 0x6F4BC, offset: 0x1131B5, size: 0x8, addend: 0x0, symName: __ZN9grpc_core15metadata_detail12AppendHelperI19grpc_metadata_batchE5FoundINS_27GrpcRetryPushbackMsMetadataEEEvT_, symObjAddr: 0x7B30, symBinAddr: 0xF904, symSize: 0x3C }
  - { offsetInCU: 0x6F70A, offset: 0x113403, size: 0x8, addend: 0x0, symName: __ZN9grpc_core15metadata_detail10ParseValueIFNS_8DurationENS_5SliceEN4absl12lts_2022062311FunctionRefIFvNS5_11string_viewERKS3_EEEEFS2_S2_EE5ParseIXadL_ZNS_27GrpcRetryPushbackMsMetadata12ParseMementoES3_SB_EEXadL_ZNSG_14MementoToValueES2_EEEEDTclT0_clT_clL_ZNSt3__14moveB7v160006IRS3_EEOu20__remove_reference_tIT_EOSK_Edefp_Efp0_EEEPS3_SB_, symObjAddr: 0x7BAC, symBinAddr: 0xF980, symSize: 0xAC }
  - { offsetInCU: 0x6F894, offset: 0x11358D, size: 0x8, addend: 0x0, symName: __ZN9grpc_core15metadata_detail10NameLookupIvJNS_19GrpcMessageMetadataENS_12HostMetadataENS_30EndpointLoadMetricsBinMetadataENS_26GrpcServerStatsBinMetadataENS_20GrpcTraceBinMetadataENS_19GrpcTagsBinMetadataENS_25GrpcLbClientStatsMetadataENS_17LbCostBinMetadataENS_15LbTokenMetadataENS_22GrpcStreamNetworkStateENS_10PeerStringENS_17GrpcStatusContextENS_12WaitForReadyEEE6LookupINS0_12AppendHelperI19grpc_metadata_batchEEEEDTclptfp0_5FoundcvS2__EEEN4absl12lts_2022062311string_viewEPT_, symObjAddr: 0x7D08, symBinAddr: 0xFADC, symSize: 0x44 }
  - { offsetInCU: 0x6F8C8, offset: 0x1135C1, size: 0x8, addend: 0x0, symName: __ZN9grpc_core15metadata_detail10NameLookupIvJNS_19GrpcMessageMetadataENS_12HostMetadataENS_30EndpointLoadMetricsBinMetadataENS_26GrpcServerStatsBinMetadataENS_20GrpcTraceBinMetadataENS_19GrpcTagsBinMetadataENS_25GrpcLbClientStatsMetadataENS_17LbCostBinMetadataENS_15LbTokenMetadataENS_22GrpcStreamNetworkStateENS_10PeerStringENS_17GrpcStatusContextENS_12WaitForReadyEEE6LookupINS0_12AppendHelperI19grpc_metadata_batchEEEEDTclptfp0_5FoundcvS2__EEEN4absl12lts_2022062311string_viewEPT_, symObjAddr: 0x7D08, symBinAddr: 0xFADC, symSize: 0x44 }
  - { offsetInCU: 0x6F915, offset: 0x11360E, size: 0x8, addend: 0x0, symName: __ZN9grpc_core15metadata_detail12AppendHelperI19grpc_metadata_batchE5FoundINS_17UserAgentMetadataEEEvT_, symObjAddr: 0x7C58, symBinAddr: 0xFA2C, symSize: 0xB0 }
  - { offsetInCU: 0x6FB1D, offset: 0x113816, size: 0x8, addend: 0x0, symName: __ZN9grpc_core5TableIJNS_15metadata_detail5ValueINS_16HttpPathMetadataEvEENS2_INS_21HttpAuthorityMetadataEvEENS2_INS_18HttpMethodMetadataEvEENS2_INS_18HttpStatusMetadataEvEENS2_INS_18HttpSchemeMetadataEvEENS2_INS_19ContentTypeMetadataEvEENS2_INS_10TeMetadataEvEENS2_INS_20GrpcEncodingMetadataEvEENS2_INS_27GrpcInternalEncodingRequestEvEENS2_INS_26GrpcAcceptEncodingMetadataEvEENS2_INS_18GrpcStatusMetadataEvEENS2_INS_19GrpcTimeoutMetadataEvEENS2_INS_31GrpcPreviousRpcAttemptsMetadataEvEENS2_INS_27GrpcRetryPushbackMsMetadataEvEENS2_INS_17UserAgentMetadataEvEENS2_INS_19GrpcMessageMetadataEvEENS2_INS_12HostMetadataEvEENS2_INS_30EndpointLoadMetricsBinMetadataEvEENS2_INS_26GrpcServerStatsBinMetadataEvEENS2_INS_20GrpcTraceBinMetadataEvEENS2_INS_19GrpcTagsBinMetadataEvEENS2_INS_25GrpcLbClientStatsMetadataEvEENS2_INS_17LbCostBinMetadataEvEENS2_INS_15LbTokenMetadataEvEENS2_INS_22GrpcStreamNetworkStateEvEENS2_INS_10PeerStringEvEENS2_INS_17GrpcStatusContextEvEENS2_INS_12WaitForReadyEvEEEE3setILm14EJNS_5SliceEEEEPNS_12table_detail15TypeIndexStructIXT_EJS4_S6_S8_SA_SC_SE_SG_SI_SK_SM_SO_SQ_SS_SU_SW_SY_S10_S12_S14_S16_S18_S1A_S1C_S1E_S1G_S1I_S1K_S1M_EE4TypeEDpOT0_, symObjAddr: 0x7D4C, symBinAddr: 0xFB20, symSize: 0xE0 }
  - { offsetInCU: 0x7009D, offset: 0x113D96, size: 0x8, addend: 0x0, symName: __ZN9grpc_core15metadata_detail10NameLookupIvJNS_12HostMetadataENS_30EndpointLoadMetricsBinMetadataENS_26GrpcServerStatsBinMetadataENS_20GrpcTraceBinMetadataENS_19GrpcTagsBinMetadataENS_25GrpcLbClientStatsMetadataENS_17LbCostBinMetadataENS_15LbTokenMetadataENS_22GrpcStreamNetworkStateENS_10PeerStringENS_17GrpcStatusContextENS_12WaitForReadyEEE6LookupINS0_12AppendHelperI19grpc_metadata_batchEEEEDTclptfp0_5FoundcvS2__EEEN4absl12lts_2022062311string_viewEPT_, symObjAddr: 0x7EDC, symBinAddr: 0xFCB0, symSize: 0x28 }
  - { offsetInCU: 0x700D1, offset: 0x113DCA, size: 0x8, addend: 0x0, symName: __ZN9grpc_core15metadata_detail10NameLookupIvJNS_12HostMetadataENS_30EndpointLoadMetricsBinMetadataENS_26GrpcServerStatsBinMetadataENS_20GrpcTraceBinMetadataENS_19GrpcTagsBinMetadataENS_25GrpcLbClientStatsMetadataENS_17LbCostBinMetadataENS_15LbTokenMetadataENS_22GrpcStreamNetworkStateENS_10PeerStringENS_17GrpcStatusContextENS_12WaitForReadyEEE6LookupINS0_12AppendHelperI19grpc_metadata_batchEEEEDTclptfp0_5FoundcvS2__EEEN4absl12lts_2022062311string_viewEPT_, symObjAddr: 0x7EDC, symBinAddr: 0xFCB0, symSize: 0x28 }
  - { offsetInCU: 0x7011E, offset: 0x113E17, size: 0x8, addend: 0x0, symName: __ZN9grpc_core15metadata_detail12AppendHelperI19grpc_metadata_batchE5FoundINS_19GrpcMessageMetadataEEEvT_, symObjAddr: 0x7E2C, symBinAddr: 0xFC00, symSize: 0xB0 }
  - { offsetInCU: 0x70397, offset: 0x114090, size: 0x8, addend: 0x0, symName: __ZN9grpc_core5TableIJNS_15metadata_detail5ValueINS_16HttpPathMetadataEvEENS2_INS_21HttpAuthorityMetadataEvEENS2_INS_18HttpMethodMetadataEvEENS2_INS_18HttpStatusMetadataEvEENS2_INS_18HttpSchemeMetadataEvEENS2_INS_19ContentTypeMetadataEvEENS2_INS_10TeMetadataEvEENS2_INS_20GrpcEncodingMetadataEvEENS2_INS_27GrpcInternalEncodingRequestEvEENS2_INS_26GrpcAcceptEncodingMetadataEvEENS2_INS_18GrpcStatusMetadataEvEENS2_INS_19GrpcTimeoutMetadataEvEENS2_INS_31GrpcPreviousRpcAttemptsMetadataEvEENS2_INS_27GrpcRetryPushbackMsMetadataEvEENS2_INS_17UserAgentMetadataEvEENS2_INS_19GrpcMessageMetadataEvEENS2_INS_12HostMetadataEvEENS2_INS_30EndpointLoadMetricsBinMetadataEvEENS2_INS_26GrpcServerStatsBinMetadataEvEENS2_INS_20GrpcTraceBinMetadataEvEENS2_INS_19GrpcTagsBinMetadataEvEENS2_INS_25GrpcLbClientStatsMetadataEvEENS2_INS_17LbCostBinMetadataEvEENS2_INS_15LbTokenMetadataEvEENS2_INS_22GrpcStreamNetworkStateEvEENS2_INS_10PeerStringEvEENS2_INS_17GrpcStatusContextEvEENS2_INS_12WaitForReadyEvEEEE3setILm15EJNS_5SliceEEEEPNS_12table_detail15TypeIndexStructIXT_EJS4_S6_S8_SA_SC_SE_SG_SI_SK_SM_SO_SQ_SS_SU_SW_SY_S10_S12_S14_S16_S18_S1A_S1C_S1E_S1G_S1I_S1K_S1M_EE4TypeEDpOT0_, symObjAddr: 0x7F04, symBinAddr: 0xFCD8, symSize: 0xE0 }
  - { offsetInCU: 0x70935, offset: 0x11462E, size: 0x8, addend: 0x0, symName: __ZN9grpc_core15metadata_detail10NameLookupIvJNS_30EndpointLoadMetricsBinMetadataENS_26GrpcServerStatsBinMetadataENS_20GrpcTraceBinMetadataENS_19GrpcTagsBinMetadataENS_25GrpcLbClientStatsMetadataENS_17LbCostBinMetadataENS_15LbTokenMetadataENS_22GrpcStreamNetworkStateENS_10PeerStringENS_17GrpcStatusContextENS_12WaitForReadyEEE6LookupINS0_12AppendHelperI19grpc_metadata_batchEEEEDTclptfp0_5FoundcvS2__EEEN4absl12lts_2022062311string_viewEPT_, symObjAddr: 0x8094, symBinAddr: 0xFE68, symSize: 0x74 }
  - { offsetInCU: 0x70969, offset: 0x114662, size: 0x8, addend: 0x0, symName: __ZN9grpc_core15metadata_detail10NameLookupIvJNS_30EndpointLoadMetricsBinMetadataENS_26GrpcServerStatsBinMetadataENS_20GrpcTraceBinMetadataENS_19GrpcTagsBinMetadataENS_25GrpcLbClientStatsMetadataENS_17LbCostBinMetadataENS_15LbTokenMetadataENS_22GrpcStreamNetworkStateENS_10PeerStringENS_17GrpcStatusContextENS_12WaitForReadyEEE6LookupINS0_12AppendHelperI19grpc_metadata_batchEEEEDTclptfp0_5FoundcvS2__EEEN4absl12lts_2022062311string_viewEPT_, symObjAddr: 0x8094, symBinAddr: 0xFE68, symSize: 0x74 }
  - { offsetInCU: 0x709B6, offset: 0x1146AF, size: 0x8, addend: 0x0, symName: __ZN9grpc_core15metadata_detail12AppendHelperI19grpc_metadata_batchE5FoundINS_12HostMetadataEEEvT_, symObjAddr: 0x7FE4, symBinAddr: 0xFDB8, symSize: 0xB0 }
  - { offsetInCU: 0x70C2F, offset: 0x114928, size: 0x8, addend: 0x0, symName: __ZN9grpc_core5TableIJNS_15metadata_detail5ValueINS_16HttpPathMetadataEvEENS2_INS_21HttpAuthorityMetadataEvEENS2_INS_18HttpMethodMetadataEvEENS2_INS_18HttpStatusMetadataEvEENS2_INS_18HttpSchemeMetadataEvEENS2_INS_19ContentTypeMetadataEvEENS2_INS_10TeMetadataEvEENS2_INS_20GrpcEncodingMetadataEvEENS2_INS_27GrpcInternalEncodingRequestEvEENS2_INS_26GrpcAcceptEncodingMetadataEvEENS2_INS_18GrpcStatusMetadataEvEENS2_INS_19GrpcTimeoutMetadataEvEENS2_INS_31GrpcPreviousRpcAttemptsMetadataEvEENS2_INS_27GrpcRetryPushbackMsMetadataEvEENS2_INS_17UserAgentMetadataEvEENS2_INS_19GrpcMessageMetadataEvEENS2_INS_12HostMetadataEvEENS2_INS_30EndpointLoadMetricsBinMetadataEvEENS2_INS_26GrpcServerStatsBinMetadataEvEENS2_INS_20GrpcTraceBinMetadataEvEENS2_INS_19GrpcTagsBinMetadataEvEENS2_INS_25GrpcLbClientStatsMetadataEvEENS2_INS_17LbCostBinMetadataEvEENS2_INS_15LbTokenMetadataEvEENS2_INS_22GrpcStreamNetworkStateEvEENS2_INS_10PeerStringEvEENS2_INS_17GrpcStatusContextEvEENS2_INS_12WaitForReadyEvEEEE3setILm16EJNS_5SliceEEEEPNS_12table_detail15TypeIndexStructIXT_EJS4_S6_S8_SA_SC_SE_SG_SI_SK_SM_SO_SQ_SS_SU_SW_SY_S10_S12_S14_S16_S18_S1A_S1C_S1E_S1G_S1I_S1K_S1M_EE4TypeEDpOT0_, symObjAddr: 0x8108, symBinAddr: 0xFEDC, symSize: 0xE0 }
  - { offsetInCU: 0x711EB, offset: 0x114EE4, size: 0x8, addend: 0x0, symName: __ZN9grpc_core15metadata_detail10NameLookupIvJNS_26GrpcServerStatsBinMetadataENS_20GrpcTraceBinMetadataENS_19GrpcTagsBinMetadataENS_25GrpcLbClientStatsMetadataENS_17LbCostBinMetadataENS_15LbTokenMetadataENS_22GrpcStreamNetworkStateENS_10PeerStringENS_17GrpcStatusContextENS_12WaitForReadyEEE6LookupINS0_12AppendHelperI19grpc_metadata_batchEEEEDTclptfp0_5FoundcvS2__EEEN4absl12lts_2022062311string_viewEPT_, symObjAddr: 0x8298, symBinAddr: 0x1006C, symSize: 0x64 }
  - { offsetInCU: 0x7121F, offset: 0x114F18, size: 0x8, addend: 0x0, symName: __ZN9grpc_core15metadata_detail10NameLookupIvJNS_26GrpcServerStatsBinMetadataENS_20GrpcTraceBinMetadataENS_19GrpcTagsBinMetadataENS_25GrpcLbClientStatsMetadataENS_17LbCostBinMetadataENS_15LbTokenMetadataENS_22GrpcStreamNetworkStateENS_10PeerStringENS_17GrpcStatusContextENS_12WaitForReadyEEE6LookupINS0_12AppendHelperI19grpc_metadata_batchEEEEDTclptfp0_5FoundcvS2__EEEN4absl12lts_2022062311string_viewEPT_, symObjAddr: 0x8298, symBinAddr: 0x1006C, symSize: 0x64 }
  - { offsetInCU: 0x7126C, offset: 0x114F65, size: 0x8, addend: 0x0, symName: __ZN9grpc_core15metadata_detail12AppendHelperI19grpc_metadata_batchE5FoundINS_30EndpointLoadMetricsBinMetadataEEEvT_, symObjAddr: 0x81E8, symBinAddr: 0xFFBC, symSize: 0xB0 }
  - { offsetInCU: 0x714E5, offset: 0x1151DE, size: 0x8, addend: 0x0, symName: __ZN9grpc_core5TableIJNS_15metadata_detail5ValueINS_16HttpPathMetadataEvEENS2_INS_21HttpAuthorityMetadataEvEENS2_INS_18HttpMethodMetadataEvEENS2_INS_18HttpStatusMetadataEvEENS2_INS_18HttpSchemeMetadataEvEENS2_INS_19ContentTypeMetadataEvEENS2_INS_10TeMetadataEvEENS2_INS_20GrpcEncodingMetadataEvEENS2_INS_27GrpcInternalEncodingRequestEvEENS2_INS_26GrpcAcceptEncodingMetadataEvEENS2_INS_18GrpcStatusMetadataEvEENS2_INS_19GrpcTimeoutMetadataEvEENS2_INS_31GrpcPreviousRpcAttemptsMetadataEvEENS2_INS_27GrpcRetryPushbackMsMetadataEvEENS2_INS_17UserAgentMetadataEvEENS2_INS_19GrpcMessageMetadataEvEENS2_INS_12HostMetadataEvEENS2_INS_30EndpointLoadMetricsBinMetadataEvEENS2_INS_26GrpcServerStatsBinMetadataEvEENS2_INS_20GrpcTraceBinMetadataEvEENS2_INS_19GrpcTagsBinMetadataEvEENS2_INS_25GrpcLbClientStatsMetadataEvEENS2_INS_17LbCostBinMetadataEvEENS2_INS_15LbTokenMetadataEvEENS2_INS_22GrpcStreamNetworkStateEvEENS2_INS_10PeerStringEvEENS2_INS_17GrpcStatusContextEvEENS2_INS_12WaitForReadyEvEEEE3setILm17EJNS_5SliceEEEEPNS_12table_detail15TypeIndexStructIXT_EJS4_S6_S8_SA_SC_SE_SG_SI_SK_SM_SO_SQ_SS_SU_SW_SY_S10_S12_S14_S16_S18_S1A_S1C_S1E_S1G_S1I_S1K_S1M_EE4TypeEDpOT0_, symObjAddr: 0x82FC, symBinAddr: 0x100D0, symSize: 0xE0 }
  - { offsetInCU: 0x71883, offset: 0x11557C, size: 0x8, addend: 0x0, symName: __ZN9grpc_core15metadata_detail10NameLookupIvJNS_20GrpcTraceBinMetadataENS_19GrpcTagsBinMetadataENS_25GrpcLbClientStatsMetadataENS_17LbCostBinMetadataENS_15LbTokenMetadataENS_22GrpcStreamNetworkStateENS_10PeerStringENS_17GrpcStatusContextENS_12WaitForReadyEEE6LookupINS0_12AppendHelperI19grpc_metadata_batchEEEEDTclptfp0_5FoundcvS2__EEEN4absl12lts_2022062311string_viewEPT_, symObjAddr: 0x848C, symBinAddr: 0x10260, symSize: 0x4C }
  - { offsetInCU: 0x718B7, offset: 0x1155B0, size: 0x8, addend: 0x0, symName: __ZN9grpc_core15metadata_detail10NameLookupIvJNS_20GrpcTraceBinMetadataENS_19GrpcTagsBinMetadataENS_25GrpcLbClientStatsMetadataENS_17LbCostBinMetadataENS_15LbTokenMetadataENS_22GrpcStreamNetworkStateENS_10PeerStringENS_17GrpcStatusContextENS_12WaitForReadyEEE6LookupINS0_12AppendHelperI19grpc_metadata_batchEEEEDTclptfp0_5FoundcvS2__EEEN4absl12lts_2022062311string_viewEPT_, symObjAddr: 0x848C, symBinAddr: 0x10260, symSize: 0x4C }
  - { offsetInCU: 0x71904, offset: 0x1155FD, size: 0x8, addend: 0x0, symName: __ZN9grpc_core15metadata_detail12AppendHelperI19grpc_metadata_batchE5FoundINS_26GrpcServerStatsBinMetadataEEEvT_, symObjAddr: 0x83DC, symBinAddr: 0x101B0, symSize: 0xB0 }
  - { offsetInCU: 0x71B7D, offset: 0x115876, size: 0x8, addend: 0x0, symName: __ZN9grpc_core5TableIJNS_15metadata_detail5ValueINS_16HttpPathMetadataEvEENS2_INS_21HttpAuthorityMetadataEvEENS2_INS_18HttpMethodMetadataEvEENS2_INS_18HttpStatusMetadataEvEENS2_INS_18HttpSchemeMetadataEvEENS2_INS_19ContentTypeMetadataEvEENS2_INS_10TeMetadataEvEENS2_INS_20GrpcEncodingMetadataEvEENS2_INS_27GrpcInternalEncodingRequestEvEENS2_INS_26GrpcAcceptEncodingMetadataEvEENS2_INS_18GrpcStatusMetadataEvEENS2_INS_19GrpcTimeoutMetadataEvEENS2_INS_31GrpcPreviousRpcAttemptsMetadataEvEENS2_INS_27GrpcRetryPushbackMsMetadataEvEENS2_INS_17UserAgentMetadataEvEENS2_INS_19GrpcMessageMetadataEvEENS2_INS_12HostMetadataEvEENS2_INS_30EndpointLoadMetricsBinMetadataEvEENS2_INS_26GrpcServerStatsBinMetadataEvEENS2_INS_20GrpcTraceBinMetadataEvEENS2_INS_19GrpcTagsBinMetadataEvEENS2_INS_25GrpcLbClientStatsMetadataEvEENS2_INS_17LbCostBinMetadataEvEENS2_INS_15LbTokenMetadataEvEENS2_INS_22GrpcStreamNetworkStateEvEENS2_INS_10PeerStringEvEENS2_INS_17GrpcStatusContextEvEENS2_INS_12WaitForReadyEvEEEE3setILm18EJNS_5SliceEEEEPNS_12table_detail15TypeIndexStructIXT_EJS4_S6_S8_SA_SC_SE_SG_SI_SK_SM_SO_SQ_SS_SU_SW_SY_S10_S12_S14_S16_S18_S1A_S1C_S1E_S1G_S1I_S1K_S1M_EE4TypeEDpOT0_, symObjAddr: 0x84D8, symBinAddr: 0x102AC, symSize: 0xE0 }
  - { offsetInCU: 0x71F1B, offset: 0x115C14, size: 0x8, addend: 0x0, symName: __ZN9grpc_core15metadata_detail10NameLookupIvJNS_19GrpcTagsBinMetadataENS_25GrpcLbClientStatsMetadataENS_17LbCostBinMetadataENS_15LbTokenMetadataENS_22GrpcStreamNetworkStateENS_10PeerStringENS_17GrpcStatusContextENS_12WaitForReadyEEE6LookupINS0_12AppendHelperI19grpc_metadata_batchEEEEDTclptfp0_5FoundcvS2__EEEN4absl12lts_2022062311string_viewEPT_, symObjAddr: 0x8668, symBinAddr: 0x1043C, symSize: 0x4C }
  - { offsetInCU: 0x71F4F, offset: 0x115C48, size: 0x8, addend: 0x0, symName: __ZN9grpc_core15metadata_detail10NameLookupIvJNS_19GrpcTagsBinMetadataENS_25GrpcLbClientStatsMetadataENS_17LbCostBinMetadataENS_15LbTokenMetadataENS_22GrpcStreamNetworkStateENS_10PeerStringENS_17GrpcStatusContextENS_12WaitForReadyEEE6LookupINS0_12AppendHelperI19grpc_metadata_batchEEEEDTclptfp0_5FoundcvS2__EEEN4absl12lts_2022062311string_viewEPT_, symObjAddr: 0x8668, symBinAddr: 0x1043C, symSize: 0x4C }
  - { offsetInCU: 0x71F9C, offset: 0x115C95, size: 0x8, addend: 0x0, symName: __ZN9grpc_core15metadata_detail12AppendHelperI19grpc_metadata_batchE5FoundINS_20GrpcTraceBinMetadataEEEvT_, symObjAddr: 0x85B8, symBinAddr: 0x1038C, symSize: 0xB0 }
  - { offsetInCU: 0x72215, offset: 0x115F0E, size: 0x8, addend: 0x0, symName: __ZN9grpc_core5TableIJNS_15metadata_detail5ValueINS_16HttpPathMetadataEvEENS2_INS_21HttpAuthorityMetadataEvEENS2_INS_18HttpMethodMetadataEvEENS2_INS_18HttpStatusMetadataEvEENS2_INS_18HttpSchemeMetadataEvEENS2_INS_19ContentTypeMetadataEvEENS2_INS_10TeMetadataEvEENS2_INS_20GrpcEncodingMetadataEvEENS2_INS_27GrpcInternalEncodingRequestEvEENS2_INS_26GrpcAcceptEncodingMetadataEvEENS2_INS_18GrpcStatusMetadataEvEENS2_INS_19GrpcTimeoutMetadataEvEENS2_INS_31GrpcPreviousRpcAttemptsMetadataEvEENS2_INS_27GrpcRetryPushbackMsMetadataEvEENS2_INS_17UserAgentMetadataEvEENS2_INS_19GrpcMessageMetadataEvEENS2_INS_12HostMetadataEvEENS2_INS_30EndpointLoadMetricsBinMetadataEvEENS2_INS_26GrpcServerStatsBinMetadataEvEENS2_INS_20GrpcTraceBinMetadataEvEENS2_INS_19GrpcTagsBinMetadataEvEENS2_INS_25GrpcLbClientStatsMetadataEvEENS2_INS_17LbCostBinMetadataEvEENS2_INS_15LbTokenMetadataEvEENS2_INS_22GrpcStreamNetworkStateEvEENS2_INS_10PeerStringEvEENS2_INS_17GrpcStatusContextEvEENS2_INS_12WaitForReadyEvEEEE3setILm19EJNS_5SliceEEEEPNS_12table_detail15TypeIndexStructIXT_EJS4_S6_S8_SA_SC_SE_SG_SI_SK_SM_SO_SQ_SS_SU_SW_SY_S10_S12_S14_S16_S18_S1A_S1C_S1E_S1G_S1I_S1K_S1M_EE4TypeEDpOT0_, symObjAddr: 0x86B4, symBinAddr: 0x10488, symSize: 0xE0 }
  - { offsetInCU: 0x725B3, offset: 0x1162AC, size: 0x8, addend: 0x0, symName: __ZN9grpc_core15metadata_detail10NameLookupIvJNS_25GrpcLbClientStatsMetadataENS_17LbCostBinMetadataENS_15LbTokenMetadataENS_22GrpcStreamNetworkStateENS_10PeerStringENS_17GrpcStatusContextENS_12WaitForReadyEEE6LookupINS0_12AppendHelperI19grpc_metadata_batchEEEEDTclptfp0_5FoundcvS2__EEEN4absl12lts_2022062311string_viewEPT_, symObjAddr: 0x8844, symBinAddr: 0x10618, symSize: 0x64 }
  - { offsetInCU: 0x725E7, offset: 0x1162E0, size: 0x8, addend: 0x0, symName: __ZN9grpc_core15metadata_detail10NameLookupIvJNS_25GrpcLbClientStatsMetadataENS_17LbCostBinMetadataENS_15LbTokenMetadataENS_22GrpcStreamNetworkStateENS_10PeerStringENS_17GrpcStatusContextENS_12WaitForReadyEEE6LookupINS0_12AppendHelperI19grpc_metadata_batchEEEEDTclptfp0_5FoundcvS2__EEEN4absl12lts_2022062311string_viewEPT_, symObjAddr: 0x8844, symBinAddr: 0x10618, symSize: 0x64 }
  - { offsetInCU: 0x72634, offset: 0x11632D, size: 0x8, addend: 0x0, symName: __ZN9grpc_core15metadata_detail12AppendHelperI19grpc_metadata_batchE5FoundINS_19GrpcTagsBinMetadataEEEvT_, symObjAddr: 0x8794, symBinAddr: 0x10568, symSize: 0xB0 }
  - { offsetInCU: 0x728AD, offset: 0x1165A6, size: 0x8, addend: 0x0, symName: __ZN9grpc_core5TableIJNS_15metadata_detail5ValueINS_16HttpPathMetadataEvEENS2_INS_21HttpAuthorityMetadataEvEENS2_INS_18HttpMethodMetadataEvEENS2_INS_18HttpStatusMetadataEvEENS2_INS_18HttpSchemeMetadataEvEENS2_INS_19ContentTypeMetadataEvEENS2_INS_10TeMetadataEvEENS2_INS_20GrpcEncodingMetadataEvEENS2_INS_27GrpcInternalEncodingRequestEvEENS2_INS_26GrpcAcceptEncodingMetadataEvEENS2_INS_18GrpcStatusMetadataEvEENS2_INS_19GrpcTimeoutMetadataEvEENS2_INS_31GrpcPreviousRpcAttemptsMetadataEvEENS2_INS_27GrpcRetryPushbackMsMetadataEvEENS2_INS_17UserAgentMetadataEvEENS2_INS_19GrpcMessageMetadataEvEENS2_INS_12HostMetadataEvEENS2_INS_30EndpointLoadMetricsBinMetadataEvEENS2_INS_26GrpcServerStatsBinMetadataEvEENS2_INS_20GrpcTraceBinMetadataEvEENS2_INS_19GrpcTagsBinMetadataEvEENS2_INS_25GrpcLbClientStatsMetadataEvEENS2_INS_17LbCostBinMetadataEvEENS2_INS_15LbTokenMetadataEvEENS2_INS_22GrpcStreamNetworkStateEvEENS2_INS_10PeerStringEvEENS2_INS_17GrpcStatusContextEvEENS2_INS_12WaitForReadyEvEEEE3setILm20EJNS_5SliceEEEEPNS_12table_detail15TypeIndexStructIXT_EJS4_S6_S8_SA_SC_SE_SG_SI_SK_SM_SO_SQ_SS_SU_SW_SY_S10_S12_S14_S16_S18_S1A_S1C_S1E_S1G_S1I_S1K_S1M_EE4TypeEDpOT0_, symObjAddr: 0x88A8, symBinAddr: 0x1067C, symSize: 0xE0 }
  - { offsetInCU: 0x72C4B, offset: 0x116944, size: 0x8, addend: 0x0, symName: __ZN9grpc_core15metadata_detail10NameLookupIvJNS_17LbCostBinMetadataENS_15LbTokenMetadataENS_22GrpcStreamNetworkStateENS_10PeerStringENS_17GrpcStatusContextENS_12WaitForReadyEEE6LookupINS0_12AppendHelperI19grpc_metadata_batchEEEEDTclptfp0_5FoundcvS2__EEEN4absl12lts_2022062311string_viewEPT_, symObjAddr: 0x89C4, symBinAddr: 0x10798, symSize: 0x4C }
  - { offsetInCU: 0x72C7F, offset: 0x116978, size: 0x8, addend: 0x0, symName: __ZN9grpc_core15metadata_detail10NameLookupIvJNS_17LbCostBinMetadataENS_15LbTokenMetadataENS_22GrpcStreamNetworkStateENS_10PeerStringENS_17GrpcStatusContextENS_12WaitForReadyEEE6LookupINS0_12AppendHelperI19grpc_metadata_batchEEEEDTclptfp0_5FoundcvS2__EEEN4absl12lts_2022062311string_viewEPT_, symObjAddr: 0x89C4, symBinAddr: 0x10798, symSize: 0x4C }
  - { offsetInCU: 0x72CCC, offset: 0x1169C5, size: 0x8, addend: 0x0, symName: __ZN9grpc_core15metadata_detail12AppendHelperI19grpc_metadata_batchE5FoundINS_25GrpcLbClientStatsMetadataEEEvT_, symObjAddr: 0x8988, symBinAddr: 0x1075C, symSize: 0x3C }
  - { offsetInCU: 0x72F67, offset: 0x116C60, size: 0x8, addend: 0x0, symName: __ZN9grpc_core15metadata_detail10ParseValueIFPNS_17GrpcLbClientStatsENS_5SliceEN4absl12lts_2022062311FunctionRefIFvNS6_11string_viewERKS4_EEEEFS3_S3_EE5ParseIXadL_ZNS_25GrpcLbClientStatsMetadata12ParseMementoES4_SC_EEXadL_ZNSH_14MementoToValueES3_EEEEDTclT0_clT_clL_ZNSt3__14moveB7v160006IRS4_EEOu20__remove_reference_tIT_EOSL_Edefp_Efp0_EEEPS4_SC_, symObjAddr: 0x8A10, symBinAddr: 0x107E4, symSize: 0x4C }
  - { offsetInCU: 0x73093, offset: 0x116D8C, size: 0x8, addend: 0x0, symName: __ZN9grpc_core15metadata_detail10NameLookupIvJNS_15LbTokenMetadataENS_22GrpcStreamNetworkStateENS_10PeerStringENS_17GrpcStatusContextENS_12WaitForReadyEEE6LookupINS0_12AppendHelperI19grpc_metadata_batchEEEEDTclptfp0_5FoundcvS2__EEEN4absl12lts_2022062311string_viewEPT_, symObjAddr: 0x8AE8, symBinAddr: 0x108BC, symSize: 0x40 }
  - { offsetInCU: 0x731BB, offset: 0x116EB4, size: 0x8, addend: 0x0, symName: __ZN9grpc_core15metadata_detail12AppendHelperI19grpc_metadata_batchE5FoundINS_17LbCostBinMetadataEEEvT_, symObjAddr: 0x8A5C, symBinAddr: 0x10830, symSize: 0x8C }
  - { offsetInCU: 0x73A03, offset: 0x1176FC, size: 0x8, addend: 0x0, symName: __ZN9grpc_core15metadata_detail10ParseValueIFNS_17LbCostBinMetadata9ValueTypeENS_5SliceEN4absl12lts_2022062311FunctionRefIFvNS6_11string_viewERKS4_EEEEFS3_S3_EE5ParseIXadL_ZNS2_12ParseMementoES4_SC_EEXadL_ZNS2_14MementoToValueES3_EEEEDTclT0_clT_clL_ZNSt3__14moveB7v160006IRS4_EEOu20__remove_reference_tIT_EOSK_Edefp_Efp0_EEEPS4_SC_, symObjAddr: 0x8B28, symBinAddr: 0x108FC, symSize: 0xC8 }
  - { offsetInCU: 0x73C54, offset: 0x11794D, size: 0x8, addend: 0x0, symName: __ZN4absl12lts_2022062323inlined_vector_internal7StorageIN9grpc_core17LbCostBinMetadata9ValueTypeELm1ENSt3__19allocatorIS5_EEE11EmplaceBackIJS5_EEERS5_DpOT_, symObjAddr: 0x8BF0, symBinAddr: 0x109C4, symSize: 0x60 }
  - { offsetInCU: 0x73CB0, offset: 0x1179A9, size: 0x8, addend: 0x0, symName: __ZN4absl12lts_2022062323inlined_vector_internal7StorageIN9grpc_core17LbCostBinMetadata9ValueTypeELm1ENSt3__19allocatorIS5_EEE11EmplaceBackIJS5_EEERS5_DpOT_, symObjAddr: 0x8BF0, symBinAddr: 0x109C4, symSize: 0x60 }
  - { offsetInCU: 0x73CCD, offset: 0x1179C6, size: 0x8, addend: 0x0, symName: __ZN4absl12lts_2022062323inlined_vector_internal7StorageIN9grpc_core17LbCostBinMetadata9ValueTypeELm1ENSt3__19allocatorIS5_EEE11EmplaceBackIJS5_EEERS5_DpOT_, symObjAddr: 0x8BF0, symBinAddr: 0x109C4, symSize: 0x60 }
  - { offsetInCU: 0x73F4E, offset: 0x117C47, size: 0x8, addend: 0x0, symName: __ZN9grpc_core15metadata_detail12AppendHelperI19grpc_metadata_batchE8NotFoundEN4absl12lts_2022062311string_viewE, symObjAddr: 0x8F48, symBinAddr: 0x10D1C, symSize: 0xB8 }
  - { offsetInCU: 0x740BF, offset: 0x117DB8, size: 0x8, addend: 0x0, symName: __ZN9grpc_core15metadata_detail12AppendHelperI19grpc_metadata_batchE5FoundINS_15LbTokenMetadataEEEvT_, symObjAddr: 0x8DB8, symBinAddr: 0x10B8C, symSize: 0xB0 }
  - { offsetInCU: 0x74369, offset: 0x118062, size: 0x8, addend: 0x0, symName: __ZN4absl12lts_2022062323inlined_vector_internal7StorageIN9grpc_core17LbCostBinMetadata9ValueTypeELm1ENSt3__19allocatorIS5_EEE15EmplaceBackSlowIJS5_EEERS5_DpOT_, symObjAddr: 0x8C50, symBinAddr: 0x10A24, symSize: 0x134 }
  - { offsetInCU: 0x74DEB, offset: 0x118AE4, size: 0x8, addend: 0x0, symName: __ZN4absl12lts_2022062323inlined_vector_internal13MallocAdapterINSt3__19allocatorIN9grpc_core17LbCostBinMetadata9ValueTypeEEELb0EE8AllocateERS8_m, symObjAddr: 0x8D84, symBinAddr: 0x10B58, symSize: 0x34 }
  - { offsetInCU: 0x74EA9, offset: 0x118BA2, size: 0x8, addend: 0x0, symName: __ZN9grpc_core15metadata_detail12AppendHelperI19grpc_metadata_batchE5FoundINS_15LbTokenMetadataEEEvT_, symObjAddr: 0x8DB8, symBinAddr: 0x10B8C, symSize: 0xB0 }
  - { offsetInCU: 0x74F6F, offset: 0x118C68, size: 0x8, addend: 0x0, symName: __ZN9grpc_core5TableIJNS_15metadata_detail5ValueINS_16HttpPathMetadataEvEENS2_INS_21HttpAuthorityMetadataEvEENS2_INS_18HttpMethodMetadataEvEENS2_INS_18HttpStatusMetadataEvEENS2_INS_18HttpSchemeMetadataEvEENS2_INS_19ContentTypeMetadataEvEENS2_INS_10TeMetadataEvEENS2_INS_20GrpcEncodingMetadataEvEENS2_INS_27GrpcInternalEncodingRequestEvEENS2_INS_26GrpcAcceptEncodingMetadataEvEENS2_INS_18GrpcStatusMetadataEvEENS2_INS_19GrpcTimeoutMetadataEvEENS2_INS_31GrpcPreviousRpcAttemptsMetadataEvEENS2_INS_27GrpcRetryPushbackMsMetadataEvEENS2_INS_17UserAgentMetadataEvEENS2_INS_19GrpcMessageMetadataEvEENS2_INS_12HostMetadataEvEENS2_INS_30EndpointLoadMetricsBinMetadataEvEENS2_INS_26GrpcServerStatsBinMetadataEvEENS2_INS_20GrpcTraceBinMetadataEvEENS2_INS_19GrpcTagsBinMetadataEvEENS2_INS_25GrpcLbClientStatsMetadataEvEENS2_INS_17LbCostBinMetadataEvEENS2_INS_15LbTokenMetadataEvEENS2_INS_22GrpcStreamNetworkStateEvEENS2_INS_10PeerStringEvEENS2_INS_17GrpcStatusContextEvEENS2_INS_12WaitForReadyEvEEEE3setILm23EJNS_5SliceEEEEPNS_12table_detail15TypeIndexStructIXT_EJS4_S6_S8_SA_SC_SE_SG_SI_SK_SM_SO_SQ_SS_SU_SW_SY_S10_S12_S14_S16_S18_S1A_S1C_S1E_S1G_S1I_S1K_S1M_EE4TypeEDpOT0_, symObjAddr: 0x8E68, symBinAddr: 0x10C3C, symSize: 0xE0 }
  - { offsetInCU: 0x755E4, offset: 0x1192DD, size: 0x8, addend: 0x0, symName: '__ZNSt3__110__function6__funcIZL24perform_stream_op_lockedPvN4absl12lts_202206236StatusEE3$_4NS_9allocatorIS6_EEFvNS4_8StatusOrINS_12basic_stringIcNS_11char_traitsIcEENS7_IcEEEEEEEED1Ev', symObjAddr: 0x9150, symBinAddr: 0x10EDC, symSize: 0x4 }
  - { offsetInCU: 0x75610, offset: 0x119309, size: 0x8, addend: 0x0, symName: '__ZNSt3__110__function6__funcIZL24perform_stream_op_lockedPvN4absl12lts_202206236StatusEE3$_4NS_9allocatorIS6_EEFvNS4_8StatusOrINS_12basic_stringIcNS_11char_traitsIcEENS7_IcEEEEEEEED0Ev', symObjAddr: 0x9154, symBinAddr: 0x10EE0, symSize: 0x4 }
  - { offsetInCU: 0x757FD, offset: 0x1194F6, size: 0x8, addend: 0x0, symName: '__ZNKSt3__110__function6__funcIZL24perform_stream_op_lockedPvN4absl12lts_202206236StatusEE3$_4NS_9allocatorIS6_EEFvNS4_8StatusOrINS_12basic_stringIcNS_11char_traitsIcEENS7_IcEEEEEEEE7__cloneEv', symObjAddr: 0x9158, symBinAddr: 0x10EE4, symSize: 0x40 }
  - { offsetInCU: 0x75B35, offset: 0x11982E, size: 0x8, addend: 0x0, symName: '__ZNKSt3__110__function6__funcIZL24perform_stream_op_lockedPvN4absl12lts_202206236StatusEE3$_4NS_9allocatorIS6_EEFvNS4_8StatusOrINS_12basic_stringIcNS_11char_traitsIcEENS7_IcEEEEEEEE7__cloneEPNS0_6__baseISG_EE', symObjAddr: 0x9198, symBinAddr: 0x10F24, symSize: 0x20 }
  - { offsetInCU: 0x75B6E, offset: 0x119867, size: 0x8, addend: 0x0, symName: '__ZNKSt3__110__function6__funcIZL24perform_stream_op_lockedPvN4absl12lts_202206236StatusEE3$_4NS_9allocatorIS6_EEFvNS4_8StatusOrINS_12basic_stringIcNS_11char_traitsIcEENS7_IcEEEEEEEE7__cloneEPNS0_6__baseISG_EE', symObjAddr: 0x9198, symBinAddr: 0x10F24, symSize: 0x20 }
  - { offsetInCU: 0x75B9D, offset: 0x119896, size: 0x8, addend: 0x0, symName: '__ZNKSt3__110__function6__funcIZL24perform_stream_op_lockedPvN4absl12lts_202206236StatusEE3$_4NS_9allocatorIS6_EEFvNS4_8StatusOrINS_12basic_stringIcNS_11char_traitsIcEENS7_IcEEEEEEEE7__cloneEPNS0_6__baseISG_EE', symObjAddr: 0x9198, symBinAddr: 0x10F24, symSize: 0x20 }
  - { offsetInCU: 0x75CB4, offset: 0x1199AD, size: 0x8, addend: 0x0, symName: '__ZNSt3__110__function6__funcIZL24perform_stream_op_lockedPvN4absl12lts_202206236StatusEE3$_4NS_9allocatorIS6_EEFvNS4_8StatusOrINS_12basic_stringIcNS_11char_traitsIcEENS7_IcEEEEEEEE7destroyEv', symObjAddr: 0x91B8, symBinAddr: 0x10F44, symSize: 0x4 }
  - { offsetInCU: 0x75D07, offset: 0x119A00, size: 0x8, addend: 0x0, symName: '__ZNSt3__110__function6__funcIZL24perform_stream_op_lockedPvN4absl12lts_202206236StatusEE3$_4NS_9allocatorIS6_EEFvNS4_8StatusOrINS_12basic_stringIcNS_11char_traitsIcEENS7_IcEEEEEEEE18destroy_deallocateEv', symObjAddr: 0x91BC, symBinAddr: 0x10F48, symSize: 0x4 }
  - { offsetInCU: 0x75D3E, offset: 0x119A37, size: 0x8, addend: 0x0, symName: '__ZNSt3__110__function6__funcIZL24perform_stream_op_lockedPvN4absl12lts_202206236StatusEE3$_4NS_9allocatorIS6_EEFvNS4_8StatusOrINS_12basic_stringIcNS_11char_traitsIcEENS7_IcEEEEEEEE18destroy_deallocateEv', symObjAddr: 0x91BC, symBinAddr: 0x10F48, symSize: 0x4 }
  - { offsetInCU: 0x75D62, offset: 0x119A5B, size: 0x8, addend: 0x0, symName: '__ZNSt3__110__function6__funcIZL24perform_stream_op_lockedPvN4absl12lts_202206236StatusEE3$_4NS_9allocatorIS6_EEFvNS4_8StatusOrINS_12basic_stringIcNS_11char_traitsIcEENS7_IcEEEEEEEE18destroy_deallocateEv', symObjAddr: 0x91BC, symBinAddr: 0x10F48, symSize: 0x4 }
  - { offsetInCU: 0x75D8E, offset: 0x119A87, size: 0x8, addend: 0x0, symName: '__ZNSt3__110__function6__funcIZL24perform_stream_op_lockedPvN4absl12lts_202206236StatusEE3$_4NS_9allocatorIS6_EEFvNS4_8StatusOrINS_12basic_stringIcNS_11char_traitsIcEENS7_IcEEEEEEEE18destroy_deallocateEv', symObjAddr: 0x91BC, symBinAddr: 0x10F48, symSize: 0x4 }
  - { offsetInCU: 0x75DB5, offset: 0x119AAE, size: 0x8, addend: 0x0, symName: '__ZNSt3__110__function6__funcIZL24perform_stream_op_lockedPvN4absl12lts_202206236StatusEE3$_4NS_9allocatorIS6_EEFvNS4_8StatusOrINS_12basic_stringIcNS_11char_traitsIcEENS7_IcEEEEEEEE18destroy_deallocateEv', symObjAddr: 0x91BC, symBinAddr: 0x10F48, symSize: 0x4 }
  - { offsetInCU: 0x75F6E, offset: 0x119C67, size: 0x8, addend: 0x0, symName: '__ZNSt3__110__function6__funcIZL24perform_stream_op_lockedPvN4absl12lts_202206236StatusEE3$_4NS_9allocatorIS6_EEFvNS4_8StatusOrINS_12basic_stringIcNS_11char_traitsIcEENS7_IcEEEEEEEEclEOSF_', symObjAddr: 0x91C0, symBinAddr: 0x10F4C, symSize: 0x120 }
  - { offsetInCU: 0x76537, offset: 0x11A230, size: 0x8, addend: 0x0, symName: __ZN4absl12lts_2022062317internal_statusor12StatusOrDataINSt3__112basic_stringIcNS3_11char_traitsIcEENS3_9allocatorIcEEEEEaSEOSA_, symObjAddr: 0x9664, symBinAddr: 0x113F0, symSize: 0x48 }
  - { offsetInCU: 0x765D3, offset: 0x11A2CC, size: 0x8, addend: 0x0, symName: '__ZNKSt3__110__function6__funcIZL24perform_stream_op_lockedPvN4absl12lts_202206236StatusEE3$_4NS_9allocatorIS6_EEFvNS4_8StatusOrINS_12basic_stringIcNS_11char_traitsIcEENS7_IcEEEEEEEE6targetERKSt9type_info', symObjAddr: 0x92E0, symBinAddr: 0x1106C, symSize: 0x3C }
  - { offsetInCU: 0x76623, offset: 0x11A31C, size: 0x8, addend: 0x0, symName: '__ZNKSt3__110__function6__funcIZL24perform_stream_op_lockedPvN4absl12lts_202206236StatusEE3$_4NS_9allocatorIS6_EEFvNS4_8StatusOrINS_12basic_stringIcNS_11char_traitsIcEENS7_IcEEEEEEEE11target_typeEv', symObjAddr: 0x931C, symBinAddr: 0x110A8, symSize: 0xC }
  - { offsetInCU: 0x76648, offset: 0x11A341, size: 0x8, addend: 0x0, symName: __ZL19recv_message_lockedPvN4absl12lts_202206236StatusE, symObjAddr: 0x9328, symBinAddr: 0x110B4, symSize: 0x33C }
  - { offsetInCU: 0x773A3, offset: 0x11B09C, size: 0x8, addend: 0x0, symName: __ZN4absl12lts_2022062317optional_internal18optional_data_baseIN9grpc_core11SliceBufferEE6assignIS4_EEvOT_, symObjAddr: 0x9804, symBinAddr: 0x11590, symSize: 0x3C }
  - { offsetInCU: 0x7746C, offset: 0x11B165, size: 0x8, addend: 0x0, symName: __ZL19recv_message_lockedPvN4absl12lts_202206236StatusE.cold.1, symObjAddr: 0xB9E8, symBinAddr: 0x4D054, symSize: 0x34 }
  - { offsetInCU: 0x7749A, offset: 0x11B193, size: 0x8, addend: 0x0, symName: __ZL19recv_message_lockedPvN4absl12lts_202206236StatusE.cold.2, symObjAddr: 0xBA1C, symBinAddr: 0x4D088, symSize: 0x34 }
  - { offsetInCU: 0x774C8, offset: 0x11B1C1, size: 0x8, addend: 0x0, symName: __ZN4absl12lts_2022062317internal_statusor12StatusOrDataINSt3__112basic_stringIcNS3_11char_traitsIcEENS3_9allocatorIcEEEEE12AssignStatusINS0_6StatusEEEvOT_, symObjAddr: 0x9754, symBinAddr: 0x114E0, symSize: 0xB0 }
  - { offsetInCU: 0x777D7, offset: 0x11B4D0, size: 0x8, addend: 0x0, symName: __ZN4absl12lts_2022062317internal_statusor12StatusOrDataINSt3__112basic_stringIcNS3_11char_traitsIcEENS3_9allocatorIcEEEEE6AssignIS9_EEvOT_, symObjAddr: 0x96AC, symBinAddr: 0x11438, symSize: 0xA8 }
  - { offsetInCU: 0x77BCA, offset: 0x11B8C3, size: 0x8, addend: 0x0, symName: __ZN9grpc_core11SliceBufferC2EOS0_, symObjAddr: 0x9840, symBinAddr: 0x115CC, symSize: 0x38 }
  - { offsetInCU: 0x77C37, offset: 0x11B930, size: 0x8, addend: 0x0, symName: '__ZNSt3__110__function6__funcIZL24perform_stream_op_lockedPvN4absl12lts_202206236StatusEE3$_5NS_9allocatorIS6_EEFvNS4_8StatusOrINS_6vectorINS_4pairINS_12basic_stringIcNS_11char_traitsIcEENS7_IcEEEESG_EENS7_ISH_EEEEEEiEED1Ev', symObjAddr: 0x9878, symBinAddr: 0x11604, symSize: 0x4 }
  - { offsetInCU: 0x77C63, offset: 0x11B95C, size: 0x8, addend: 0x0, symName: '__ZNSt3__110__function6__funcIZL24perform_stream_op_lockedPvN4absl12lts_202206236StatusEE3$_5NS_9allocatorIS6_EEFvNS4_8StatusOrINS_6vectorINS_4pairINS_12basic_stringIcNS_11char_traitsIcEENS7_IcEEEESG_EENS7_ISH_EEEEEEiEED0Ev', symObjAddr: 0x987C, symBinAddr: 0x11608, symSize: 0x4 }
  - { offsetInCU: 0x77E50, offset: 0x11BB49, size: 0x8, addend: 0x0, symName: '__ZNKSt3__110__function6__funcIZL24perform_stream_op_lockedPvN4absl12lts_202206236StatusEE3$_5NS_9allocatorIS6_EEFvNS4_8StatusOrINS_6vectorINS_4pairINS_12basic_stringIcNS_11char_traitsIcEENS7_IcEEEESG_EENS7_ISH_EEEEEEiEE7__cloneEv', symObjAddr: 0x9880, symBinAddr: 0x1160C, symSize: 0x40 }
  - { offsetInCU: 0x78188, offset: 0x11BE81, size: 0x8, addend: 0x0, symName: '__ZNKSt3__110__function6__funcIZL24perform_stream_op_lockedPvN4absl12lts_202206236StatusEE3$_5NS_9allocatorIS6_EEFvNS4_8StatusOrINS_6vectorINS_4pairINS_12basic_stringIcNS_11char_traitsIcEENS7_IcEEEESG_EENS7_ISH_EEEEEEiEE7__cloneEPNS0_6__baseISL_EE', symObjAddr: 0x98C0, symBinAddr: 0x1164C, symSize: 0x20 }
  - { offsetInCU: 0x781C1, offset: 0x11BEBA, size: 0x8, addend: 0x0, symName: '__ZNKSt3__110__function6__funcIZL24perform_stream_op_lockedPvN4absl12lts_202206236StatusEE3$_5NS_9allocatorIS6_EEFvNS4_8StatusOrINS_6vectorINS_4pairINS_12basic_stringIcNS_11char_traitsIcEENS7_IcEEEESG_EENS7_ISH_EEEEEEiEE7__cloneEPNS0_6__baseISL_EE', symObjAddr: 0x98C0, symBinAddr: 0x1164C, symSize: 0x20 }
  - { offsetInCU: 0x781F0, offset: 0x11BEE9, size: 0x8, addend: 0x0, symName: '__ZNKSt3__110__function6__funcIZL24perform_stream_op_lockedPvN4absl12lts_202206236StatusEE3$_5NS_9allocatorIS6_EEFvNS4_8StatusOrINS_6vectorINS_4pairINS_12basic_stringIcNS_11char_traitsIcEENS7_IcEEEESG_EENS7_ISH_EEEEEEiEE7__cloneEPNS0_6__baseISL_EE', symObjAddr: 0x98C0, symBinAddr: 0x1164C, symSize: 0x20 }
  - { offsetInCU: 0x78307, offset: 0x11C000, size: 0x8, addend: 0x0, symName: '__ZNSt3__110__function6__funcIZL24perform_stream_op_lockedPvN4absl12lts_202206236StatusEE3$_5NS_9allocatorIS6_EEFvNS4_8StatusOrINS_6vectorINS_4pairINS_12basic_stringIcNS_11char_traitsIcEENS7_IcEEEESG_EENS7_ISH_EEEEEEiEE7destroyEv', symObjAddr: 0x98E0, symBinAddr: 0x1166C, symSize: 0x4 }
  - { offsetInCU: 0x7835A, offset: 0x11C053, size: 0x8, addend: 0x0, symName: '__ZNSt3__110__function6__funcIZL24perform_stream_op_lockedPvN4absl12lts_202206236StatusEE3$_5NS_9allocatorIS6_EEFvNS4_8StatusOrINS_6vectorINS_4pairINS_12basic_stringIcNS_11char_traitsIcEENS7_IcEEEESG_EENS7_ISH_EEEEEEiEE18destroy_deallocateEv', symObjAddr: 0x98E4, symBinAddr: 0x11670, symSize: 0x4 }
  - { offsetInCU: 0x78391, offset: 0x11C08A, size: 0x8, addend: 0x0, symName: '__ZNSt3__110__function6__funcIZL24perform_stream_op_lockedPvN4absl12lts_202206236StatusEE3$_5NS_9allocatorIS6_EEFvNS4_8StatusOrINS_6vectorINS_4pairINS_12basic_stringIcNS_11char_traitsIcEENS7_IcEEEESG_EENS7_ISH_EEEEEEiEE18destroy_deallocateEv', symObjAddr: 0x98E4, symBinAddr: 0x11670, symSize: 0x4 }
  - { offsetInCU: 0x783B5, offset: 0x11C0AE, size: 0x8, addend: 0x0, symName: '__ZNSt3__110__function6__funcIZL24perform_stream_op_lockedPvN4absl12lts_202206236StatusEE3$_5NS_9allocatorIS6_EEFvNS4_8StatusOrINS_6vectorINS_4pairINS_12basic_stringIcNS_11char_traitsIcEENS7_IcEEEESG_EENS7_ISH_EEEEEEiEE18destroy_deallocateEv', symObjAddr: 0x98E4, symBinAddr: 0x11670, symSize: 0x4 }
  - { offsetInCU: 0x783E1, offset: 0x11C0DA, size: 0x8, addend: 0x0, symName: '__ZNSt3__110__function6__funcIZL24perform_stream_op_lockedPvN4absl12lts_202206236StatusEE3$_5NS_9allocatorIS6_EEFvNS4_8StatusOrINS_6vectorINS_4pairINS_12basic_stringIcNS_11char_traitsIcEENS7_IcEEEESG_EENS7_ISH_EEEEEEiEE18destroy_deallocateEv', symObjAddr: 0x98E4, symBinAddr: 0x11670, symSize: 0x4 }
  - { offsetInCU: 0x78408, offset: 0x11C101, size: 0x8, addend: 0x0, symName: '__ZNSt3__110__function6__funcIZL24perform_stream_op_lockedPvN4absl12lts_202206236StatusEE3$_5NS_9allocatorIS6_EEFvNS4_8StatusOrINS_6vectorINS_4pairINS_12basic_stringIcNS_11char_traitsIcEENS7_IcEEEESG_EENS7_ISH_EEEEEEiEE18destroy_deallocateEv', symObjAddr: 0x98E4, symBinAddr: 0x11670, symSize: 0x4 }
  - { offsetInCU: 0x784ED, offset: 0x11C1E6, size: 0x8, addend: 0x0, symName: '__ZNSt3__110__function6__funcIZL24perform_stream_op_lockedPvN4absl12lts_202206236StatusEE3$_5NS_9allocatorIS6_EEFvNS4_8StatusOrINS_6vectorINS_4pairINS_12basic_stringIcNS_11char_traitsIcEENS7_IcEEEESG_EENS7_ISH_EEEEEEiEEclEOSK_Oi', symObjAddr: 0x98E8, symBinAddr: 0x11674, symSize: 0x12C }
  - { offsetInCU: 0x78AB1, offset: 0x11C7AA, size: 0x8, addend: 0x0, symName: '__ZNKSt3__110__function6__funcIZL24perform_stream_op_lockedPvN4absl12lts_202206236StatusEE3$_5NS_9allocatorIS6_EEFvNS4_8StatusOrINS_6vectorINS_4pairINS_12basic_stringIcNS_11char_traitsIcEENS7_IcEEEESG_EENS7_ISH_EEEEEEiEE6targetERKSt9type_info', symObjAddr: 0x9A14, symBinAddr: 0x117A0, symSize: 0x3C }
  - { offsetInCU: 0x78B01, offset: 0x11C7FA, size: 0x8, addend: 0x0, symName: '__ZNKSt3__110__function6__funcIZL24perform_stream_op_lockedPvN4absl12lts_202206236StatusEE3$_5NS_9allocatorIS6_EEFvNS4_8StatusOrINS_6vectorINS_4pairINS_12basic_stringIcNS_11char_traitsIcEENS7_IcEEEESG_EENS7_ISH_EEEEEEiEE11target_typeEv', symObjAddr: 0x9A50, symBinAddr: 0x117DC, symSize: 0xC }
  - { offsetInCU: 0x78B26, offset: 0x11C81F, size: 0x8, addend: 0x0, symName: __ZL29recv_trailing_metadata_lockedPvN4absl12lts_202206236StatusE, symObjAddr: 0x9A5C, symBinAddr: 0x117E8, symSize: 0x234 }
  - { offsetInCU: 0x791C6, offset: 0x11CEBF, size: 0x8, addend: 0x0, symName: __ZNR4absl12lts_202206238StatusOrINSt3__16vectorINS2_4pairINS2_12basic_stringIcNS2_11char_traitsIcEENS2_9allocatorIcEEEESA_EENS8_ISB_EEEEE5valueEv, symObjAddr: 0x9C90, symBinAddr: 0x11A1C, symSize: 0x68 }
  - { offsetInCU: 0x79325, offset: 0x11D01E, size: 0x8, addend: 0x0, symName: __ZL29recv_trailing_metadata_lockedPvN4absl12lts_202206236StatusE.cold.1, symObjAddr: 0xBA50, symBinAddr: 0x4D0BC, symSize: 0x34 }
  - { offsetInCU: 0x79354, offset: 0x11D04D, size: 0x8, addend: 0x0, symName: __ZL29recv_trailing_metadata_lockedPvN4absl12lts_202206236StatusE.cold.2, symObjAddr: 0xBA84, symBinAddr: 0x4D0F0, symSize: 0x34 }
  - { offsetInCU: 0x7956C, offset: 0x11D265, size: 0x8, addend: 0x0, symName: __ZL27perform_transport_op_lockedPvN4absl12lts_202206236StatusE, symObjAddr: 0x9CF8, symBinAddr: 0x11A84, symSize: 0x124 }
  - { offsetInCU: 0x799BB, offset: 0x11D6B4, size: 0x8, addend: 0x0, symName: __ZL22close_transport_lockedP21grpc_binder_transport, symObjAddr: 0x9E1C, symBinAddr: 0x11BA8, symSize: 0x158 }
  - { offsetInCU: 0x79DB9, offset: 0x11DAB2, size: 0x8, addend: 0x0, symName: __ZL27grpc_binder_unref_transportP21grpc_binder_transportPKcS2_i, symObjAddr: 0x9F74, symBinAddr: 0x11D00, symSize: 0x5C }
  - { offsetInCU: 0x79F2F, offset: 0x11DC28, size: 0x8, addend: 0x0, symName: __ZN4absl12lts_2022062318container_internal12raw_hash_setINS1_17FlatHashMapPolicyIiP18grpc_binder_streamEENS0_13hash_internal4HashIiEENSt3__18equal_toIiEENSA_9allocatorINSA_4pairIKiS5_EEEEE5beginEv, symObjAddr: 0x9FD0, symBinAddr: 0x11D5C, symSize: 0x64 }
  - { offsetInCU: 0x7A0A6, offset: 0x11DD9F, size: 0x8, addend: 0x0, symName: __ZNK4absl12lts_2022062318container_internal12raw_hash_setINS1_17FlatHashMapPolicyIiP18grpc_binder_streamEENS0_13hash_internal4HashIiEENSt3__18equal_toIiEENSA_9allocatorINSA_4pairIKiS5_EEEEE8iteratorptEv, symObjAddr: 0xA034, symBinAddr: 0x11DC0, symSize: 0x24 }
  - { offsetInCU: 0x7A0B1, offset: 0x11DDAA, size: 0x8, addend: 0x0, symName: __ZNK4absl12lts_2022062318container_internal12raw_hash_setINS1_17FlatHashMapPolicyIiP18grpc_binder_streamEENS0_13hash_internal4HashIiEENSt3__18equal_toIiEENSA_9allocatorINSA_4pairIKiS5_EEEEE8iteratorptEv, symObjAddr: 0xA034, symBinAddr: 0x11DC0, symSize: 0x24 }
  - { offsetInCU: 0x7A115, offset: 0x11DE0E, size: 0x8, addend: 0x0, symName: __ZL21destroy_stream_lockedPvN4absl12lts_202206236StatusE, symObjAddr: 0xA058, symBinAddr: 0x11DE4, symSize: 0xE8 }
  - { offsetInCU: 0x7A1DA, offset: 0x11DED3, size: 0x8, addend: 0x0, symName: __ZN4absl12lts_2022062318container_internal12raw_hash_setINS1_17FlatHashMapPolicyIiP18grpc_binder_streamEENS0_13hash_internal4HashIiEENSt3__18equal_toIiEENSA_9allocatorINSA_4pairIKiS5_EEEEE5beginEv.cold.1, symObjAddr: 0xBAB8, symBinAddr: 0x4D124, symSize: 0x24 }
  - { offsetInCU: 0x7A260, offset: 0x11DF59, size: 0x8, addend: 0x0, symName: __ZNK4absl12lts_2022062318container_internal12raw_hash_setINS1_17FlatHashMapPolicyIiP18grpc_binder_streamEENS0_13hash_internal4HashIiEENSt3__18equal_toIiEENSA_9allocatorINSA_4pairIKiS5_EEEEE8iteratorptEv.cold.1, symObjAddr: 0xBADC, symBinAddr: 0x4D148, symSize: 0x28 }
  - { offsetInCU: 0x7A2A9, offset: 0x11DFA2, size: 0x8, addend: 0x0, symName: __ZL21destroy_stream_lockedPvN4absl12lts_202206236StatusE, symObjAddr: 0xA058, symBinAddr: 0x11DE4, symSize: 0xE8 }
  - { offsetInCU: 0x7A5EC, offset: 0x11E2E5, size: 0x8, addend: 0x0, symName: __ZN18grpc_binder_streamD2Ev, symObjAddr: 0xA140, symBinAddr: 0x11ECC, symSize: 0x8C }
  - { offsetInCU: 0x7A9FD, offset: 0x11E6F6, size: 0x8, addend: 0x0, symName: __ZL24destroy_transport_lockedPvN4absl12lts_202206236StatusE, symObjAddr: 0xA1CC, symBinAddr: 0x11F58, symSize: 0xE8 }
  - { offsetInCU: 0x7AD13, offset: 0x11EA0C, size: 0x8, addend: 0x0, symName: __ZNSt3__110shared_ptrIN11grpc_binder23TransportStreamReceiverEEaSB7v160006EOS3_, symObjAddr: 0xA338, symBinAddr: 0x12040, symSize: 0x64 }
  - { offsetInCU: 0x7AEC6, offset: 0x11EBBF, size: 0x8, addend: 0x0, symName: __ZN4absl12lts_2022062318container_internal12raw_hash_setINS1_17FlatHashMapPolicyIiP18grpc_binder_streamEENS0_13hash_internal4HashIiEENSt3__18equal_toIiEENSA_9allocatorINSA_4pairIKiS5_EEEEE13destroy_slotsEv.cold.1, symObjAddr: 0xBB04, symBinAddr: 0x4D170, symSize: 0x24 }
  - { offsetInCU: 0x7AF29, offset: 0x11EC22, size: 0x8, addend: 0x0, symName: __ZNSt3__120__shared_ptr_emplaceIN11grpc_binder27TransportStreamReceiverImplENS_9allocatorIS2_EEED1Ev, symObjAddr: 0xA524, symBinAddr: 0x12224, symSize: 0x14 }
  - { offsetInCU: 0x7AF4C, offset: 0x11EC45, size: 0x8, addend: 0x0, symName: __ZNSt3__120__shared_ptr_emplaceIN11grpc_binder27TransportStreamReceiverImplENS_9allocatorIS2_EEED1Ev, symObjAddr: 0xA524, symBinAddr: 0x12224, symSize: 0x14 }
  - { offsetInCU: 0x7AF84, offset: 0x11EC7D, size: 0x8, addend: 0x0, symName: __ZNSt3__120__shared_ptr_emplaceIN11grpc_binder27TransportStreamReceiverImplENS_9allocatorIS2_EEED0Ev, symObjAddr: 0xA538, symBinAddr: 0x12238, symSize: 0x24 }
  - { offsetInCU: 0x7AFEC, offset: 0x11ECE5, size: 0x8, addend: 0x0, symName: __ZNSt3__120__shared_ptr_emplaceIN11grpc_binder27TransportStreamReceiverImplENS_9allocatorIS2_EEE16__on_zero_sharedEv, symObjAddr: 0xA55C, symBinAddr: 0x1225C, symSize: 0xC }
  - { offsetInCU: 0x7B07B, offset: 0x11ED74, size: 0x8, addend: 0x0, symName: __ZNSt3__120__shared_ptr_emplaceIN11grpc_binder27TransportStreamReceiverImplENS_9allocatorIS2_EEE21__on_zero_shared_weakEv, symObjAddr: 0xA568, symBinAddr: 0x12268, symSize: 0x4 }
  - { offsetInCU: 0x7B0B0, offset: 0x11EDA9, size: 0x8, addend: 0x0, symName: __ZNSt3__120__shared_ptr_emplaceIN11grpc_binder27TransportStreamReceiverImplENS_9allocatorIS2_EEE21__on_zero_shared_weakEv, symObjAddr: 0xA568, symBinAddr: 0x12268, symSize: 0x4 }
  - { offsetInCU: 0x7B0D4, offset: 0x11EDCD, size: 0x8, addend: 0x0, symName: __ZNSt3__120__shared_ptr_emplaceIN11grpc_binder27TransportStreamReceiverImplENS_9allocatorIS2_EEE21__on_zero_shared_weakEv, symObjAddr: 0xA568, symBinAddr: 0x12268, symSize: 0x4 }
  - { offsetInCU: 0x7B0F8, offset: 0x11EDF1, size: 0x8, addend: 0x0, symName: __ZNSt3__120__shared_ptr_emplaceIN11grpc_binder27TransportStreamReceiverImplENS_9allocatorIS2_EEE21__on_zero_shared_weakEv, symObjAddr: 0xA568, symBinAddr: 0x12268, symSize: 0x4 }
  - { offsetInCU: 0x7B126, offset: 0x11EE1F, size: 0x8, addend: 0x0, symName: __ZNSt3__120__shared_ptr_emplaceIN11grpc_binder27TransportStreamReceiverImplENS_9allocatorIS2_EEE21__on_zero_shared_weakEv, symObjAddr: 0xA568, symBinAddr: 0x12268, symSize: 0x4 }
  - { offsetInCU: 0x7B14F, offset: 0x11EE48, size: 0x8, addend: 0x0, symName: __ZNSt3__120__shared_ptr_emplaceIN11grpc_binder27TransportStreamReceiverImplENS_9allocatorIS2_EEE21__on_zero_shared_weakEv, symObjAddr: 0xA568, symBinAddr: 0x12268, symSize: 0x4 }
  - { offsetInCU: 0x7B17A, offset: 0x11EE73, size: 0x8, addend: 0x0, symName: '__ZNSt3__110__function6__funcIZN21grpc_binder_transportC1ENS_10unique_ptrIN11grpc_binder6BinderENS_14default_deleteIS5_EEEEbNS_10shared_ptrIN4grpc12experimental6binder14SecurityPolicyEEEE3$_0NS_9allocatorISF_EEFvvEED1Ev', symObjAddr: 0xA56C, symBinAddr: 0x1226C, symSize: 0x4 }
  - { offsetInCU: 0x7B1A6, offset: 0x11EE9F, size: 0x8, addend: 0x0, symName: '__ZNSt3__110__function6__funcIZN21grpc_binder_transportC1ENS_10unique_ptrIN11grpc_binder6BinderENS_14default_deleteIS5_EEEEbNS_10shared_ptrIN4grpc12experimental6binder14SecurityPolicyEEEE3$_0NS_9allocatorISF_EEFvvEED0Ev', symObjAddr: 0xA570, symBinAddr: 0x12270, symSize: 0x4 }
  - { offsetInCU: 0x7B3BA, offset: 0x11F0B3, size: 0x8, addend: 0x0, symName: '__ZNKSt3__110__function6__funcIZN21grpc_binder_transportC1ENS_10unique_ptrIN11grpc_binder6BinderENS_14default_deleteIS5_EEEEbNS_10shared_ptrIN4grpc12experimental6binder14SecurityPolicyEEEE3$_0NS_9allocatorISF_EEFvvEE7__cloneEv', symObjAddr: 0xA574, symBinAddr: 0x12274, symSize: 0x34 }
  - { offsetInCU: 0x7B6C5, offset: 0x11F3BE, size: 0x8, addend: 0x0, symName: '__ZNKSt3__110__function6__funcIZN21grpc_binder_transportC1ENS_10unique_ptrIN11grpc_binder6BinderENS_14default_deleteIS5_EEEEbNS_10shared_ptrIN4grpc12experimental6binder14SecurityPolicyEEEE3$_0NS_9allocatorISF_EEFvvEE7__cloneEPNS0_6__baseISI_EE', symObjAddr: 0xA5A8, symBinAddr: 0x122A8, symSize: 0x14 }
  - { offsetInCU: 0x7B6FE, offset: 0x11F3F7, size: 0x8, addend: 0x0, symName: '__ZNKSt3__110__function6__funcIZN21grpc_binder_transportC1ENS_10unique_ptrIN11grpc_binder6BinderENS_14default_deleteIS5_EEEEbNS_10shared_ptrIN4grpc12experimental6binder14SecurityPolicyEEEE3$_0NS_9allocatorISF_EEFvvEE7__cloneEPNS0_6__baseISI_EE', symObjAddr: 0xA5A8, symBinAddr: 0x122A8, symSize: 0x14 }
  - { offsetInCU: 0x7B72D, offset: 0x11F426, size: 0x8, addend: 0x0, symName: '__ZNKSt3__110__function6__funcIZN21grpc_binder_transportC1ENS_10unique_ptrIN11grpc_binder6BinderENS_14default_deleteIS5_EEEEbNS_10shared_ptrIN4grpc12experimental6binder14SecurityPolicyEEEE3$_0NS_9allocatorISF_EEFvvEE7__cloneEPNS0_6__baseISI_EE', symObjAddr: 0xA5A8, symBinAddr: 0x122A8, symSize: 0x14 }
  - { offsetInCU: 0x7B75C, offset: 0x11F455, size: 0x8, addend: 0x0, symName: '__ZNKSt3__110__function6__funcIZN21grpc_binder_transportC1ENS_10unique_ptrIN11grpc_binder6BinderENS_14default_deleteIS5_EEEEbNS_10shared_ptrIN4grpc12experimental6binder14SecurityPolicyEEEE3$_0NS_9allocatorISF_EEFvvEE7__cloneEPNS0_6__baseISI_EE', symObjAddr: 0xA5A8, symBinAddr: 0x122A8, symSize: 0x14 }
  - { offsetInCU: 0x7B772, offset: 0x11F46B, size: 0x8, addend: 0x0, symName: '__ZNKSt3__110__function6__funcIZN21grpc_binder_transportC1ENS_10unique_ptrIN11grpc_binder6BinderENS_14default_deleteIS5_EEEEbNS_10shared_ptrIN4grpc12experimental6binder14SecurityPolicyEEEE3$_0NS_9allocatorISF_EEFvvEE7__cloneEPNS0_6__baseISI_EE', symObjAddr: 0xA5A8, symBinAddr: 0x122A8, symSize: 0x14 }
  - { offsetInCU: 0x7B786, offset: 0x11F47F, size: 0x8, addend: 0x0, symName: '__ZNKSt3__110__function6__funcIZN21grpc_binder_transportC1ENS_10unique_ptrIN11grpc_binder6BinderENS_14default_deleteIS5_EEEEbNS_10shared_ptrIN4grpc12experimental6binder14SecurityPolicyEEEE3$_0NS_9allocatorISF_EEFvvEE7__cloneEPNS0_6__baseISI_EE', symObjAddr: 0xA5A8, symBinAddr: 0x122A8, symSize: 0x14 }
  - { offsetInCU: 0x7B79A, offset: 0x11F493, size: 0x8, addend: 0x0, symName: '__ZNKSt3__110__function6__funcIZN21grpc_binder_transportC1ENS_10unique_ptrIN11grpc_binder6BinderENS_14default_deleteIS5_EEEEbNS_10shared_ptrIN4grpc12experimental6binder14SecurityPolicyEEEE3$_0NS_9allocatorISF_EEFvvEE7__cloneEPNS0_6__baseISI_EE', symObjAddr: 0xA5A8, symBinAddr: 0x122A8, symSize: 0x14 }
  - { offsetInCU: 0x7B7AE, offset: 0x11F4A7, size: 0x8, addend: 0x0, symName: '__ZNKSt3__110__function6__funcIZN21grpc_binder_transportC1ENS_10unique_ptrIN11grpc_binder6BinderENS_14default_deleteIS5_EEEEbNS_10shared_ptrIN4grpc12experimental6binder14SecurityPolicyEEEE3$_0NS_9allocatorISF_EEFvvEE7__cloneEPNS0_6__baseISI_EE', symObjAddr: 0xA5A8, symBinAddr: 0x122A8, symSize: 0x14 }
  - { offsetInCU: 0x7B7C6, offset: 0x11F4BF, size: 0x8, addend: 0x0, symName: '__ZNSt3__110__function6__funcIZN21grpc_binder_transportC1ENS_10unique_ptrIN11grpc_binder6BinderENS_14default_deleteIS5_EEEEbNS_10shared_ptrIN4grpc12experimental6binder14SecurityPolicyEEEE3$_0NS_9allocatorISF_EEFvvEE7destroyEv', symObjAddr: 0xA5BC, symBinAddr: 0x122BC, symSize: 0x4 }
  - { offsetInCU: 0x7B819, offset: 0x11F512, size: 0x8, addend: 0x0, symName: '__ZNSt3__110__function6__funcIZN21grpc_binder_transportC1ENS_10unique_ptrIN11grpc_binder6BinderENS_14default_deleteIS5_EEEEbNS_10shared_ptrIN4grpc12experimental6binder14SecurityPolicyEEEE3$_0NS_9allocatorISF_EEFvvEE18destroy_deallocateEv', symObjAddr: 0xA5C0, symBinAddr: 0x122C0, symSize: 0x4 }
  - { offsetInCU: 0x7B850, offset: 0x11F549, size: 0x8, addend: 0x0, symName: '__ZNSt3__110__function6__funcIZN21grpc_binder_transportC1ENS_10unique_ptrIN11grpc_binder6BinderENS_14default_deleteIS5_EEEEbNS_10shared_ptrIN4grpc12experimental6binder14SecurityPolicyEEEE3$_0NS_9allocatorISF_EEFvvEE18destroy_deallocateEv', symObjAddr: 0xA5C0, symBinAddr: 0x122C0, symSize: 0x4 }
  - { offsetInCU: 0x7B874, offset: 0x11F56D, size: 0x8, addend: 0x0, symName: '__ZNSt3__110__function6__funcIZN21grpc_binder_transportC1ENS_10unique_ptrIN11grpc_binder6BinderENS_14default_deleteIS5_EEEEbNS_10shared_ptrIN4grpc12experimental6binder14SecurityPolicyEEEE3$_0NS_9allocatorISF_EEFvvEE18destroy_deallocateEv', symObjAddr: 0xA5C0, symBinAddr: 0x122C0, symSize: 0x4 }
  - { offsetInCU: 0x7B8A0, offset: 0x11F599, size: 0x8, addend: 0x0, symName: '__ZNSt3__110__function6__funcIZN21grpc_binder_transportC1ENS_10unique_ptrIN11grpc_binder6BinderENS_14default_deleteIS5_EEEEbNS_10shared_ptrIN4grpc12experimental6binder14SecurityPolicyEEEE3$_0NS_9allocatorISF_EEFvvEE18destroy_deallocateEv', symObjAddr: 0xA5C0, symBinAddr: 0x122C0, symSize: 0x4 }
  - { offsetInCU: 0x7B8C7, offset: 0x11F5C0, size: 0x8, addend: 0x0, symName: '__ZNSt3__110__function6__funcIZN21grpc_binder_transportC1ENS_10unique_ptrIN11grpc_binder6BinderENS_14default_deleteIS5_EEEEbNS_10shared_ptrIN4grpc12experimental6binder14SecurityPolicyEEEE3$_0NS_9allocatorISF_EEFvvEE18destroy_deallocateEv', symObjAddr: 0xA5C0, symBinAddr: 0x122C0, symSize: 0x4 }
  - { offsetInCU: 0x7B954, offset: 0x11F64D, size: 0x8, addend: 0x0, symName: '__ZNSt3__110__function6__funcIZN21grpc_binder_transportC1ENS_10unique_ptrIN11grpc_binder6BinderENS_14default_deleteIS5_EEEEbNS_10shared_ptrIN4grpc12experimental6binder14SecurityPolicyEEEE3$_0NS_9allocatorISF_EEFvvEEclEv', symObjAddr: 0xA5C4, symBinAddr: 0x122C4, symSize: 0xCC }
  - { offsetInCU: 0x7BC11, offset: 0x11F90A, size: 0x8, addend: 0x0, symName: '__ZNKSt3__110__function6__funcIZN21grpc_binder_transportC1ENS_10unique_ptrIN11grpc_binder6BinderENS_14default_deleteIS5_EEEEbNS_10shared_ptrIN4grpc12experimental6binder14SecurityPolicyEEEE3$_0NS_9allocatorISF_EEFvvEE6targetERKSt9type_info', symObjAddr: 0xA690, symBinAddr: 0x12390, symSize: 0x3C }
  - { offsetInCU: 0x7BC61, offset: 0x11F95A, size: 0x8, addend: 0x0, symName: '__ZNKSt3__110__function6__funcIZN21grpc_binder_transportC1ENS_10unique_ptrIN11grpc_binder6BinderENS_14default_deleteIS5_EEEEbNS_10shared_ptrIN4grpc12experimental6binder14SecurityPolicyEEEE3$_0NS_9allocatorISF_EEFvvEE11target_typeEv', symObjAddr: 0xA6CC, symBinAddr: 0x123CC, symSize: 0xC }
  - { offsetInCU: 0x7BC86, offset: 0x11F97F, size: 0x8, addend: 0x0, symName: __ZL20accept_stream_lockedPvN4absl12lts_202206236StatusE, symObjAddr: 0xA6D8, symBinAddr: 0x123D8, symSize: 0x1C }
  - { offsetInCU: 0x7C92C, offset: 0x120625, size: 0x8, addend: 0x0, symName: __ZNSt3__110__function12__value_funcIFvvEEC2B7v160006ERKS3_, symObjAddr: 0xA87C, symBinAddr: 0x1257C, symSize: 0x64 }
  - { offsetInCU: 0x7C986, offset: 0x12067F, size: 0x8, addend: 0x0, symName: __ZNSt3__16__treeIiNS_4lessIiEENS_9allocatorIiEEE7destroyEPNS_11__tree_nodeIiPvEE, symObjAddr: 0xA8E0, symBinAddr: 0x125E0, symSize: 0x40 }
  - { offsetInCU: 0x7CACB, offset: 0x1207C4, size: 0x8, addend: 0x0, symName: __ZNSt3__16__treeINS_12__value_typeIiNS_5queueINS_4pairIN4absl12lts_202206238StatusOrINS_6vectorINS3_INS_12basic_stringIcNS_11char_traitsIcEENS_9allocatorIcEEEESD_EENSB_ISE_EEEEEEiEENS_5dequeISI_NSB_ISI_EEEEEEEENS_19__map_value_compareIiSN_NS_4lessIiEELb1EEENSB_ISN_EEE7destroyEPNS_11__tree_nodeISN_PvEE, symObjAddr: 0xA920, symBinAddr: 0x12620, symSize: 0x48 }
  - { offsetInCU: 0x7CCDE, offset: 0x1209D7, size: 0x8, addend: 0x0, symName: __ZNSt3__16__treeINS_12__value_typeIiNS_5queueIN4absl12lts_202206238StatusOrINS_12basic_stringIcNS_11char_traitsIcEENS_9allocatorIcEEEEEENS_5dequeISC_NS9_ISC_EEEEEEEENS_19__map_value_compareIiSH_NS_4lessIiEELb1EEENS9_ISH_EEE7destroyEPNS_11__tree_nodeISH_PvEE, symObjAddr: 0xAAE8, symBinAddr: 0x127E8, symSize: 0x48 }
  - { offsetInCU: 0x7CEF1, offset: 0x120BEA, size: 0x8, addend: 0x0, symName: __ZNSt3__16__treeINS_12__value_typeIiNS_5queueIN4absl12lts_202206238StatusOrINS_6vectorINS_4pairINS_12basic_stringIcNS_11char_traitsIcEENS_9allocatorIcEEEESD_EENSB_ISE_EEEEEENS_5dequeISH_NSB_ISH_EEEEEEEENS_19__map_value_compareIiSM_NS_4lessIiEELb1EEENSB_ISM_EEE7destroyEPNS_11__tree_nodeISM_PvEE, symObjAddr: 0xAC98, symBinAddr: 0x12998, symSize: 0x48 }
  - { offsetInCU: 0x7D113, offset: 0x120E0C, size: 0x8, addend: 0x0, symName: __ZNSt3__16__treeINS_12__value_typeIiNS_8functionIFvN4absl12lts_202206238StatusOrINS_6vectorINS_4pairINS_12basic_stringIcNS_11char_traitsIcEENS_9allocatorIcEEEESD_EENSB_ISE_EEEEEEiEEEEENS_19__map_value_compareIiSK_NS_4lessIiEELb1EEENSB_ISK_EEE7destroyEPNS_11__tree_nodeISK_PvEE, symObjAddr: 0xAE48, symBinAddr: 0x12B48, symSize: 0x70 }
  - { offsetInCU: 0x7D30B, offset: 0x121004, size: 0x8, addend: 0x0, symName: __ZNSt3__16__treeINS_12__value_typeIiNS_8functionIFvN4absl12lts_202206238StatusOrINS_12basic_stringIcNS_11char_traitsIcEENS_9allocatorIcEEEEEEEEEEENS_19__map_value_compareIiSF_NS_4lessIiEELb1EEENS9_ISF_EEE7destroyEPNS_11__tree_nodeISF_PvEE, symObjAddr: 0xAEB8, symBinAddr: 0x12BB8, symSize: 0x70 }
  - { offsetInCU: 0x7D503, offset: 0x1211FC, size: 0x8, addend: 0x0, symName: __ZNSt3__16__treeINS_12__value_typeIiNS_8functionIFvN4absl12lts_202206238StatusOrINS_6vectorINS_4pairINS_12basic_stringIcNS_11char_traitsIcEENS_9allocatorIcEEEESD_EENSB_ISE_EEEEEEEEEEENS_19__map_value_compareIiSK_NS_4lessIiEELb1EEENSB_ISK_EEE7destroyEPNS_11__tree_nodeISK_PvEE, symObjAddr: 0xAF28, symBinAddr: 0x12C28, symSize: 0x70 }
  - { offsetInCU: 0x7D88C, offset: 0x121585, size: 0x8, addend: 0x0, symName: __ZNSt3__15dequeINS_4pairIN4absl12lts_202206238StatusOrINS_6vectorINS1_INS_12basic_stringIcNS_11char_traitsIcEENS_9allocatorIcEEEESB_EENS9_ISC_EEEEEEiEENS9_ISG_EEED2B7v160006Ev, symObjAddr: 0xA968, symBinAddr: 0x12668, symSize: 0x134 }
  - { offsetInCU: 0x7DF79, offset: 0x121C72, size: 0x8, addend: 0x0, symName: __ZNSt3__114__split_bufferIPNS_4pairIN4absl12lts_202206238StatusOrINS_6vectorINS1_INS_12basic_stringIcNS_11char_traitsIcEENS_9allocatorIcEEEESB_EENS9_ISC_EEEEEEiEENS9_ISH_EEED2Ev, symObjAddr: 0xAA9C, symBinAddr: 0x1279C, symSize: 0x4C }
  - { offsetInCU: 0x7E2C3, offset: 0x121FBC, size: 0x8, addend: 0x0, symName: __ZNSt3__15dequeIN4absl12lts_202206238StatusOrINS_12basic_stringIcNS_11char_traitsIcEENS_9allocatorIcEEEEEENS7_ISA_EEED2B7v160006Ev, symObjAddr: 0xAB30, symBinAddr: 0x12830, symSize: 0x11C }
  - { offsetInCU: 0x7E944, offset: 0x12263D, size: 0x8, addend: 0x0, symName: __ZNSt3__114__split_bufferIPN4absl12lts_202206238StatusOrINS_12basic_stringIcNS_11char_traitsIcEENS_9allocatorIcEEEEEENS7_ISB_EEED2Ev, symObjAddr: 0xAC4C, symBinAddr: 0x1294C, symSize: 0x4C }
  - { offsetInCU: 0x7EC8E, offset: 0x122987, size: 0x8, addend: 0x0, symName: __ZNSt3__15dequeIN4absl12lts_202206238StatusOrINS_6vectorINS_4pairINS_12basic_stringIcNS_11char_traitsIcEENS_9allocatorIcEEEESB_EENS9_ISC_EEEEEENS9_ISF_EEED2B7v160006Ev, symObjAddr: 0xACE0, symBinAddr: 0x129E0, symSize: 0x11C }
  - { offsetInCU: 0x7F30F, offset: 0x123008, size: 0x8, addend: 0x0, symName: __ZNSt3__114__split_bufferIPN4absl12lts_202206238StatusOrINS_6vectorINS_4pairINS_12basic_stringIcNS_11char_traitsIcEENS_9allocatorIcEEEESB_EENS9_ISC_EEEEEENS9_ISG_EEED2Ev, symObjAddr: 0xADFC, symBinAddr: 0x12AFC, symSize: 0x4C }
  - { offsetInCU: 0x7F791, offset: 0x12348A, size: 0x8, addend: 0x0, symName: '__ZNSt3__110__function6__funcIZN21grpc_binder_transportC1ENS_10unique_ptrIN11grpc_binder6BinderENS_14default_deleteIS5_EEEEbNS_10shared_ptrIN4grpc12experimental6binder14SecurityPolicyEEEE3$_1NS_9allocatorISF_EEFvvEED1Ev', symObjAddr: 0xAF98, symBinAddr: 0x12C98, symSize: 0x4 }
  - { offsetInCU: 0x7F7BD, offset: 0x1234B6, size: 0x8, addend: 0x0, symName: '__ZNSt3__110__function6__funcIZN21grpc_binder_transportC1ENS_10unique_ptrIN11grpc_binder6BinderENS_14default_deleteIS5_EEEEbNS_10shared_ptrIN4grpc12experimental6binder14SecurityPolicyEEEE3$_1NS_9allocatorISF_EEFvvEED0Ev', symObjAddr: 0xAF9C, symBinAddr: 0x12C9C, symSize: 0x4 }
  - { offsetInCU: 0x7F9D1, offset: 0x1236CA, size: 0x8, addend: 0x0, symName: '__ZNKSt3__110__function6__funcIZN21grpc_binder_transportC1ENS_10unique_ptrIN11grpc_binder6BinderENS_14default_deleteIS5_EEEEbNS_10shared_ptrIN4grpc12experimental6binder14SecurityPolicyEEEE3$_1NS_9allocatorISF_EEFvvEE7__cloneEv', symObjAddr: 0xAFA0, symBinAddr: 0x12CA0, symSize: 0x34 }
  - { offsetInCU: 0x7FCDC, offset: 0x1239D5, size: 0x8, addend: 0x0, symName: '__ZNKSt3__110__function6__funcIZN21grpc_binder_transportC1ENS_10unique_ptrIN11grpc_binder6BinderENS_14default_deleteIS5_EEEEbNS_10shared_ptrIN4grpc12experimental6binder14SecurityPolicyEEEE3$_1NS_9allocatorISF_EEFvvEE7__cloneEPNS0_6__baseISI_EE', symObjAddr: 0xAFD4, symBinAddr: 0x12CD4, symSize: 0x14 }
  - { offsetInCU: 0x7FD15, offset: 0x123A0E, size: 0x8, addend: 0x0, symName: '__ZNKSt3__110__function6__funcIZN21grpc_binder_transportC1ENS_10unique_ptrIN11grpc_binder6BinderENS_14default_deleteIS5_EEEEbNS_10shared_ptrIN4grpc12experimental6binder14SecurityPolicyEEEE3$_1NS_9allocatorISF_EEFvvEE7__cloneEPNS0_6__baseISI_EE', symObjAddr: 0xAFD4, symBinAddr: 0x12CD4, symSize: 0x14 }
  - { offsetInCU: 0x7FD44, offset: 0x123A3D, size: 0x8, addend: 0x0, symName: '__ZNKSt3__110__function6__funcIZN21grpc_binder_transportC1ENS_10unique_ptrIN11grpc_binder6BinderENS_14default_deleteIS5_EEEEbNS_10shared_ptrIN4grpc12experimental6binder14SecurityPolicyEEEE3$_1NS_9allocatorISF_EEFvvEE7__cloneEPNS0_6__baseISI_EE', symObjAddr: 0xAFD4, symBinAddr: 0x12CD4, symSize: 0x14 }
  - { offsetInCU: 0x7FD73, offset: 0x123A6C, size: 0x8, addend: 0x0, symName: '__ZNKSt3__110__function6__funcIZN21grpc_binder_transportC1ENS_10unique_ptrIN11grpc_binder6BinderENS_14default_deleteIS5_EEEEbNS_10shared_ptrIN4grpc12experimental6binder14SecurityPolicyEEEE3$_1NS_9allocatorISF_EEFvvEE7__cloneEPNS0_6__baseISI_EE', symObjAddr: 0xAFD4, symBinAddr: 0x12CD4, symSize: 0x14 }
  - { offsetInCU: 0x7FD89, offset: 0x123A82, size: 0x8, addend: 0x0, symName: '__ZNKSt3__110__function6__funcIZN21grpc_binder_transportC1ENS_10unique_ptrIN11grpc_binder6BinderENS_14default_deleteIS5_EEEEbNS_10shared_ptrIN4grpc12experimental6binder14SecurityPolicyEEEE3$_1NS_9allocatorISF_EEFvvEE7__cloneEPNS0_6__baseISI_EE', symObjAddr: 0xAFD4, symBinAddr: 0x12CD4, symSize: 0x14 }
  - { offsetInCU: 0x7FD9D, offset: 0x123A96, size: 0x8, addend: 0x0, symName: '__ZNKSt3__110__function6__funcIZN21grpc_binder_transportC1ENS_10unique_ptrIN11grpc_binder6BinderENS_14default_deleteIS5_EEEEbNS_10shared_ptrIN4grpc12experimental6binder14SecurityPolicyEEEE3$_1NS_9allocatorISF_EEFvvEE7__cloneEPNS0_6__baseISI_EE', symObjAddr: 0xAFD4, symBinAddr: 0x12CD4, symSize: 0x14 }
  - { offsetInCU: 0x7FDB1, offset: 0x123AAA, size: 0x8, addend: 0x0, symName: '__ZNKSt3__110__function6__funcIZN21grpc_binder_transportC1ENS_10unique_ptrIN11grpc_binder6BinderENS_14default_deleteIS5_EEEEbNS_10shared_ptrIN4grpc12experimental6binder14SecurityPolicyEEEE3$_1NS_9allocatorISF_EEFvvEE7__cloneEPNS0_6__baseISI_EE', symObjAddr: 0xAFD4, symBinAddr: 0x12CD4, symSize: 0x14 }
  - { offsetInCU: 0x7FDC5, offset: 0x123ABE, size: 0x8, addend: 0x0, symName: '__ZNKSt3__110__function6__funcIZN21grpc_binder_transportC1ENS_10unique_ptrIN11grpc_binder6BinderENS_14default_deleteIS5_EEEEbNS_10shared_ptrIN4grpc12experimental6binder14SecurityPolicyEEEE3$_1NS_9allocatorISF_EEFvvEE7__cloneEPNS0_6__baseISI_EE', symObjAddr: 0xAFD4, symBinAddr: 0x12CD4, symSize: 0x14 }
  - { offsetInCU: 0x7FDDD, offset: 0x123AD6, size: 0x8, addend: 0x0, symName: '__ZNSt3__110__function6__funcIZN21grpc_binder_transportC1ENS_10unique_ptrIN11grpc_binder6BinderENS_14default_deleteIS5_EEEEbNS_10shared_ptrIN4grpc12experimental6binder14SecurityPolicyEEEE3$_1NS_9allocatorISF_EEFvvEE7destroyEv', symObjAddr: 0xAFE8, symBinAddr: 0x12CE8, symSize: 0x4 }
  - { offsetInCU: 0x7FE30, offset: 0x123B29, size: 0x8, addend: 0x0, symName: '__ZNSt3__110__function6__funcIZN21grpc_binder_transportC1ENS_10unique_ptrIN11grpc_binder6BinderENS_14default_deleteIS5_EEEEbNS_10shared_ptrIN4grpc12experimental6binder14SecurityPolicyEEEE3$_1NS_9allocatorISF_EEFvvEE18destroy_deallocateEv', symObjAddr: 0xAFEC, symBinAddr: 0x12CEC, symSize: 0x4 }
  - { offsetInCU: 0x7FE67, offset: 0x123B60, size: 0x8, addend: 0x0, symName: '__ZNSt3__110__function6__funcIZN21grpc_binder_transportC1ENS_10unique_ptrIN11grpc_binder6BinderENS_14default_deleteIS5_EEEEbNS_10shared_ptrIN4grpc12experimental6binder14SecurityPolicyEEEE3$_1NS_9allocatorISF_EEFvvEE18destroy_deallocateEv', symObjAddr: 0xAFEC, symBinAddr: 0x12CEC, symSize: 0x4 }
  - { offsetInCU: 0x7FE8B, offset: 0x123B84, size: 0x8, addend: 0x0, symName: '__ZNSt3__110__function6__funcIZN21grpc_binder_transportC1ENS_10unique_ptrIN11grpc_binder6BinderENS_14default_deleteIS5_EEEEbNS_10shared_ptrIN4grpc12experimental6binder14SecurityPolicyEEEE3$_1NS_9allocatorISF_EEFvvEE18destroy_deallocateEv', symObjAddr: 0xAFEC, symBinAddr: 0x12CEC, symSize: 0x4 }
  - { offsetInCU: 0x7FEB7, offset: 0x123BB0, size: 0x8, addend: 0x0, symName: '__ZNSt3__110__function6__funcIZN21grpc_binder_transportC1ENS_10unique_ptrIN11grpc_binder6BinderENS_14default_deleteIS5_EEEEbNS_10shared_ptrIN4grpc12experimental6binder14SecurityPolicyEEEE3$_1NS_9allocatorISF_EEFvvEE18destroy_deallocateEv', symObjAddr: 0xAFEC, symBinAddr: 0x12CEC, symSize: 0x4 }
  - { offsetInCU: 0x7FEDE, offset: 0x123BD7, size: 0x8, addend: 0x0, symName: '__ZNSt3__110__function6__funcIZN21grpc_binder_transportC1ENS_10unique_ptrIN11grpc_binder6BinderENS_14default_deleteIS5_EEEEbNS_10shared_ptrIN4grpc12experimental6binder14SecurityPolicyEEEE3$_1NS_9allocatorISF_EEFvvEE18destroy_deallocateEv', symObjAddr: 0xAFEC, symBinAddr: 0x12CEC, symSize: 0x4 }
  - { offsetInCU: 0x7FF5E, offset: 0x123C57, size: 0x8, addend: 0x0, symName: '__ZNSt3__110__function6__funcIZN21grpc_binder_transportC1ENS_10unique_ptrIN11grpc_binder6BinderENS_14default_deleteIS5_EEEEbNS_10shared_ptrIN4grpc12experimental6binder14SecurityPolicyEEEE3$_1NS_9allocatorISF_EEFvvEEclEv', symObjAddr: 0xAFF0, symBinAddr: 0x12CF0, symSize: 0x14 }
  - { offsetInCU: 0x7FFF8, offset: 0x123CF1, size: 0x8, addend: 0x0, symName: '__ZNKSt3__110__function6__funcIZN21grpc_binder_transportC1ENS_10unique_ptrIN11grpc_binder6BinderENS_14default_deleteIS5_EEEEbNS_10shared_ptrIN4grpc12experimental6binder14SecurityPolicyEEEE3$_1NS_9allocatorISF_EEFvvEE6targetERKSt9type_info', symObjAddr: 0xB004, symBinAddr: 0x12D04, symSize: 0x3C }
  - { offsetInCU: 0x80048, offset: 0x123D41, size: 0x8, addend: 0x0, symName: '__ZNKSt3__110__function6__funcIZN21grpc_binder_transportC1ENS_10unique_ptrIN11grpc_binder6BinderENS_14default_deleteIS5_EEEEbNS_10shared_ptrIN4grpc12experimental6binder14SecurityPolicyEEEE3$_1NS_9allocatorISF_EEFvvEE11target_typeEv', symObjAddr: 0xB040, symBinAddr: 0x12D40, symSize: 0xC }
  - { offsetInCU: 0x8006D, offset: 0x123D66, size: 0x8, addend: 0x0, symName: _OUTLINED_FUNCTION_0, symObjAddr: 0xBB28, symBinAddr: 0x12D4C, symSize: 0x8 }
  - { offsetInCU: 0x80085, offset: 0x123D7E, size: 0x8, addend: 0x0, symName: _OUTLINED_FUNCTION_1, symObjAddr: 0xBB30, symBinAddr: 0x12D54, symSize: 0x8 }
  - { offsetInCU: 0x8009D, offset: 0x123D96, size: 0x8, addend: 0x0, symName: _OUTLINED_FUNCTION_2, symObjAddr: 0xBB38, symBinAddr: 0x12D5C, symSize: 0x8 }
  - { offsetInCU: 0x800B5, offset: 0x123DAE, size: 0x8, addend: 0x0, symName: _OUTLINED_FUNCTION_3, symObjAddr: 0xBB40, symBinAddr: 0x12D64, symSize: 0x8 }
  - { offsetInCU: 0x800CD, offset: 0x123DC6, size: 0x8, addend: 0x0, symName: _OUTLINED_FUNCTION_4, symObjAddr: 0xBB48, symBinAddr: 0x12D6C, symSize: 0x8 }
  - { offsetInCU: 0x44, offset: 0x124032, size: 0x8, addend: 0x0, symName: __ZN4grpcL17g_gli_initializerE, symObjAddr: 0x27CF4, symBinAddr: 0x6D800, symSize: 0x0 }
  - { offsetInCU: 0x4153, offset: 0x128141, size: 0x8, addend: 0x0, symName: __ZNSt3__119__allocate_at_leastB7v160006INS_9allocatorIN4grpc5SliceEEEEENS_19__allocation_resultINS_16allocator_traitsIT_E7pointerEEERS7_m, symObjAddr: 0xB10, symBinAddr: 0x13630, symSize: 0x34 }
  - { offsetInCU: 0x41F8, offset: 0x1281E6, size: 0x8, addend: 0x0, symName: __ZNSt3__142__uninitialized_allocator_move_if_noexceptB7v160006INS_9allocatorIN4grpc5SliceEEENS_16reverse_iteratorIPS3_EES7_S7_EET2_RT_T0_T1_S8_, symObjAddr: 0xB44, symBinAddr: 0x13664, symSize: 0xF0 }
  - { offsetInCU: 0x4256, offset: 0x128244, size: 0x8, addend: 0x0, symName: __ZNSt3__142__uninitialized_allocator_move_if_noexceptB7v160006INS_9allocatorIN4grpc5SliceEEENS_16reverse_iteratorIPS3_EES7_S7_EET2_RT_T0_T1_S8_, symObjAddr: 0xB44, symBinAddr: 0x13664, symSize: 0xF0 }
  - { offsetInCU: 0x444C, offset: 0x12843A, size: 0x8, addend: 0x0, symName: __ZNSt3__119__allocator_destroyB7v160006INS_9allocatorIN4grpc5SliceEEENS_16reverse_iteratorINS5_IPS3_EEEES8_EEvRT_T0_T1_, symObjAddr: 0xCDC, symBinAddr: 0x137FC, symSize: 0xAC }
  - { offsetInCU: 0x48EE, offset: 0x1288DC, size: 0x8, addend: 0x0, symName: __ZNSt3__16vectorIN4grpc5SliceENS_9allocatorIS2_EEE26__swap_out_circular_bufferERNS_14__split_bufferIS2_RS4_EE, symObjAddr: 0xA88, symBinAddr: 0x135A8, symSize: 0x74 }
  - { offsetInCU: 0x6A98, offset: 0x12AA86, size: 0x8, addend: 0x0, symName: __ZNK4grpc10ByteBuffer14TrySingleSliceEPNS_5SliceE, symObjAddr: 0x0, symBinAddr: 0x12DA8, symSize: 0x1B4 }
  - { offsetInCU: 0x6FF0, offset: 0x12AFDE, size: 0x8, addend: 0x0, symName: __ZN4grpc5SliceD1Ev, symObjAddr: 0x1B4, symBinAddr: 0x12F5C, symSize: 0x7C }
  - { offsetInCU: 0x703F, offset: 0x12B02D, size: 0x8, addend: 0x0, symName: __ZNK4grpc10ByteBuffer17DumpToSingleSliceEPNS_5SliceE, symObjAddr: 0x230, symBinAddr: 0x12FD8, symSize: 0x188 }
  - { offsetInCU: 0x73D7, offset: 0x12B3C5, size: 0x8, addend: 0x0, symName: __ZNK4grpc10ByteBuffer4DumpEPNSt3__16vectorINS_5SliceENS1_9allocatorIS3_EEEE, symObjAddr: 0x3B8, symBinAddr: 0x13160, symSize: 0x1E0 }
  - { offsetInCU: 0x77B2, offset: 0x12B7A0, size: 0x8, addend: 0x0, symName: __ZNSt3__16vectorIN4grpc5SliceENS_9allocatorIS2_EEE22__base_destruct_at_endB7v160006EPS2_, symObjAddr: 0x820, symBinAddr: 0x13340, symSize: 0xA0 }
  - { offsetInCU: 0x7872, offset: 0x12B860, size: 0x8, addend: 0x0, symName: __ZNSt3__16vectorIN4grpc5SliceENS_9allocatorIS2_EEE22__construct_one_at_endB7v160006IJS2_EEEvDpOT_, symObjAddr: 0x8C0, symBinAddr: 0x133E0, symSize: 0x9C }
  - { offsetInCU: 0x79EE, offset: 0x12B9DC, size: 0x8, addend: 0x0, symName: __ZNSt3__16vectorIN4grpc5SliceENS_9allocatorIS2_EEE21__push_back_slow_pathIS2_EEvOT_, symObjAddr: 0x95C, symBinAddr: 0x1347C, symSize: 0x12C }
  - { offsetInCU: 0x82FA, offset: 0x12C2E8, size: 0x8, addend: 0x0, symName: __ZNSt3__114__split_bufferIN4grpc5SliceERNS_9allocatorIS2_EEED2Ev, symObjAddr: 0xD88, symBinAddr: 0x138A8, symSize: 0x34 }
  - { offsetInCU: 0x840E, offset: 0x12C3FC, size: 0x8, addend: 0x0, symName: __ZNKSt3__16vectorIN4grpc5SliceENS_9allocatorIS2_EEE20__throw_length_errorB7v160006Ev, symObjAddr: 0xAFC, symBinAddr: 0x1361C, symSize: 0x14 }
  - { offsetInCU: 0x8436, offset: 0x12C424, size: 0x8, addend: 0x0, symName: __ZNSt3__119__allocate_at_leastB7v160006INS_9allocatorIN4grpc5SliceEEEEENS_19__allocation_resultINS_16allocator_traitsIT_E7pointerEEERS7_m, symObjAddr: 0xB10, symBinAddr: 0x13630, symSize: 0x34 }
  - { offsetInCU: 0x84C9, offset: 0x12C4B7, size: 0x8, addend: 0x0, symName: __ZNSt3__128__exception_guard_exceptionsINS_29_AllocatorDestroyRangeReverseINS_9allocatorIN4grpc5SliceEEENS_16reverse_iteratorIPS4_EEEEED2B7v160006Ev, symObjAddr: 0xC34, symBinAddr: 0x13754, symSize: 0x34 }
  - { offsetInCU: 0x8509, offset: 0x12C4F7, size: 0x8, addend: 0x0, symName: __ZNKSt3__129_AllocatorDestroyRangeReverseINS_9allocatorIN4grpc5SliceEEENS_16reverse_iteratorIPS3_EEEclB7v160006Ev, symObjAddr: 0xC68, symBinAddr: 0x13788, symSize: 0x74 }
  - { offsetInCU: 0x86ED, offset: 0x12C6DB, size: 0x8, addend: 0x0, symName: __ZNSt3__114__split_bufferIN4grpc5SliceERNS_9allocatorIS2_EEE17__destruct_at_endB7v160006EPS2_, symObjAddr: 0xDBC, symBinAddr: 0x138DC, symSize: 0xA4 }
  - { offsetInCU: 0x284, offset: 0x12CA34, size: 0x8, addend: 0x0, symName: __ZNSt3__1L19piecewise_constructE, symObjAddr: 0xDF8, symBinAddr: 0x52AD2, symSize: 0x0 }
  - { offsetInCU: 0x5150, offset: 0x131900, size: 0x8, addend: 0x0, symName: __ZNSt3__127__tree_balance_after_insertB7v160006IPNS_16__tree_node_baseIPvEEEEvT_S5_, symObjAddr: 0xA3C, symBinAddr: 0x14298, symSize: 0x198 }
  - { offsetInCU: 0x822A, offset: 0x1349DA, size: 0x8, addend: 0x0, symName: __ZN4grpc12experimental18CallMetricRecorderC2EPN9grpc_core5ArenaE, symObjAddr: 0x0, symBinAddr: 0x1398C, symSize: 0x78 }
  - { offsetInCU: 0x8314, offset: 0x134AC4, size: 0x8, addend: 0x0, symName: __ZN9grpc_core5Arena3NewINS_17BackendMetricDataEJEEEPT_DpOT0_, symObjAddr: 0x78, symBinAddr: 0x13A04, symSize: 0x64 }
  - { offsetInCU: 0x87B2, offset: 0x134F62, size: 0x8, addend: 0x0, symName: __ZN4grpc12experimental18CallMetricRecorderC1EPN9grpc_core5ArenaE, symObjAddr: 0xDC, symBinAddr: 0x13A68, symSize: 0x4 }
  - { offsetInCU: 0x87EE, offset: 0x134F9E, size: 0x8, addend: 0x0, symName: __ZN4grpc12experimental18CallMetricRecorderC1EPN9grpc_core5ArenaE, symObjAddr: 0xDC, symBinAddr: 0x13A68, symSize: 0x4 }
  - { offsetInCU: 0x88C9, offset: 0x135079, size: 0x8, addend: 0x0, symName: __ZN4grpc12experimental18CallMetricRecorderD2Ev, symObjAddr: 0xE0, symBinAddr: 0x13A6C, symSize: 0x5C }
  - { offsetInCU: 0x8AC5, offset: 0x135275, size: 0x8, addend: 0x0, symName: __ZNSt3__16__treeINS_12__value_typeIN4absl12lts_2022062311string_viewEdEENS_19__map_value_compareIS4_S5_NS_4lessIS4_EELb1EEENS_9allocatorIS5_EEE7destroyEPNS_11__tree_nodeIS5_PvEE, symObjAddr: 0x70C, symBinAddr: 0x1408C, symSize: 0x40 }
  - { offsetInCU: 0x8C0C, offset: 0x1353BC, size: 0x8, addend: 0x0, symName: __ZN4grpc12experimental18CallMetricRecorderD1Ev, symObjAddr: 0x13C, symBinAddr: 0x13AC8, symSize: 0x4 }
  - { offsetInCU: 0x8C3A, offset: 0x1353EA, size: 0x8, addend: 0x0, symName: __ZN4grpc12experimental18CallMetricRecorderD1Ev, symObjAddr: 0x13C, symBinAddr: 0x13AC8, symSize: 0x4 }
  - { offsetInCU: 0x8D1A, offset: 0x1354CA, size: 0x8, addend: 0x0, symName: __ZN4grpc12experimental18CallMetricRecorder26RecordCpuUtilizationMetricEd, symObjAddr: 0x140, symBinAddr: 0x13ACC, symSize: 0x68 }
  - { offsetInCU: 0x8E16, offset: 0x1355C6, size: 0x8, addend: 0x0, symName: __ZN4grpc12experimental18CallMetricRecorder29RecordMemoryUtilizationMetricEd, symObjAddr: 0x1A8, symBinAddr: 0x13B34, symSize: 0x68 }
  - { offsetInCU: 0x9013, offset: 0x1357C3, size: 0x8, addend: 0x0, symName: __ZN4grpc12experimental18CallMetricRecorder23RecordUtilizationMetricENS_10string_refEd, symObjAddr: 0x210, symBinAddr: 0x13B9C, symSize: 0xF8 }
  - { offsetInCU: 0x9283, offset: 0x135A33, size: 0x8, addend: 0x0, symName: __ZNSt3__16__treeINS_12__value_typeIN4absl12lts_2022062311string_viewEdEENS_19__map_value_compareIS4_S5_NS_4lessIS4_EELb1EEENS_9allocatorIS5_EEE25__emplace_unique_key_argsIS4_JRKNS_21piecewise_construct_tENS_5tupleIJRKS4_EEENSH_IJEEEEEENS_4pairINS_15__tree_iteratorIS5_PNS_11__tree_nodeIS5_PvEElEEbEERKT_DpOT0_, symObjAddr: 0x870, symBinAddr: 0x140CC, symSize: 0x88 }
  - { offsetInCU: 0x953E, offset: 0x135CEE, size: 0x8, addend: 0x0, symName: __ZN4grpc12experimental18CallMetricRecorder23RecordRequestCostMetricENS_10string_refEd, symObjAddr: 0x308, symBinAddr: 0x13C94, symSize: 0xF8 }
  - { offsetInCU: 0x9F2B, offset: 0x1366DB, size: 0x8, addend: 0x0, symName: __ZN4grpc12experimental18CallMetricRecorder22CreateSerializedReportEv, symObjAddr: 0x400, symBinAddr: 0x13D8C, symSize: 0x300 }
  - { offsetInCU: 0xB3EF, offset: 0x137B9F, size: 0x8, addend: 0x0, symName: __ZNSt3__16__treeINS_12__value_typeIN4absl12lts_2022062311string_viewEdEENS_19__map_value_compareIS4_S5_NS_4lessIS4_EELb1EEENS_9allocatorIS5_EEE12__find_equalIS4_EERPNS_16__tree_node_baseIPvEERPNS_15__tree_end_nodeISH_EERKT_, symObjAddr: 0x8F8, symBinAddr: 0x14154, symSize: 0x9C }
  - { offsetInCU: 0xB59A, offset: 0x137D4A, size: 0x8, addend: 0x0, symName: __ZNSt3__16__treeINS_12__value_typeIN4absl12lts_2022062311string_viewEdEENS_19__map_value_compareIS4_S5_NS_4lessIS4_EELb1EEENS_9allocatorIS5_EEE16__insert_node_atEPNS_15__tree_end_nodeIPNS_16__tree_node_baseIPvEEEERSH_SH_, symObjAddr: 0x994, symBinAddr: 0x141F0, symSize: 0x54 }
  - { offsetInCU: 0xB69D, offset: 0x137E4D, size: 0x8, addend: 0x0, symName: __ZNK4absl12lts_2022062311string_view7compareES1_, symObjAddr: 0x9E8, symBinAddr: 0x14244, symSize: 0x54 }
  - { offsetInCU: 0x26, offset: 0x137FA2, size: 0x8, addend: 0x0, symName: __ZN4grpc25MakeChannelArgumentOptionERKNSt3__112basic_stringIcNS0_11char_traitsIcEENS0_9allocatorIcEEEES8_, symObjAddr: 0x0, symBinAddr: 0x14464, symSize: 0x98 }
  - { offsetInCU: 0x41C1, offset: 0x13C13D, size: 0x8, addend: 0x0, symName: __ZN4grpc25MakeChannelArgumentOptionERKNSt3__112basic_stringIcNS0_11char_traitsIcEENS0_9allocatorIcEEEES8_, symObjAddr: 0x0, symBinAddr: 0x14464, symSize: 0x98 }
  - { offsetInCU: 0x4491, offset: 0x13C40D, size: 0x8, addend: 0x0, symName: __ZN4grpc25MakeChannelArgumentOptionERKNSt3__112basic_stringIcNS0_11char_traitsIcEENS0_9allocatorIcEEEEi, symObjAddr: 0x98, symBinAddr: 0x144FC, symSize: 0x68 }
  - { offsetInCU: 0x6AE0, offset: 0x13EA5C, size: 0x8, addend: 0x0, symName: __ZZN4grpc25MakeChannelArgumentOptionERKNSt3__112basic_stringIcNS0_11char_traitsIcEENS0_9allocatorIcEEEES8_EN12StringOptionD1Ev, symObjAddr: 0x100, symBinAddr: 0x14564, symSize: 0x40 }
  - { offsetInCU: 0x6D91, offset: 0x13ED0D, size: 0x8, addend: 0x0, symName: __ZZN4grpc25MakeChannelArgumentOptionERKNSt3__112basic_stringIcNS0_11char_traitsIcEENS0_9allocatorIcEEEES8_EN12StringOptionD0Ev, symObjAddr: 0x140, symBinAddr: 0x145A4, symSize: 0x40 }
  - { offsetInCU: 0x704B, offset: 0x13EFC7, size: 0x8, addend: 0x0, symName: __ZZN4grpc25MakeChannelArgumentOptionERKNSt3__112basic_stringIcNS0_11char_traitsIcEENS0_9allocatorIcEEEES8_EN12StringOption15UpdateArgumentsEPNS_16ChannelArgumentsE, symObjAddr: 0x180, symBinAddr: 0x145E4, symSize: 0x14 }
  - { offsetInCU: 0x7085, offset: 0x13F001, size: 0x8, addend: 0x0, symName: __ZZN4grpc25MakeChannelArgumentOptionERKNSt3__112basic_stringIcNS0_11char_traitsIcEENS0_9allocatorIcEEEES8_EN12StringOption13UpdatePluginsEPNS0_6vectorINS0_10unique_ptrINS_19ServerBuilderPluginENS0_14default_deleteISC_EEEENS4_ISF_EEEE, symObjAddr: 0x194, symBinAddr: 0x145F8, symSize: 0x4 }
  - { offsetInCU: 0x70D0, offset: 0x13F04C, size: 0x8, addend: 0x0, symName: __ZZN4grpc25MakeChannelArgumentOptionERKNSt3__112basic_stringIcNS0_11char_traitsIcEENS0_9allocatorIcEEEEiEN9IntOptionD1Ev, symObjAddr: 0x198, symBinAddr: 0x145FC, symSize: 0x30 }
  - { offsetInCU: 0x7256, offset: 0x13F1D2, size: 0x8, addend: 0x0, symName: __ZZN4grpc25MakeChannelArgumentOptionERKNSt3__112basic_stringIcNS0_11char_traitsIcEENS0_9allocatorIcEEEEiEN9IntOptionD0Ev, symObjAddr: 0x1C8, symBinAddr: 0x1462C, symSize: 0x30 }
  - { offsetInCU: 0x73E5, offset: 0x13F361, size: 0x8, addend: 0x0, symName: __ZZN4grpc25MakeChannelArgumentOptionERKNSt3__112basic_stringIcNS0_11char_traitsIcEENS0_9allocatorIcEEEEiEN9IntOption15UpdateArgumentsEPNS_16ChannelArgumentsE, symObjAddr: 0x1F8, symBinAddr: 0x1465C, symSize: 0x14 }
  - { offsetInCU: 0x741F, offset: 0x13F39B, size: 0x8, addend: 0x0, symName: __ZZN4grpc25MakeChannelArgumentOptionERKNSt3__112basic_stringIcNS0_11char_traitsIcEENS0_9allocatorIcEEEEiEN9IntOption13UpdatePluginsEPNS0_6vectorINS0_10unique_ptrINS_19ServerBuilderPluginENS0_14default_deleteISC_EEEENS4_ISF_EEEE, symObjAddr: 0x20C, symBinAddr: 0x14670, symSize: 0x4 }
  - { offsetInCU: 0x5A15, offset: 0x144DDF, size: 0x8, addend: 0x0, symName: __ZNSt3__119__allocate_at_leastB7v160006INS_9allocatorI8grpc_argEEEENS_19__allocation_resultINS_16allocator_traitsIT_E7pointerEEERS6_m, symObjAddr: 0x15F8, symBinAddr: 0x15A00, symSize: 0x34 }
  - { offsetInCU: 0x5ABA, offset: 0x144E84, size: 0x8, addend: 0x0, symName: __ZNSt3__110__list_impINS_12basic_stringIcNS_11char_traitsIcEENS_9allocatorIcEEEENS4_IS6_EEE4swapERS8_, symObjAddr: 0x162C, symBinAddr: 0x15A34, symSize: 0x74 }
  - { offsetInCU: 0x66EF, offset: 0x145AB9, size: 0x8, addend: 0x0, symName: __ZN4grpc16ChannelArguments10SetPointerERKNSt3__112basic_stringIcNS1_11char_traitsIcEENS1_9allocatorIcEEEEPv, symObjAddr: 0x1268, symBinAddr: 0x158CC, symSize: 0xC }
  - { offsetInCU: 0x6715, offset: 0x145ADF, size: 0x8, addend: 0x0, symName: __ZZN4grpc16ChannelArguments10SetPointerERKNSt3__112basic_stringIcNS1_11char_traitsIcEENS1_9allocatorIcEEEEPvE6vtable, symObjAddr: 0x1A90, symBinAddr: 0x696C8, symSize: 0x0 }
  - { offsetInCU: 0x8A42, offset: 0x147E0C, size: 0x8, addend: 0x0, symName: __ZN4grpc16ChannelArgumentsC2Ev, symObjAddr: 0x0, symBinAddr: 0x14674, symSize: 0x130 }
  - { offsetInCU: 0x973E, offset: 0x148B08, size: 0x8, addend: 0x0, symName: __ZN4grpc16ChannelArguments9SetStringERKNSt3__112basic_stringIcNS1_11char_traitsIcEENS1_9allocatorIcEEEES9_, symObjAddr: 0x130, symBinAddr: 0x147A4, symSize: 0x130 }
  - { offsetInCU: 0x9D5C, offset: 0x149126, size: 0x8, addend: 0x0, symName: __ZN4grpc16ChannelArgumentsC1Ev, symObjAddr: 0x260, symBinAddr: 0x148D4, symSize: 0x4 }
  - { offsetInCU: 0x9D70, offset: 0x14913A, size: 0x8, addend: 0x0, symName: __ZNSt3__110__list_impINS_12basic_stringIcNS_11char_traitsIcEENS_9allocatorIcEEEENS4_IS6_EEE5clearEv, symObjAddr: 0x12A8, symBinAddr: 0x1590C, symSize: 0x78 }
  - { offsetInCU: 0xA471, offset: 0x14983B, size: 0x8, addend: 0x0, symName: __ZNSt3__14listINS_12basic_stringIcNS_11char_traitsIcEENS_9allocatorIcEEEENS4_IS6_EEE9push_backERKS6_, symObjAddr: 0x11F8, symBinAddr: 0x1585C, symSize: 0x70 }
  - { offsetInCU: 0xA70D, offset: 0x149AD7, size: 0x8, addend: 0x0, symName: __ZNKSt3__16vectorI8grpc_argNS_9allocatorIS1_EEE20__throw_length_errorB7v160006Ev, symObjAddr: 0x15E4, symBinAddr: 0x159EC, symSize: 0x14 }
  - { offsetInCU: 0xA735, offset: 0x149AFF, size: 0x8, addend: 0x0, symName: __ZNSt3__119__allocate_at_leastB7v160006INS_9allocatorI8grpc_argEEEENS_19__allocation_resultINS_16allocator_traitsIT_E7pointerEEERS6_m, symObjAddr: 0x15F8, symBinAddr: 0x15A00, symSize: 0x34 }
  - { offsetInCU: 0xA741, offset: 0x149B0B, size: 0x8, addend: 0x0, symName: __ZN4grpc16ChannelArgumentsC1Ev, symObjAddr: 0x260, symBinAddr: 0x148D4, symSize: 0x4 }
  - { offsetInCU: 0xA76F, offset: 0x149B39, size: 0x8, addend: 0x0, symName: __ZN4grpc16ChannelArgumentsC1Ev, symObjAddr: 0x260, symBinAddr: 0x148D4, symSize: 0x4 }
  - { offsetInCU: 0xA8AD, offset: 0x149C77, size: 0x8, addend: 0x0, symName: __ZN4grpc16ChannelArgumentsC2ERKS0_, symObjAddr: 0x264, symBinAddr: 0x148D8, symSize: 0x298 }
  - { offsetInCU: 0xB3BC, offset: 0x14A786, size: 0x8, addend: 0x0, symName: __ZNSt3__14listINS_12basic_stringIcNS_11char_traitsIcEENS_9allocatorIcEEEENS4_IS6_EEEC2ERKS8_, symObjAddr: 0x157C, symBinAddr: 0x15984, symSize: 0x68 }
  - { offsetInCU: 0xB543, offset: 0x14A90D, size: 0x8, addend: 0x0, symName: __ZNSt3__16vectorI8grpc_argNS_9allocatorIS1_EEE7reserveEm, symObjAddr: 0x4FC, symBinAddr: 0x14B70, symSize: 0x9C }
  - { offsetInCU: 0xB86B, offset: 0x14AC35, size: 0x8, addend: 0x0, symName: __ZN4grpc16ChannelArgumentsC1ERKS0_, symObjAddr: 0x598, symBinAddr: 0x14C0C, symSize: 0x4 }
  - { offsetInCU: 0xB8B2, offset: 0x14AC7C, size: 0x8, addend: 0x0, symName: __ZN4grpc16ChannelArgumentsC1ERKS0_, symObjAddr: 0x598, symBinAddr: 0x14C0C, symSize: 0x4 }
  - { offsetInCU: 0xB8EE, offset: 0x14ACB8, size: 0x8, addend: 0x0, symName: __ZN4grpc16ChannelArgumentsC1ERKS0_, symObjAddr: 0x598, symBinAddr: 0x14C0C, symSize: 0x4 }
  - { offsetInCU: 0xB976, offset: 0x14AD40, size: 0x8, addend: 0x0, symName: __ZN4grpc16ChannelArgumentsD2Ev, symObjAddr: 0x59C, symBinAddr: 0x14C10, symSize: 0x88 }
  - { offsetInCU: 0xBD59, offset: 0x14B123, size: 0x8, addend: 0x0, symName: __ZN4grpc16ChannelArgumentsD1Ev, symObjAddr: 0x634, symBinAddr: 0x14C98, symSize: 0x4 }
  - { offsetInCU: 0xBD87, offset: 0x14B151, size: 0x8, addend: 0x0, symName: __ZN4grpc16ChannelArgumentsD1Ev, symObjAddr: 0x634, symBinAddr: 0x14C98, symSize: 0x4 }
  - { offsetInCU: 0xBDE3, offset: 0x14B1AD, size: 0x8, addend: 0x0, symName: __ZN4grpc16ChannelArguments4SwapERS0_, symObjAddr: 0x638, symBinAddr: 0x14C9C, symSize: 0x3C }
  - { offsetInCU: 0xBE1D, offset: 0x14B1E7, size: 0x8, addend: 0x0, symName: __ZN4grpc16ChannelArguments4SwapERS0_, symObjAddr: 0x638, symBinAddr: 0x14C9C, symSize: 0x3C }
  - { offsetInCU: 0xBE3F, offset: 0x14B209, size: 0x8, addend: 0x0, symName: __ZN4grpc16ChannelArguments4SwapERS0_, symObjAddr: 0x638, symBinAddr: 0x14C9C, symSize: 0x3C }
  - { offsetInCU: 0xBF04, offset: 0x14B2CE, size: 0x8, addend: 0x0, symName: __ZNSt3__110__list_impINS_12basic_stringIcNS_11char_traitsIcEENS_9allocatorIcEEEENS4_IS6_EEE4swapERS8_, symObjAddr: 0x162C, symBinAddr: 0x15A34, symSize: 0x74 }
  - { offsetInCU: 0xBF9B, offset: 0x14B365, size: 0x8, addend: 0x0, symName: __ZN4grpc16ChannelArguments23SetCompressionAlgorithmE26grpc_compression_algorithm, symObjAddr: 0x674, symBinAddr: 0x14CD8, symSize: 0x74 }
  - { offsetInCU: 0xC28B, offset: 0x14B655, size: 0x8, addend: 0x0, symName: __ZN4grpc16ChannelArguments6SetIntERKNSt3__112basic_stringIcNS1_11char_traitsIcEENS1_9allocatorIcEEEEi, symObjAddr: 0x6E8, symBinAddr: 0x14D4C, symSize: 0x11C }
  - { offsetInCU: 0xC7D5, offset: 0x14BB9F, size: 0x8, addend: 0x0, symName: __ZN4grpc16ChannelArguments24SetGrpclbFallbackTimeoutEi, symObjAddr: 0x804, symBinAddr: 0x14E68, symSize: 0x74 }
  - { offsetInCU: 0xC7E9, offset: 0x14BBB3, size: 0x8, addend: 0x0, symName: __ZN4grpc16ChannelArguments24SetGrpclbFallbackTimeoutEi, symObjAddr: 0x804, symBinAddr: 0x14E68, symSize: 0x74 }
  - { offsetInCU: 0xCCA2, offset: 0x14C06C, size: 0x8, addend: 0x0, symName: __ZN4grpc16ChannelArguments16SetSocketMutatorEP19grpc_socket_mutator, symObjAddr: 0x878, symBinAddr: 0x14EDC, symSize: 0x354 }
  - { offsetInCU: 0xDB99, offset: 0x14CF63, size: 0x8, addend: 0x0, symName: __ZN4grpc16ChannelArguments18SetUserAgentPrefixERKNSt3__112basic_stringIcNS1_11char_traitsIcEENS1_9allocatorIcEEEE, symObjAddr: 0xBCC, symBinAddr: 0x15230, symSize: 0x2A0 }
  - { offsetInCU: 0xE90C, offset: 0x14DCD6, size: 0x8, addend: 0x0, symName: __ZNSt3__112basic_stringIcNS_11char_traitsIcEENS_9allocatorIcEEEC2B7v160006ENS_24__uninitialized_size_tagEmRKS4_, symObjAddr: 0x16A0, symBinAddr: 0x15AA8, symSize: 0x74 }
  - { offsetInCU: 0xEAAB, offset: 0x14DE75, size: 0x8, addend: 0x0, symName: __ZN4grpc16ChannelArguments18SetUserAgentPrefixERKNSt3__112basic_stringIcNS1_11char_traitsIcEENS1_9allocatorIcEEEE.cold.1, symObjAddr: 0x1714, symBinAddr: 0x4D194, symSize: 0x38 }
  - { offsetInCU: 0xEABF, offset: 0x14DE89, size: 0x8, addend: 0x0, symName: __ZN4grpc16ChannelArguments18SetUserAgentPrefixERKNSt3__112basic_stringIcNS1_11char_traitsIcEENS1_9allocatorIcEEEE.cold.1, symObjAddr: 0x1714, symBinAddr: 0x4D194, symSize: 0x38 }
  - { offsetInCU: 0xEAF2, offset: 0x14DEBC, size: 0x8, addend: 0x0, symName: __ZN4grpc16ChannelArguments16SetResourceQuotaERKNS_13ResourceQuotaE, symObjAddr: 0xE6C, symBinAddr: 0x154D0, symSize: 0x80 }
  - { offsetInCU: 0xEE19, offset: 0x14E1E3, size: 0x8, addend: 0x0, symName: __ZN4grpc16ChannelArguments20SetPointerWithVtableERKNSt3__112basic_stringIcNS1_11char_traitsIcEENS1_9allocatorIcEEEEPvPK23grpc_arg_pointer_vtable, symObjAddr: 0xEEC, symBinAddr: 0x15550, symSize: 0x13C }
  - { offsetInCU: 0xF387, offset: 0x14E751, size: 0x8, addend: 0x0, symName: __ZN4grpc16ChannelArguments24SetMaxReceiveMessageSizeEi, symObjAddr: 0x1028, symBinAddr: 0x1568C, symSize: 0x74 }
  - { offsetInCU: 0xF39B, offset: 0x14E765, size: 0x8, addend: 0x0, symName: __ZN4grpc16ChannelArguments24SetMaxReceiveMessageSizeEi, symObjAddr: 0x1028, symBinAddr: 0x1568C, symSize: 0x74 }
  - { offsetInCU: 0xF68B, offset: 0x14EA55, size: 0x8, addend: 0x0, symName: __ZN4grpc16ChannelArguments21SetMaxSendMessageSizeEi, symObjAddr: 0x109C, symBinAddr: 0x15700, symSize: 0x74 }
  - { offsetInCU: 0xF97B, offset: 0x14ED45, size: 0x8, addend: 0x0, symName: __ZN4grpc16ChannelArguments26SetLoadBalancingPolicyNameERKNSt3__112basic_stringIcNS1_11char_traitsIcEENS1_9allocatorIcEEEE, symObjAddr: 0x1110, symBinAddr: 0x15774, symSize: 0x74 }
  - { offsetInCU: 0xFC6B, offset: 0x14F035, size: 0x8, addend: 0x0, symName: __ZN4grpc16ChannelArguments20SetServiceConfigJSONERKNSt3__112basic_stringIcNS1_11char_traitsIcEENS1_9allocatorIcEEEE, symObjAddr: 0x1184, symBinAddr: 0x157E8, symSize: 0x74 }
  - { offsetInCU: 0x100CF, offset: 0x14F499, size: 0x8, addend: 0x0, symName: __ZN4grpc16ChannelArguments20PointerVtableMembers4CopyEPv, symObjAddr: 0x1274, symBinAddr: 0x158D8, symSize: 0x4 }
  - { offsetInCU: 0x100F2, offset: 0x14F4BC, size: 0x8, addend: 0x0, symName: __ZN4grpc16ChannelArguments20PointerVtableMembers7DestroyEPv, symObjAddr: 0x1278, symBinAddr: 0x158DC, symSize: 0x4 }
  - { offsetInCU: 0x10111, offset: 0x14F4DB, size: 0x8, addend: 0x0, symName: __ZN4grpc16ChannelArguments20PointerVtableMembers7CompareEPvS2_, symObjAddr: 0x127C, symBinAddr: 0x158E0, symSize: 0x10 }
  - { offsetInCU: 0x10144, offset: 0x14F50E, size: 0x8, addend: 0x0, symName: __ZNK4grpc16ChannelArguments14SetChannelArgsEP17grpc_channel_args, symObjAddr: 0x128C, symBinAddr: 0x158F0, symSize: 0x1C }
  - { offsetInCU: 0x1017B, offset: 0x14F545, size: 0x8, addend: 0x0, symName: __ZNK4grpc16ChannelArguments14SetChannelArgsEP17grpc_channel_args, symObjAddr: 0x128C, symBinAddr: 0x158F0, symSize: 0x1C }
  - { offsetInCU: 0x44, offset: 0x14F9AC, size: 0x8, addend: 0x0, symName: __ZN4grpcL17g_gli_initializerE, symObjAddr: 0x77F41, symBinAddr: 0x6D801, symSize: 0x0 }
  - { offsetInCU: 0x995, offset: 0x1502FD, size: 0x8, addend: 0x0, symName: __ZN4grpc12experimental29ChannelResetConnectionBackoffEPNS_7ChannelE, symObjAddr: 0x410, symBinAddr: 0x15E04, symSize: 0x8 }
  - { offsetInCU: 0x110E, offset: 0x150A76, size: 0x8, addend: 0x0, symName: __ZN4grpc12_GLOBAL__N_119GetChannelInfoFieldEP12grpc_channelP17grpc_channel_infoPPPc, symObjAddr: 0x364, symBinAddr: 0x15D58, symSize: 0x80 }
  - { offsetInCU: 0xA401, offset: 0x159D69, size: 0x8, addend: 0x0, symName: __ZNSt3__119__allocate_at_leastB7v160006INS_9allocatorINS_10unique_ptrIN4grpc12experimental11InterceptorENS_14default_deleteIS5_EEEEEEEENS_19__allocation_resultINS_16allocator_traitsIT_E7pointerEEERSC_m, symObjAddr: 0x1154, symBinAddr: 0x168A4, symSize: 0x34 }
  - { offsetInCU: 0xA4A5, offset: 0x159E0D, size: 0x8, addend: 0x0, symName: __ZNSt3__114__split_bufferINS_10unique_ptrIN4grpc12experimental11InterceptorENS_14default_deleteIS4_EEEERNS_9allocatorIS7_EEED2Ev, symObjAddr: 0x1188, symBinAddr: 0x168D8, symSize: 0x60 }
  - { offsetInCU: 0xA4BA, offset: 0x159E22, size: 0x8, addend: 0x0, symName: __ZNSt3__120__throw_bad_weak_ptrB7v160006Ev, symObjAddr: 0x1584, symBinAddr: 0x16CD4, symSize: 0x34 }
  - { offsetInCU: 0xD2A7, offset: 0x15CC0F, size: 0x8, addend: 0x0, symName: __ZN4grpc7ChannelC2ERKNSt3__112basic_stringIcNS1_11char_traitsIcEENS1_9allocatorIcEEEEP12grpc_channelNS1_6vectorINS1_10unique_ptrINS_12experimental33ClientInterceptorFactoryInterfaceENS1_14default_deleteISF_EEEENS5_ISI_EEEE, symObjAddr: 0x0, symBinAddr: 0x15B1C, symSize: 0x11C }
  - { offsetInCU: 0xD646, offset: 0x15CFAE, size: 0x8, addend: 0x0, symName: __ZNSt3__16vectorINS_10unique_ptrIN4grpc12experimental33ClientInterceptorFactoryInterfaceENS_14default_deleteIS4_EEEENS_9allocatorIS7_EEE13__vdeallocateEv, symObjAddr: 0x14D4, symBinAddr: 0x16C24, symSize: 0x70 }
  - { offsetInCU: 0xD8E8, offset: 0x15D250, size: 0x8, addend: 0x0, symName: __ZN4grpc7ChannelC1ERKNSt3__112basic_stringIcNS1_11char_traitsIcEENS1_9allocatorIcEEEEP12grpc_channelNS1_6vectorINS1_10unique_ptrINS_12experimental33ClientInterceptorFactoryInterfaceENS1_14default_deleteISF_EEEENS5_ISI_EEEE, symObjAddr: 0x238, symBinAddr: 0x15C38, symSize: 0x4 }
  - { offsetInCU: 0xD941, offset: 0x15D2A9, size: 0x8, addend: 0x0, symName: __ZN4grpc7ChannelC1ERKNSt3__112basic_stringIcNS1_11char_traitsIcEENS1_9allocatorIcEEEEP12grpc_channelNS1_6vectorINS1_10unique_ptrINS_12experimental33ClientInterceptorFactoryInterfaceENS1_14default_deleteISF_EEEENS5_ISI_EEEE, symObjAddr: 0x238, symBinAddr: 0x15C38, symSize: 0x4 }
  - { offsetInCU: 0xD9ED, offset: 0x15D355, size: 0x8, addend: 0x0, symName: __ZN4grpc7ChannelD2Ev, symObjAddr: 0x23C, symBinAddr: 0x15C3C, symSize: 0x9C }
  - { offsetInCU: 0xDCCD, offset: 0x15D635, size: 0x8, addend: 0x0, symName: __ZNSt3__16vectorINS_10unique_ptrIN4grpc12experimental33ClientInterceptorFactoryInterfaceENS_14default_deleteIS4_EEEENS_9allocatorIS7_EEED2B7v160006Ev, symObjAddr: 0x1420, symBinAddr: 0x16B70, symSize: 0x38 }
  - { offsetInCU: 0xDD5B, offset: 0x15D6C3, size: 0x8, addend: 0x0, symName: __ZN4grpc7ChannelD1Ev, symObjAddr: 0x2E4, symBinAddr: 0x15CD8, symSize: 0x4 }
  - { offsetInCU: 0xDD7E, offset: 0x15D6E6, size: 0x8, addend: 0x0, symName: __ZN4grpc7ChannelD1Ev, symObjAddr: 0x2E4, symBinAddr: 0x15CD8, symSize: 0x4 }
  - { offsetInCU: 0xDDB3, offset: 0x15D71B, size: 0x8, addend: 0x0, symName: __ZThn8_N4grpc7ChannelD1Ev, symObjAddr: 0x2E8, symBinAddr: 0x15CDC, symSize: 0x8 }
  - { offsetInCU: 0xDDF4, offset: 0x15D75C, size: 0x8, addend: 0x0, symName: __ZThn32_N4grpc7ChannelD1Ev, symObjAddr: 0x2F0, symBinAddr: 0x15CE4, symSize: 0x8 }
  - { offsetInCU: 0xDE35, offset: 0x15D79D, size: 0x8, addend: 0x0, symName: __ZN4grpc7ChannelD0Ev, symObjAddr: 0x2F8, symBinAddr: 0x15CEC, symSize: 0x14 }
  - { offsetInCU: 0xDEA4, offset: 0x15D80C, size: 0x8, addend: 0x0, symName: __ZThn8_N4grpc7ChannelD0Ev, symObjAddr: 0x30C, symBinAddr: 0x15D00, symSize: 0x18 }
  - { offsetInCU: 0xDF01, offset: 0x15D869, size: 0x8, addend: 0x0, symName: __ZThn32_N4grpc7ChannelD0Ev, symObjAddr: 0x324, symBinAddr: 0x15D18, symSize: 0x18 }
  - { offsetInCU: 0xDF5E, offset: 0x15D8C6, size: 0x8, addend: 0x0, symName: __ZNK4grpc7Channel26GetLoadBalancingPolicyNameEv, symObjAddr: 0x33C, symBinAddr: 0x15D30, symSize: 0x28 }
  - { offsetInCU: 0xE236, offset: 0x15DB9E, size: 0x8, addend: 0x0, symName: __ZNK4grpc7Channel20GetServiceConfigJSONEv, symObjAddr: 0x3E4, symBinAddr: 0x15DD8, symSize: 0x2C }
  - { offsetInCU: 0xE529, offset: 0x15DE91, size: 0x8, addend: 0x0, symName: __ZN4grpc7Channel18CreateCallInternalERKNS_8internal9RpcMethodEPNS_13ClientContextEPNS_15CompletionQueueEm, symObjAddr: 0x418, symBinAddr: 0x15E0C, symSize: 0x29C }
  - { offsetInCU: 0xED9D, offset: 0x15E705, size: 0x8, addend: 0x0, symName: __ZN4grpc13ClientContext19set_client_rpc_infoEPKcS2_NS_8internal9RpcMethod7RpcTypeEPNS_16ChannelInterfaceERKNSt3__16vectorINS8_10unique_ptrINS_12experimental33ClientInterceptorFactoryInterfaceENS8_14default_deleteISC_EEEENS8_9allocatorISF_EEEEm, symObjAddr: 0x6B4, symBinAddr: 0x160A8, symSize: 0xA8 }
  - { offsetInCU: 0xEFB9, offset: 0x15E921, size: 0x8, addend: 0x0, symName: __ZNSt3__110shared_ptrIN4grpc7ChannelEEC2B7v160006IS2_vEERKNS_8weak_ptrIT_EE, symObjAddr: 0x1544, symBinAddr: 0x16C94, symSize: 0x40 }
  - { offsetInCU: 0xEFF6, offset: 0x15E95E, size: 0x8, addend: 0x0, symName: __ZNSt3__120__throw_bad_weak_ptrB7v160006Ev, symObjAddr: 0x1584, symBinAddr: 0x16CD4, symSize: 0x34 }
  - { offsetInCU: 0xF00D, offset: 0x15E975, size: 0x8, addend: 0x0, symName: __ZNSt3__110shared_ptrIN4grpc7ChannelEED2B7v160006Ev, symObjAddr: 0x15B8, symBinAddr: 0x16D08, symSize: 0x58 }
  - { offsetInCU: 0xF20A, offset: 0x15EB72, size: 0x8, addend: 0x0, symName: __ZNSt3__16vectorINS_10unique_ptrIN4grpc12experimental11InterceptorENS_14default_deleteIS4_EEEENS_9allocatorIS7_EEE13__vdeallocateEv, symObjAddr: 0x101C, symBinAddr: 0x1676C, symSize: 0x70 }
  - { offsetInCU: 0xF474, offset: 0x15EDDC, size: 0x8, addend: 0x0, symName: __ZNSt3__16vectorINS_10unique_ptrIN4grpc12experimental11InterceptorENS_14default_deleteIS4_EEEENS_9allocatorIS7_EEED2B7v160006Ev, symObjAddr: 0x108C, symBinAddr: 0x167DC, symSize: 0x38 }
  - { offsetInCU: 0xF502, offset: 0x15EE6A, size: 0x8, addend: 0x0, symName: __ZN4grpc12experimental13ClientRpcInfo20RegisterInterceptorsERKNSt3__16vectorINS2_10unique_ptrINS0_33ClientInterceptorFactoryInterfaceENS2_14default_deleteIS5_EEEENS2_9allocatorIS8_EEEEm, symObjAddr: 0xD74, symBinAddr: 0x164C4, symSize: 0x2A8 }
  - { offsetInCU: 0x101A8, offset: 0x15FB10, size: 0x8, addend: 0x0, symName: __ZN4grpc7Channel10CreateCallERKNS_8internal9RpcMethodEPNS_13ClientContextEPNS_15CompletionQueueE, symObjAddr: 0x75C, symBinAddr: 0x16150, symSize: 0x8 }
  - { offsetInCU: 0x10236, offset: 0x15FB9E, size: 0x8, addend: 0x0, symName: __ZN4grpc7Channel16PerformOpsOnCallEPNS_8internal18CallOpSetInterfaceEPNS1_4CallE, symObjAddr: 0x764, symBinAddr: 0x16158, symSize: 0x14 }
  - { offsetInCU: 0x102B6, offset: 0x15FC1E, size: 0x8, addend: 0x0, symName: __ZThn8_N4grpc7Channel16PerformOpsOnCallEPNS_8internal18CallOpSetInterfaceEPNS1_4CallE, symObjAddr: 0x778, symBinAddr: 0x1616C, symSize: 0x14 }
  - { offsetInCU: 0x1033C, offset: 0x15FCA4, size: 0x8, addend: 0x0, symName: __ZN4grpc7Channel14RegisterMethodEPKc, symObjAddr: 0x78C, symBinAddr: 0x16180, symSize: 0x3C }
  - { offsetInCU: 0x1048B, offset: 0x15FDF3, size: 0x8, addend: 0x0, symName: __ZN4grpc7Channel8GetStateEb, symObjAddr: 0x7C8, symBinAddr: 0x161BC, symSize: 0x8 }
  - { offsetInCU: 0x1054A, offset: 0x15FEB2, size: 0x8, addend: 0x0, symName: __ZN4grpc7Channel23NotifyOnStateChangeImplE23grpc_connectivity_state12gpr_timespecPNS_15CompletionQueueEPv, symObjAddr: 0x7D0, symBinAddr: 0x161C4, symSize: 0x6C }
  - { offsetInCU: 0x1071E, offset: 0x160086, size: 0x8, addend: 0x0, symName: __ZN4grpc7Channel22WaitForStateChangeImplE23grpc_connectivity_state12gpr_timespec, symObjAddr: 0x83C, symBinAddr: 0x16230, symSize: 0x14C }
  - { offsetInCU: 0x10971, offset: 0x1602D9, size: 0x8, addend: 0x0, symName: __ZN4grpc15CompletionQueueC2ERK32grpc_completion_queue_attributes, symObjAddr: 0x1328, symBinAddr: 0x16A78, symSize: 0xF8 }
  - { offsetInCU: 0x10C2B, offset: 0x160593, size: 0x8, addend: 0x0, symName: __ZN4grpc15CompletionQueueD2Ev, symObjAddr: 0x1210, symBinAddr: 0x16960, symSize: 0x70 }
  - { offsetInCU: 0x10D47, offset: 0x1606AF, size: 0x8, addend: 0x0, symName: __ZN4grpc15CompletionQueueD1Ev, symObjAddr: 0x988, symBinAddr: 0x1637C, symSize: 0x4 }
  - { offsetInCU: 0x10D6A, offset: 0x1606D2, size: 0x8, addend: 0x0, symName: __ZN4grpc15CompletionQueueD1Ev, symObjAddr: 0x988, symBinAddr: 0x1637C, symSize: 0x4 }
  - { offsetInCU: 0x10EBF, offset: 0x160827, size: 0x8, addend: 0x0, symName: __ZN4grpc7Channel10CallbackCQEv, symObjAddr: 0x98C, symBinAddr: 0x16380, symSize: 0x124 }
  - { offsetInCU: 0x111AB, offset: 0x160B13, size: 0x8, addend: 0x0, symName: __ZN4grpc16ChannelInterfaceD1Ev, symObjAddr: 0xBE0, symBinAddr: 0x4D1CC, symSize: 0x4 }
  - { offsetInCU: 0x111D4, offset: 0x160B3C, size: 0x8, addend: 0x0, symName: __ZN4grpc16ChannelInterfaceD0Ev, symObjAddr: 0xBE4, symBinAddr: 0x4D1D0, symSize: 0x4 }
  - { offsetInCU: 0x11231, offset: 0x160B99, size: 0x8, addend: 0x0, symName: __ZN4grpc16ChannelInterface18CreateCallInternalERKNS_8internal9RpcMethodEPNS_13ClientContextEPNS_15CompletionQueueEm, symObjAddr: 0xBE8, symBinAddr: 0x164A4, symSize: 0x18 }
  - { offsetInCU: 0x11280, offset: 0x160BE8, size: 0x8, addend: 0x0, symName: __ZN4grpc16ChannelInterface18CreateCallInternalERKNS_8internal9RpcMethodEPNS_13ClientContextEPNS_15CompletionQueueEm, symObjAddr: 0xBE8, symBinAddr: 0x164A4, symSize: 0x18 }
  - { offsetInCU: 0x1129B, offset: 0x160C03, size: 0x8, addend: 0x0, symName: __ZN4grpc16ChannelInterface18CreateCallInternalERKNS_8internal9RpcMethodEPNS_13ClientContextEPNS_15CompletionQueueEm, symObjAddr: 0xBE8, symBinAddr: 0x164A4, symSize: 0x18 }
  - { offsetInCU: 0x112B6, offset: 0x160C1E, size: 0x8, addend: 0x0, symName: __ZN4grpc16ChannelInterface10CallbackCQEv, symObjAddr: 0xC00, symBinAddr: 0x164BC, symSize: 0x8 }
  - { offsetInCU: 0x112DC, offset: 0x160C44, size: 0x8, addend: 0x0, symName: __ZN4grpc8internal8CallHookD1Ev, symObjAddr: 0xC08, symBinAddr: 0x4D1D4, symSize: 0x4 }
  - { offsetInCU: 0x11305, offset: 0x160C6D, size: 0x8, addend: 0x0, symName: __ZN4grpc8internal8CallHookD0Ev, symObjAddr: 0xC0C, symBinAddr: 0x4D1D8, symSize: 0x4 }
  - { offsetInCU: 0x11B58, offset: 0x1614C0, size: 0x8, addend: 0x0, symName: __ZNSt3__114__split_bufferINS_10unique_ptrIN4grpc12experimental11InterceptorENS_14default_deleteIS4_EEEERNS_9allocatorIS7_EEED2Ev, symObjAddr: 0x1188, symBinAddr: 0x168D8, symSize: 0x60 }
  - { offsetInCU: 0x11D47, offset: 0x1616AF, size: 0x8, addend: 0x0, symName: __ZNKSt3__16vectorINS_10unique_ptrIN4grpc12experimental11InterceptorENS_14default_deleteIS4_EEEENS_9allocatorIS7_EEE20__throw_length_errorB7v160006Ev, symObjAddr: 0x1140, symBinAddr: 0x16890, symSize: 0x14 }
  - { offsetInCU: 0x11D6F, offset: 0x1616D7, size: 0x8, addend: 0x0, symName: __ZNSt3__119__allocate_at_leastB7v160006INS_9allocatorINS_10unique_ptrIN4grpc12experimental11InterceptorENS_14default_deleteIS5_EEEEEEEENS_19__allocation_resultINS_16allocator_traitsIT_E7pointerEEERSC_m, symObjAddr: 0x1154, symBinAddr: 0x168A4, symSize: 0x34 }
  - { offsetInCU: 0x11F0A, offset: 0x161872, size: 0x8, addend: 0x0, symName: __ZNSt3__16vectorINS_10unique_ptrIN4grpc12experimental11InterceptorENS_14default_deleteIS4_EEEENS_9allocatorIS7_EEE16__destroy_vectorclB7v160006Ev, symObjAddr: 0x10C4, symBinAddr: 0x16814, symSize: 0x7C }
  - { offsetInCU: 0x121A6, offset: 0x161B0E, size: 0x8, addend: 0x0, symName: __ZN4grpc12_GLOBAL__N_18TagSaverD1Ev, symObjAddr: 0x11E8, symBinAddr: 0x16938, symSize: 0x4 }
  - { offsetInCU: 0x121CF, offset: 0x161B37, size: 0x8, addend: 0x0, symName: __ZN4grpc12_GLOBAL__N_18TagSaverD0Ev, symObjAddr: 0x11EC, symBinAddr: 0x1693C, symSize: 0x4 }
  - { offsetInCU: 0x121F8, offset: 0x161B60, size: 0x8, addend: 0x0, symName: __ZN4grpc12_GLOBAL__N_18TagSaver14FinalizeResultEPPvPb, symObjAddr: 0x11F0, symBinAddr: 0x16940, symSize: 0x20 }
  - { offsetInCU: 0x12296, offset: 0x161BFE, size: 0x8, addend: 0x0, symName: __ZNSt3__110__list_impIPKN4grpc6ServerENS_9allocatorIS4_EEE5clearEv, symObjAddr: 0x1294, symBinAddr: 0x169E4, symSize: 0x60 }
  - { offsetInCU: 0x12443, offset: 0x161DAB, size: 0x8, addend: 0x0, symName: __ZN4grpc15CompletionQueueD0Ev, symObjAddr: 0x1280, symBinAddr: 0x169D0, symSize: 0x14 }
  - { offsetInCU: 0x12540, offset: 0x161EA8, size: 0x8, addend: 0x0, symName: __ZN4grpc12_GLOBAL__N_116ShutdownCallback3RunEP29grpc_completion_queue_functori, symObjAddr: 0x12F4, symBinAddr: 0x16A44, symSize: 0x34 }
  - { offsetInCU: 0x1273B, offset: 0x1620A3, size: 0x8, addend: 0x0, symName: __ZNSt3__16vectorINS_10unique_ptrIN4grpc12experimental33ClientInterceptorFactoryInterfaceENS_14default_deleteIS4_EEEENS_9allocatorIS7_EEE16__destroy_vectorclB7v160006Ev, symObjAddr: 0x1458, symBinAddr: 0x16BA8, symSize: 0x7C }
  - { offsetInCU: 0x1AA89, offset: 0x17CF48, size: 0x8, addend: 0x0, symName: __ZN12_GLOBAL__N_114g_factory_onceE, symObjAddr: 0xA90, symBinAddr: 0x6D778, symSize: 0x0 }
  - { offsetInCU: 0x1AAA2, offset: 0x17CF61, size: 0x8, addend: 0x0, symName: __ZN12_GLOBAL__N_19g_factoryE, symObjAddr: 0x1268E0, symBinAddr: 0x6D808, symSize: 0x0 }
  - { offsetInCU: 0x1AAAF, offset: 0x17CF6E, size: 0x8, addend: 0x0, symName: __ZN12_GLOBAL__N_111FactoryInitEv, symObjAddr: 0x3D8, symBinAddr: 0x17140, symSize: 0x30 }
  - { offsetInCU: 0x1C33A, offset: 0x17E7F9, size: 0x8, addend: 0x0, symName: __ZN9grpc_core20ChannelArgTypeTraitsINS_26BinderClientChannelFactoryEvE6VTableEv, symObjAddr: 0x720, symBinAddr: 0x17298, symSize: 0x70 }
  - { offsetInCU: 0x1C35A, offset: 0x17E819, size: 0x8, addend: 0x0, symName: __ZZN9grpc_core20ChannelArgTypeTraitsINS_26BinderClientChannelFactoryEvE6VTableEvE3tbl, symObjAddr: 0xAB0, symBinAddr: 0x6D788, symSize: 0x0 }
  - { offsetInCU: 0x2092C, offset: 0x182DEB, size: 0x8, addend: 0x0, symName: __ZN4grpc8internal39CreateDirectBinderChannelImplForTestingENSt3__110unique_ptrIN11grpc_binder6BinderENS1_14default_deleteIS4_EEEEPK17grpc_channel_argsNS1_10shared_ptrINS_12experimental6binder14SecurityPolicyEEE, symObjAddr: 0x0, symBinAddr: 0x16D6C, symSize: 0x268 }
  - { offsetInCU: 0x2104E, offset: 0x18350D, size: 0x8, addend: 0x0, symName: __ZN4grpc8internal29CreateClientBinderChannelImplEPK17grpc_channel_args, symObjAddr: 0x26C, symBinAddr: 0x16FD4, symSize: 0x16C }
  - { offsetInCU: 0x2181A, offset: 0x183CD9, size: 0x8, addend: 0x0, symName: __ZN4absl12lts_2022062317internal_statusor12StatusOrDataIN9grpc_core13RefCountedPtrINS3_7ChannelEEEED2Ev, symObjAddr: 0x4B4, symBinAddr: 0x17170, symSize: 0x40 }
  - { offsetInCU: 0x21A1C, offset: 0x183EDB, size: 0x8, addend: 0x0, symName: __ZNK9grpc_core11ChannelArgs3SetINS_26BinderClientChannelFactoryEEENSt3__19enable_ifIXsr3std7is_sameIPK23grpc_arg_pointer_vtableDTclsr20ChannelArgTypeTraitsIT_EE6VTableEEEE5valueES0_E4typeEN4absl12lts_2022062311string_viewEPS8_, symObjAddr: 0x684, symBinAddr: 0x171FC, symSize: 0x9C }
  - { offsetInCU: 0x21C55, offset: 0x184114, size: 0x8, addend: 0x0, symName: __ZN9grpc_core13RefCountedPtrINS_7ChannelEED2Ev, symObjAddr: 0x4F4, symBinAddr: 0x171B0, symSize: 0x4C }
  - { offsetInCU: 0x21E79, offset: 0x184338, size: 0x8, addend: 0x0, symName: __ZZN9grpc_core20ChannelArgTypeTraitsINS_26BinderClientChannelFactoryEvE6VTableEvENUlPvE_8__invokeES3_, symObjAddr: 0x790, symBinAddr: 0x17308, symSize: 0x4 }
  - { offsetInCU: 0x21EA0, offset: 0x18435F, size: 0x8, addend: 0x0, symName: __ZZN9grpc_core20ChannelArgTypeTraitsINS_26BinderClientChannelFactoryEvE6VTableEvENUlPvE0_8__invokeES3_, symObjAddr: 0x794, symBinAddr: 0x1730C, symSize: 0x4 }
  - { offsetInCU: 0x21F0F, offset: 0x1843CE, size: 0x8, addend: 0x0, symName: __ZZN9grpc_core20ChannelArgTypeTraitsINS_26BinderClientChannelFactoryEvE6VTableEvENUlPvS3_E_8__invokeES3_S3_, symObjAddr: 0x798, symBinAddr: 0x17310, symSize: 0x14 }
  - { offsetInCU: 0x21F47, offset: 0x184406, size: 0x8, addend: 0x0, symName: __ZZN9grpc_core20ChannelArgTypeTraitsINS_26BinderClientChannelFactoryEvE6VTableEvENUlPvS3_E_8__invokeES3_S3_, symObjAddr: 0x798, symBinAddr: 0x17310, symSize: 0x14 }
  - { offsetInCU: 0x21F69, offset: 0x184428, size: 0x8, addend: 0x0, symName: __ZZN9grpc_core20ChannelArgTypeTraitsINS_26BinderClientChannelFactoryEvE6VTableEvENUlPvS3_E_8__invokeES3_S3_, symObjAddr: 0x798, symBinAddr: 0x17310, symSize: 0x14 }
  - { offsetInCU: 0x13BF2, offset: 0x19803B, size: 0x8, addend: 0x0, symName: '__ZN4absl12lts_2022062319functional_internal12InvokeObjectIZN4grpc13MetadataBatch11AddMetadataERKNSt3__112basic_stringIcNS5_11char_traitsIcEENS5_9allocatorIcEEEESD_E3$_0vJNS0_11string_viewERKN9grpc_core5SliceEEEET0_NS1_7VoidPtrEDpNS1_8ForwardTIT1_E4typeE', symObjAddr: 0x2D88, symBinAddr: 0x17704, symSize: 0x12C }
  - { offsetInCU: 0x164EE, offset: 0x19A937, size: 0x8, addend: 0x0, symName: __ZN4grpc8internal21RegisterChannelFilterE23grpc_channel_stack_typeiNSt3__18functionIFbRK17grpc_channel_argsEEEPK19grpc_channel_filter, symObjAddr: 0x2E8, symBinAddr: 0x174A4, symSize: 0x238 }
  - { offsetInCU: 0x173AA, offset: 0x19B7F3, size: 0x8, addend: 0x0, symName: __ZN4grpc13MetadataBatch11AddMetadataERKNSt3__112basic_stringIcNS1_11char_traitsIcEENS1_9allocatorIcEEEES9_, symObjAddr: 0x0, symBinAddr: 0x17358, symSize: 0x11C }
  - { offsetInCU: 0x1B1D5, offset: 0x19F61E, size: 0x8, addend: 0x0, symName: __ZN4grpc11ChannelData16StartTransportOpEP20grpc_channel_elementPNS_11TransportOpE, symObjAddr: 0x2B8, symBinAddr: 0x17474, symSize: 0xC }
  - { offsetInCU: 0x1B262, offset: 0x19F6AB, size: 0x8, addend: 0x0, symName: __ZN4grpc11ChannelData7GetInfoEP20grpc_channel_elementPK17grpc_channel_info, symObjAddr: 0x2C4, symBinAddr: 0x17480, symSize: 0xC }
  - { offsetInCU: 0x1B32A, offset: 0x19F773, size: 0x8, addend: 0x0, symName: __ZN4grpc8CallData27StartTransportStreamOpBatchEP17grpc_call_elementPNS_22TransportStreamOpBatchE, symObjAddr: 0x2D0, symBinAddr: 0x1748C, symSize: 0xC }
  - { offsetInCU: 0x1B3B7, offset: 0x19F800, size: 0x8, addend: 0x0, symName: __ZN4grpc8CallData22SetPollsetOrPollsetSetEP17grpc_call_elementP19grpc_polling_entity, symObjAddr: 0x2DC, symBinAddr: 0x17498, symSize: 0xC }
  - { offsetInCU: 0x1BB80, offset: 0x19FFC9, size: 0x8, addend: 0x0, symName: __ZNSt3__110__function12__value_funcIFbRK17grpc_channel_argsEEC2B7v160006ERKS6_, symObjAddr: 0x2EB4, symBinAddr: 0x17830, symSize: 0x64 }
  - { offsetInCU: 0x1BBCD, offset: 0x1A0016, size: 0x8, addend: 0x0, symName: __ZNSt3__110__function12__value_funcIFbRK17grpc_channel_argsEEC2B7v160006EOS6_, symObjAddr: 0x32D0, symBinAddr: 0x17C4C, symSize: 0x64 }
  - { offsetInCU: 0x1BC1B, offset: 0x1A0064, size: 0x8, addend: 0x0, symName: __ZN4grpc11ChannelDataD1Ev, symObjAddr: 0x520, symBinAddr: 0x176DC, symSize: 0x4 }
  - { offsetInCU: 0x1BC44, offset: 0x1A008D, size: 0x8, addend: 0x0, symName: __ZN4grpc11ChannelDataD0Ev, symObjAddr: 0x524, symBinAddr: 0x176E0, symSize: 0x4 }
  - { offsetInCU: 0x1BCAA, offset: 0x1A00F3, size: 0x8, addend: 0x0, symName: __ZN4grpc11ChannelData4InitEP20grpc_channel_elementP25grpc_channel_element_args, symObjAddr: 0x528, symBinAddr: 0x176E4, symSize: 0x8 }
  - { offsetInCU: 0x1BCE6, offset: 0x1A012F, size: 0x8, addend: 0x0, symName: __ZN4grpc11ChannelData4InitEP20grpc_channel_elementP25grpc_channel_element_args, symObjAddr: 0x528, symBinAddr: 0x176E4, symSize: 0x8 }
  - { offsetInCU: 0x1BCFA, offset: 0x1A0143, size: 0x8, addend: 0x0, symName: __ZN4grpc11ChannelData4InitEP20grpc_channel_elementP25grpc_channel_element_args, symObjAddr: 0x528, symBinAddr: 0x176E4, symSize: 0x8 }
  - { offsetInCU: 0x1BD17, offset: 0x1A0160, size: 0x8, addend: 0x0, symName: __ZN4grpc11ChannelData4InitEP20grpc_channel_elementP25grpc_channel_element_args, symObjAddr: 0x528, symBinAddr: 0x176E4, symSize: 0x8 }
  - { offsetInCU: 0x1BD34, offset: 0x1A017D, size: 0x8, addend: 0x0, symName: __ZN4grpc11ChannelData7DestroyEP20grpc_channel_element, symObjAddr: 0x530, symBinAddr: 0x176EC, symSize: 0x4 }
  - { offsetInCU: 0x1BD63, offset: 0x1A01AC, size: 0x8, addend: 0x0, symName: __ZN4grpc8CallDataD1Ev, symObjAddr: 0x534, symBinAddr: 0x176F0, symSize: 0x4 }
  - { offsetInCU: 0x1BD8C, offset: 0x1A01D5, size: 0x8, addend: 0x0, symName: __ZN4grpc8CallDataD0Ev, symObjAddr: 0x538, symBinAddr: 0x176F4, symSize: 0x4 }
  - { offsetInCU: 0x1BDB5, offset: 0x1A01FE, size: 0x8, addend: 0x0, symName: __ZN4grpc8CallData4InitEP17grpc_call_elementPK22grpc_call_element_args, symObjAddr: 0x53C, symBinAddr: 0x176F8, symSize: 0x8 }
  - { offsetInCU: 0x1BDF1, offset: 0x1A023A, size: 0x8, addend: 0x0, symName: __ZN4grpc8CallData4InitEP17grpc_call_elementPK22grpc_call_element_args, symObjAddr: 0x53C, symBinAddr: 0x176F8, symSize: 0x8 }
  - { offsetInCU: 0x1BE05, offset: 0x1A024E, size: 0x8, addend: 0x0, symName: __ZN4grpc8CallData4InitEP17grpc_call_elementPK22grpc_call_element_args, symObjAddr: 0x53C, symBinAddr: 0x176F8, symSize: 0x8 }
  - { offsetInCU: 0x1BE22, offset: 0x1A026B, size: 0x8, addend: 0x0, symName: __ZN4grpc8CallData4InitEP17grpc_call_elementPK22grpc_call_element_args, symObjAddr: 0x53C, symBinAddr: 0x176F8, symSize: 0x8 }
  - { offsetInCU: 0x1BE3F, offset: 0x1A0288, size: 0x8, addend: 0x0, symName: __ZN4grpc8CallData7DestroyEP17grpc_call_elementPK20grpc_call_final_infoP12grpc_closure, symObjAddr: 0x544, symBinAddr: 0x17700, symSize: 0x4 }
  - { offsetInCU: 0x23FA3, offset: 0x1A83EC, size: 0x8, addend: 0x0, symName: '__ZNSt3__110__function6__funcIZN4grpc8internal21RegisterChannelFilterE23grpc_channel_stack_typeiNS_8functionIFbRK17grpc_channel_argsEEEPK19grpc_channel_filterE3$_2NS_9allocatorISE_EEFvPN9grpc_core17CoreConfiguration7BuilderEEED1Ev', symObjAddr: 0x2F18, symBinAddr: 0x17894, symSize: 0x5C }
  - { offsetInCU: 0x241A1, offset: 0x1A85EA, size: 0x8, addend: 0x0, symName: '__ZNSt3__110__function6__funcIZN4grpc8internal21RegisterChannelFilterE23grpc_channel_stack_typeiNS_8functionIFbRK17grpc_channel_argsEEEPK19grpc_channel_filterE3$_2NS_9allocatorISE_EEFvPN9grpc_core17CoreConfiguration7BuilderEEED0Ev', symObjAddr: 0x2F74, symBinAddr: 0x178F0, symSize: 0x5C }
  - { offsetInCU: 0x246C6, offset: 0x1A8B0F, size: 0x8, addend: 0x0, symName: '__ZNKSt3__110__function6__funcIZN4grpc8internal21RegisterChannelFilterE23grpc_channel_stack_typeiNS_8functionIFbRK17grpc_channel_argsEEEPK19grpc_channel_filterE3$_2NS_9allocatorISE_EEFvPN9grpc_core17CoreConfiguration7BuilderEEE7__cloneEv', symObjAddr: 0x2FD0, symBinAddr: 0x1794C, symSize: 0x60 }
  - { offsetInCU: 0x24BFB, offset: 0x1A9044, size: 0x8, addend: 0x0, symName: '__ZNKSt3__110__function6__funcIZN4grpc8internal21RegisterChannelFilterE23grpc_channel_stack_typeiNS_8functionIFbRK17grpc_channel_argsEEEPK19grpc_channel_filterE3$_2NS_9allocatorISE_EEFvPN9grpc_core17CoreConfiguration7BuilderEEE7__cloneEPNS0_6__baseISL_EE', symObjAddr: 0x3030, symBinAddr: 0x179AC, symSize: 0x48 }
  - { offsetInCU: 0x24EB0, offset: 0x1A92F9, size: 0x8, addend: 0x0, symName: '__ZNSt3__110__function6__funcIZN4grpc8internal21RegisterChannelFilterE23grpc_channel_stack_typeiNS_8functionIFbRK17grpc_channel_argsEEEPK19grpc_channel_filterE3$_2NS_9allocatorISE_EEFvPN9grpc_core17CoreConfiguration7BuilderEEE7destroyEv', symObjAddr: 0x3078, symBinAddr: 0x179F4, symSize: 0x34 }
  - { offsetInCU: 0x24EDB, offset: 0x1A9324, size: 0x8, addend: 0x0, symName: '__ZNSt3__110__function6__funcIZN4grpc8internal21RegisterChannelFilterE23grpc_channel_stack_typeiNS_8functionIFbRK17grpc_channel_argsEEEPK19grpc_channel_filterE3$_2NS_9allocatorISE_EEFvPN9grpc_core17CoreConfiguration7BuilderEEE7destroyEv', symObjAddr: 0x3078, symBinAddr: 0x179F4, symSize: 0x34 }
  - { offsetInCU: 0x24EFB, offset: 0x1A9344, size: 0x8, addend: 0x0, symName: '__ZNSt3__110__function6__funcIZN4grpc8internal21RegisterChannelFilterE23grpc_channel_stack_typeiNS_8functionIFbRK17grpc_channel_argsEEEPK19grpc_channel_filterE3$_2NS_9allocatorISE_EEFvPN9grpc_core17CoreConfiguration7BuilderEEE7destroyEv', symObjAddr: 0x3078, symBinAddr: 0x179F4, symSize: 0x34 }
  - { offsetInCU: 0x24F19, offset: 0x1A9362, size: 0x8, addend: 0x0, symName: '__ZNSt3__110__function6__funcIZN4grpc8internal21RegisterChannelFilterE23grpc_channel_stack_typeiNS_8functionIFbRK17grpc_channel_argsEEEPK19grpc_channel_filterE3$_2NS_9allocatorISE_EEFvPN9grpc_core17CoreConfiguration7BuilderEEE7destroyEv', symObjAddr: 0x3078, symBinAddr: 0x179F4, symSize: 0x34 }
  - { offsetInCU: 0x24F37, offset: 0x1A9380, size: 0x8, addend: 0x0, symName: '__ZNSt3__110__function6__funcIZN4grpc8internal21RegisterChannelFilterE23grpc_channel_stack_typeiNS_8functionIFbRK17grpc_channel_argsEEEPK19grpc_channel_filterE3$_2NS_9allocatorISE_EEFvPN9grpc_core17CoreConfiguration7BuilderEEE7destroyEv', symObjAddr: 0x3078, symBinAddr: 0x179F4, symSize: 0x34 }
  - { offsetInCU: 0x24F55, offset: 0x1A939E, size: 0x8, addend: 0x0, symName: '__ZNSt3__110__function6__funcIZN4grpc8internal21RegisterChannelFilterE23grpc_channel_stack_typeiNS_8functionIFbRK17grpc_channel_argsEEEPK19grpc_channel_filterE3$_2NS_9allocatorISE_EEFvPN9grpc_core17CoreConfiguration7BuilderEEE7destroyEv', symObjAddr: 0x3078, symBinAddr: 0x179F4, symSize: 0x34 }
  - { offsetInCU: 0x24F73, offset: 0x1A93BC, size: 0x8, addend: 0x0, symName: '__ZNSt3__110__function6__funcIZN4grpc8internal21RegisterChannelFilterE23grpc_channel_stack_typeiNS_8functionIFbRK17grpc_channel_argsEEEPK19grpc_channel_filterE3$_2NS_9allocatorISE_EEFvPN9grpc_core17CoreConfiguration7BuilderEEE7destroyEv', symObjAddr: 0x3078, symBinAddr: 0x179F4, symSize: 0x34 }
  - { offsetInCU: 0x25060, offset: 0x1A94A9, size: 0x8, addend: 0x0, symName: '__ZNSt3__110__function6__funcIZN4grpc8internal21RegisterChannelFilterE23grpc_channel_stack_typeiNS_8functionIFbRK17grpc_channel_argsEEEPK19grpc_channel_filterE3$_2NS_9allocatorISE_EEFvPN9grpc_core17CoreConfiguration7BuilderEEE18destroy_deallocateEv', symObjAddr: 0x30AC, symBinAddr: 0x17A28, symSize: 0x50 }
  - { offsetInCU: 0x257D8, offset: 0x1A9C21, size: 0x8, addend: 0x0, symName: '__ZNSt3__110__function6__funcIZN4grpc8internal21RegisterChannelFilterE23grpc_channel_stack_typeiNS_8functionIFbRK17grpc_channel_argsEEEPK19grpc_channel_filterE3$_2NS_9allocatorISE_EEFvPN9grpc_core17CoreConfiguration7BuilderEEEclEOSK_', symObjAddr: 0x30FC, symBinAddr: 0x17A78, symSize: 0x18C }
  - { offsetInCU: 0x25EDF, offset: 0x1AA328, size: 0x8, addend: 0x0, symName: '__ZNKSt3__110__function6__funcIZN4grpc8internal21RegisterChannelFilterE23grpc_channel_stack_typeiNS_8functionIFbRK17grpc_channel_argsEEEPK19grpc_channel_filterE3$_2NS_9allocatorISE_EEFvPN9grpc_core17CoreConfiguration7BuilderEEE6targetERKSt9type_info', symObjAddr: 0x3288, symBinAddr: 0x17C04, symSize: 0x3C }
  - { offsetInCU: 0x25F7C, offset: 0x1AA3C5, size: 0x8, addend: 0x0, symName: '__ZNKSt3__110__function6__funcIZN4grpc8internal21RegisterChannelFilterE23grpc_channel_stack_typeiNS_8functionIFbRK17grpc_channel_argsEEEPK19grpc_channel_filterE3$_2NS_9allocatorISE_EEFvPN9grpc_core17CoreConfiguration7BuilderEEE11target_typeEv', symObjAddr: 0x32C4, symBinAddr: 0x17C40, symSize: 0xC }
  - { offsetInCU: 0x2604A, offset: 0x1AA493, size: 0x8, addend: 0x0, symName: '__ZNSt3__110__function6__funcIZN4grpc8internal21RegisterChannelFilterE23grpc_channel_stack_typeiNS_8functionIFbRK17grpc_channel_argsEEEPK19grpc_channel_filterE3$_1NS_9allocatorISE_EEFbPN9grpc_core19ChannelStackBuilderEEED1Ev', symObjAddr: 0x3334, symBinAddr: 0x17CB0, symSize: 0x5C }
  - { offsetInCU: 0x26211, offset: 0x1AA65A, size: 0x8, addend: 0x0, symName: '__ZNSt3__110__function6__funcIZN4grpc8internal21RegisterChannelFilterE23grpc_channel_stack_typeiNS_8functionIFbRK17grpc_channel_argsEEEPK19grpc_channel_filterE3$_1NS_9allocatorISE_EEFbPN9grpc_core19ChannelStackBuilderEEED0Ev', symObjAddr: 0x3390, symBinAddr: 0x17D0C, symSize: 0x5C }
  - { offsetInCU: 0x266BD, offset: 0x1AAB06, size: 0x8, addend: 0x0, symName: '__ZNKSt3__110__function6__funcIZN4grpc8internal21RegisterChannelFilterE23grpc_channel_stack_typeiNS_8functionIFbRK17grpc_channel_argsEEEPK19grpc_channel_filterE3$_1NS_9allocatorISE_EEFbPN9grpc_core19ChannelStackBuilderEEE7__cloneEv', symObjAddr: 0x33EC, symBinAddr: 0x17D68, symSize: 0x68 }
  - { offsetInCU: 0x26BB1, offset: 0x1AAFFA, size: 0x8, addend: 0x0, symName: '__ZNKSt3__110__function6__funcIZN4grpc8internal21RegisterChannelFilterE23grpc_channel_stack_typeiNS_8functionIFbRK17grpc_channel_argsEEEPK19grpc_channel_filterE3$_1NS_9allocatorISE_EEFbPN9grpc_core19ChannelStackBuilderEEE7__cloneEPNS0_6__baseISK_EE', symObjAddr: 0x3454, symBinAddr: 0x17DD0, symSize: 0x40 }
  - { offsetInCU: 0x26E1B, offset: 0x1AB264, size: 0x8, addend: 0x0, symName: '__ZNSt3__110__function6__funcIZN4grpc8internal21RegisterChannelFilterE23grpc_channel_stack_typeiNS_8functionIFbRK17grpc_channel_argsEEEPK19grpc_channel_filterE3$_1NS_9allocatorISE_EEFbPN9grpc_core19ChannelStackBuilderEEE7destroyEv', symObjAddr: 0x3494, symBinAddr: 0x17E10, symSize: 0x34 }
  - { offsetInCU: 0x26F8D, offset: 0x1AB3D6, size: 0x8, addend: 0x0, symName: '__ZNSt3__110__function6__funcIZN4grpc8internal21RegisterChannelFilterE23grpc_channel_stack_typeiNS_8functionIFbRK17grpc_channel_argsEEEPK19grpc_channel_filterE3$_1NS_9allocatorISE_EEFbPN9grpc_core19ChannelStackBuilderEEE18destroy_deallocateEv', symObjAddr: 0x34C8, symBinAddr: 0x17E44, symSize: 0x50 }
  - { offsetInCU: 0x2732A, offset: 0x1AB773, size: 0x8, addend: 0x0, symName: '__ZNSt3__110__function6__funcIZN4grpc8internal21RegisterChannelFilterE23grpc_channel_stack_typeiNS_8functionIFbRK17grpc_channel_argsEEEPK19grpc_channel_filterE3$_1NS_9allocatorISE_EEFbPN9grpc_core19ChannelStackBuilderEEEclEOSJ_', symObjAddr: 0x3518, symBinAddr: 0x17E94, symSize: 0xA0 }
  - { offsetInCU: 0x275A0, offset: 0x1AB9E9, size: 0x8, addend: 0x0, symName: __ZNSt3__110unique_ptrIK17grpc_channel_argsN9grpc_core11ChannelArgs18ChannelArgsDeleterEE5resetB7v160006EPS2_, symObjAddr: 0x364C, symBinAddr: 0x17F7C, symSize: 0x28 }
  - { offsetInCU: 0x275E8, offset: 0x1ABA31, size: 0x8, addend: 0x0, symName: '__ZNKSt3__110__function6__funcIZN4grpc8internal21RegisterChannelFilterE23grpc_channel_stack_typeiNS_8functionIFbRK17grpc_channel_argsEEEPK19grpc_channel_filterE3$_1NS_9allocatorISE_EEFbPN9grpc_core19ChannelStackBuilderEEE6targetERKSt9type_info', symObjAddr: 0x35B8, symBinAddr: 0x17F34, symSize: 0x3C }
  - { offsetInCU: 0x27638, offset: 0x1ABA81, size: 0x8, addend: 0x0, symName: '__ZNKSt3__110__function6__funcIZN4grpc8internal21RegisterChannelFilterE23grpc_channel_stack_typeiNS_8functionIFbRK17grpc_channel_argsEEEPK19grpc_channel_filterE3$_1NS_9allocatorISE_EEFbPN9grpc_core19ChannelStackBuilderEEE11target_typeEv', symObjAddr: 0x35F4, symBinAddr: 0x17F70, symSize: 0xC }
  - { offsetInCU: 0x2657, offset: 0x1AE183, size: 0x8, addend: 0x0, symName: __ZN4grpc8internal13ClientReactor22InternalScheduleOnDoneENS_6StatusE, symObjAddr: 0x0, symBinAddr: 0x17FD8, symSize: 0x14C }
  - { offsetInCU: 0x4C93, offset: 0x1B07BF, size: 0x8, addend: 0x0, symName: __ZNK4grpc8internal13ClientReactor20InternalTrailersOnlyEPK9grpc_call, symObjAddr: 0x180, symBinAddr: 0x18124, symSize: 0x8 }
  - { offsetInCU: 0x4CF4, offset: 0x1B0820, size: 0x8, addend: 0x0, symName: __ZN4grpc8internal13ClientReactorD1Ev, symObjAddr: 0x188, symBinAddr: 0x4D1DC, symSize: 0x4 }
  - { offsetInCU: 0x4D1D, offset: 0x1B0849, size: 0x8, addend: 0x0, symName: __ZN4grpc8internal13ClientReactorD0Ev, symObjAddr: 0x18C, symBinAddr: 0x4D1E0, symSize: 0x4 }
  - { offsetInCU: 0x4F8B, offset: 0x1B0AB7, size: 0x8, addend: 0x0, symName: __ZZZN4grpc8internal13ClientReactor22InternalScheduleOnDoneENS_6StatusEEN14ClosureWithArgC1EPS1_S2_ENUlPvN4absl12lts_202206236StatusEE_8__invokeES5_S8_, symObjAddr: 0x23C, symBinAddr: 0x1812C, symSize: 0x54 }
  - { offsetInCU: 0x44, offset: 0x1B0E5A, size: 0x8, addend: 0x0, symName: __ZN4grpcL17g_gli_initializerE, symObjAddr: 0x8C1B0, symBinAddr: 0x6D810, symSize: 0x0 }
  - { offsetInCU: 0xED4, offset: 0x1B1CEA, size: 0x8, addend: 0x0, symName: __ZN4grpcL26g_default_client_callbacksE, symObjAddr: 0x8C1B8, symBinAddr: 0x6D818, symSize: 0x0 }
  - { offsetInCU: 0x24B8, offset: 0x1B32CE, size: 0x8, addend: 0x0, symName: __ZN4grpcL18g_client_callbacksE, symObjAddr: 0x8C1C0, symBinAddr: 0x6D820, symSize: 0x0 }
  - { offsetInCU: 0xFAF1, offset: 0x1C0907, size: 0x8, addend: 0x0, symName: __ZN4grpc13ClientContextC2Ev, symObjAddr: 0x0, symBinAddr: 0x181B4, symSize: 0x1D8 }
  - { offsetInCU: 0x10501, offset: 0x1C1317, size: 0x8, addend: 0x0, symName: __ZN4grpc8internal11MetadataMapD2Ev, symObjAddr: 0xBB4, symBinAddr: 0x18B78, symSize: 0x4C }
  - { offsetInCU: 0x10604, offset: 0x1C141A, size: 0x8, addend: 0x0, symName: __ZNSt3__16__treeINS_12__value_typeINS_12basic_stringIcNS_11char_traitsIcEENS_9allocatorIcEEEES7_EENS_19__map_value_compareIS7_S8_NS_4lessIS7_EELb1EEENS5_IS8_EEE7destroyEPNS_11__tree_nodeIS8_PvEE, symObjAddr: 0x1254, symBinAddr: 0x1909C, symSize: 0x4C }
  - { offsetInCU: 0x1078A, offset: 0x1C15A0, size: 0x8, addend: 0x0, symName: __ZNSt3__110shared_ptrIKN4grpc11AuthContextEED2B7v160006Ev, symObjAddr: 0x1028, symBinAddr: 0x18FEC, symSize: 0x58 }
  - { offsetInCU: 0x1081D, offset: 0x1C1633, size: 0x8, addend: 0x0, symName: __ZNSt3__110shared_ptrIN4grpc15CallCredentialsEED2B7v160006Ev, symObjAddr: 0x11FC, symBinAddr: 0x19044, symSize: 0x58 }
  - { offsetInCU: 0x108FE, offset: 0x1C1714, size: 0x8, addend: 0x0, symName: __ZN4grpc13ClientContextC1Ev, symObjAddr: 0x1D8, symBinAddr: 0x1838C, symSize: 0x4 }
  - { offsetInCU: 0x10921, offset: 0x1C1737, size: 0x8, addend: 0x0, symName: __ZN4grpc13ClientContextC1Ev, symObjAddr: 0x1D8, symBinAddr: 0x1838C, symSize: 0x4 }
  - { offsetInCU: 0x10935, offset: 0x1C174B, size: 0x8, addend: 0x0, symName: __ZN4grpc13ClientContextD2Ev, symObjAddr: 0x1DC, symBinAddr: 0x18390, symSize: 0xC8 }
  - { offsetInCU: 0x10E51, offset: 0x1C1C67, size: 0x8, addend: 0x0, symName: __ZN4grpc13ClientContextD1Ev, symObjAddr: 0x2B0, symBinAddr: 0x18458, symSize: 0x4 }
  - { offsetInCU: 0x10E7F, offset: 0x1C1C95, size: 0x8, addend: 0x0, symName: __ZN4grpc13ClientContextD1Ev, symObjAddr: 0x2B0, symBinAddr: 0x18458, symSize: 0x4 }
  - { offsetInCU: 0x10EC4, offset: 0x1C1CDA, size: 0x8, addend: 0x0, symName: __ZN4grpc13ClientContext15set_credentialsERKNSt3__110shared_ptrINS_15CallCredentialsEEE, symObjAddr: 0x2B4, symBinAddr: 0x1845C, symSize: 0x6C }
  - { offsetInCU: 0x10F99, offset: 0x1C1DAF, size: 0x8, addend: 0x0, symName: __ZNSt3__110shared_ptrIN4grpc15CallCredentialsEEaSB7v160006ERKS3_, symObjAddr: 0x320, symBinAddr: 0x184C8, symSize: 0x78 }
  - { offsetInCU: 0x11154, offset: 0x1C1F6A, size: 0x8, addend: 0x0, symName: __ZN4grpc13ClientContext24SendCancelToInterceptorsEv, symObjAddr: 0x398, symBinAddr: 0x18540, symSize: 0x74 }
  - { offsetInCU: 0x1139E, offset: 0x1C21B4, size: 0x8, addend: 0x0, symName: __ZN4grpc12experimental13ClientRpcInfo14RunInterceptorEPNS0_23InterceptorBatchMethodsEm, symObjAddr: 0x854, symBinAddr: 0x189FC, symSize: 0x80 }
  - { offsetInCU: 0x11599, offset: 0x1C23AF, size: 0x8, addend: 0x0, symName: __ZN4grpc13ClientContext25FromInternalServerContextERKNS_17ServerContextBaseENS_18PropagationOptionsE, symObjAddr: 0x40C, symBinAddr: 0x185B4, symSize: 0x60 }
  - { offsetInCU: 0x116A4, offset: 0x1C24BA, size: 0x8, addend: 0x0, symName: __ZN4grpc13ClientContext17FromServerContextERKNS_17ServerContextBaseENS_18PropagationOptionsE, symObjAddr: 0x46C, symBinAddr: 0x18614, symSize: 0x8 }
  - { offsetInCU: 0x116F8, offset: 0x1C250E, size: 0x8, addend: 0x0, symName: __ZN4grpc13ClientContext25FromCallbackServerContextERKNS_21CallbackServerContextENS_18PropagationOptionsE, symObjAddr: 0x474, symBinAddr: 0x1861C, symSize: 0x8 }
  - { offsetInCU: 0x11841, offset: 0x1C2657, size: 0x8, addend: 0x0, symName: __ZN4grpc13ClientContext11AddMetadataERKNSt3__112basic_stringIcNS1_11char_traitsIcEENS1_9allocatorIcEEEES9_, symObjAddr: 0x47C, symBinAddr: 0x18624, symSize: 0x6C }
  - { offsetInCU: 0x11BFD, offset: 0x1C2A13, size: 0x8, addend: 0x0, symName: __ZNSt3__14pairINS_12basic_stringIcNS_11char_traitsIcEENS_9allocatorIcEEEES6_EC2B7v160006ILb1ELPv0EEERKS6_SB_, symObjAddr: 0xC00, symBinAddr: 0x18BC4, symSize: 0x50 }
  - { offsetInCU: 0x11D67, offset: 0x1C2B7D, size: 0x8, addend: 0x0, symName: __ZNSt3__16__treeINS_12__value_typeINS_12basic_stringIcNS_11char_traitsIcEENS_9allocatorIcEEEES7_EENS_19__map_value_compareIS7_S8_NS_4lessIS7_EELb1EEENS5_IS8_EEE15__emplace_multiIJNS_4pairIS7_S7_EEEEENS_15__tree_iteratorIS8_PNS_11__tree_nodeIS8_PvEElEEDpOT_, symObjAddr: 0x12E4, symBinAddr: 0x1912C, symSize: 0xC4 }
  - { offsetInCU: 0x12170, offset: 0x1C2F86, size: 0x8, addend: 0x0, symName: __ZNSt3__14pairINS_12basic_stringIcNS_11char_traitsIcEENS_9allocatorIcEEEES6_ED1Ev, symObjAddr: 0x4E8, symBinAddr: 0x18690, symSize: 0x40 }
  - { offsetInCU: 0x124AA, offset: 0x1C32C0, size: 0x8, addend: 0x0, symName: __ZN4grpc13ClientContext8set_callEP9grpc_callRKNSt3__110shared_ptrINS_7ChannelEEE, symObjAddr: 0x528, symBinAddr: 0x186D0, symSize: 0x138 }
  - { offsetInCU: 0x126F9, offset: 0x1C350F, size: 0x8, addend: 0x0, symName: __ZNSt3__110shared_ptrIN4grpc7ChannelEEaSB7v160006ERKS3_, symObjAddr: 0x660, symBinAddr: 0x18808, symSize: 0x78 }
  - { offsetInCU: 0x129B0, offset: 0x1C37C6, size: 0x8, addend: 0x0, symName: __ZN4grpc13ClientContext25set_compression_algorithmE26grpc_compression_algorithm, symObjAddr: 0x6D8, symBinAddr: 0x18880, symSize: 0xD4 }
  - { offsetInCU: 0x131C9, offset: 0x1C3FDF, size: 0x8, addend: 0x0, symName: __ZN4grpc13ClientContext25set_compression_algorithmE26grpc_compression_algorithm.cold.2, symObjAddr: 0x16F8, symBinAddr: 0x4D210, symSize: 0x34 }
  - { offsetInCU: 0x131E1, offset: 0x1C3FF7, size: 0x8, addend: 0x0, symName: __ZN4grpc13ClientContext25set_compression_algorithmE26grpc_compression_algorithm.cold.1, symObjAddr: 0x16CC, symBinAddr: 0x4D1E4, symSize: 0x2C }
  - { offsetInCU: 0x131F9, offset: 0x1C400F, size: 0x8, addend: 0x0, symName: __ZN4grpc13ClientContext9TryCancelEv, symObjAddr: 0x7AC, symBinAddr: 0x18954, symSize: 0xA8 }
  - { offsetInCU: 0x133A5, offset: 0x1C41BB, size: 0x8, addend: 0x0, symName: __ZN4grpc8internal29CancelInterceptorBatchMethodsD1Ev, symObjAddr: 0x8D4, symBinAddr: 0x18A7C, symSize: 0x4 }
  - { offsetInCU: 0x133F4, offset: 0x1C420A, size: 0x8, addend: 0x0, symName: __ZNK4grpc13ClientContext4peerEv, symObjAddr: 0x8D8, symBinAddr: 0x18A80, symSize: 0x64 }
  - { offsetInCU: 0x1361B, offset: 0x1C4431, size: 0x8, addend: 0x0, symName: __ZN4grpc13ClientContext18SetGlobalCallbacksEPNS0_15GlobalCallbacksE, symObjAddr: 0x93C, symBinAddr: 0x18AE4, symSize: 0x44 }
  - { offsetInCU: 0x1366C, offset: 0x1C4482, size: 0x8, addend: 0x0, symName: __ZN4grpc13ClientContext18SetGlobalCallbacksEPNS0_15GlobalCallbacksE.cold.3, symObjAddr: 0x1794, symBinAddr: 0x4D2AC, symSize: 0x34 }
  - { offsetInCU: 0x13684, offset: 0x1C449A, size: 0x8, addend: 0x0, symName: __ZN4grpc13ClientContext18SetGlobalCallbacksEPNS0_15GlobalCallbacksE.cold.1, symObjAddr: 0x172C, symBinAddr: 0x4D244, symSize: 0x34 }
  - { offsetInCU: 0x1369C, offset: 0x1C44B2, size: 0x8, addend: 0x0, symName: __ZN4grpc13ClientContext18SetGlobalCallbacksEPNS0_15GlobalCallbacksE.cold.2, symObjAddr: 0x1760, symBinAddr: 0x4D278, symSize: 0x34 }
  - { offsetInCU: 0x136B4, offset: 0x1C44CA, size: 0x8, addend: 0x0, symName: __ZN4grpc28DefaultGlobalClientCallbacksD1Ev, symObjAddr: 0xAB0, symBinAddr: 0x18B28, symSize: 0x4 }
  - { offsetInCU: 0x136DD, offset: 0x1C44F3, size: 0x8, addend: 0x0, symName: __ZN4grpc28DefaultGlobalClientCallbacksD0Ev, symObjAddr: 0xAB4, symBinAddr: 0x18B2C, symSize: 0x4 }
  - { offsetInCU: 0x13706, offset: 0x1C451C, size: 0x8, addend: 0x0, symName: __ZN4grpc28DefaultGlobalClientCallbacks18DefaultConstructorEPNS_13ClientContextE, symObjAddr: 0xAB8, symBinAddr: 0x18B30, symSize: 0x4 }
  - { offsetInCU: 0x13735, offset: 0x1C454B, size: 0x8, addend: 0x0, symName: __ZN4grpc28DefaultGlobalClientCallbacks10DestructorEPNS_13ClientContextE, symObjAddr: 0xABC, symBinAddr: 0x18B34, symSize: 0x4 }
  - { offsetInCU: 0x137C6, offset: 0x1C45DC, size: 0x8, addend: 0x0, symName: __ZNSt3__16__treeINS_12__value_typeIN4grpc10string_refES3_EENS_19__map_value_compareIS3_S4_NS_4lessIS3_EELb1EEENS_9allocatorIS4_EEE7destroyEPNS_11__tree_nodeIS4_PvEE, symObjAddr: 0xAC0, symBinAddr: 0x18B38, symSize: 0x40 }
  - { offsetInCU: 0x13CC3, offset: 0x1C4AD9, size: 0x8, addend: 0x0, symName: __ZN4grpc8internal29CancelInterceptorBatchMethodsD0Ev, symObjAddr: 0xC50, symBinAddr: 0x18C14, symSize: 0x4 }
  - { offsetInCU: 0x13CEF, offset: 0x1C4B05, size: 0x8, addend: 0x0, symName: __ZN4grpc8internal29CancelInterceptorBatchMethods26QueryInterceptionHookPointENS_12experimental22InterceptionHookPointsE, symObjAddr: 0xC54, symBinAddr: 0x18C18, symSize: 0xC }
  - { offsetInCU: 0x13D24, offset: 0x1C4B3A, size: 0x8, addend: 0x0, symName: __ZN4grpc8internal29CancelInterceptorBatchMethods7ProceedEv, symObjAddr: 0xC60, symBinAddr: 0x18C24, symSize: 0x4 }
  - { offsetInCU: 0x13D49, offset: 0x1C4B5F, size: 0x8, addend: 0x0, symName: __ZN4grpc8internal29CancelInterceptorBatchMethods6HijackEv, symObjAddr: 0xC64, symBinAddr: 0x18C28, symSize: 0x2C }
  - { offsetInCU: 0x13D84, offset: 0x1C4B9A, size: 0x8, addend: 0x0, symName: __ZN4grpc8internal29CancelInterceptorBatchMethods24GetSerializedSendMessageEv, symObjAddr: 0xC90, symBinAddr: 0x18C54, symSize: 0x40 }
  - { offsetInCU: 0x13DBF, offset: 0x1C4BD5, size: 0x8, addend: 0x0, symName: __ZN4grpc8internal29CancelInterceptorBatchMethods14GetSendMessageEv, symObjAddr: 0xCD0, symBinAddr: 0x18C94, symSize: 0x40 }
  - { offsetInCU: 0x13DFA, offset: 0x1C4C10, size: 0x8, addend: 0x0, symName: __ZN4grpc8internal29CancelInterceptorBatchMethods17ModifySendMessageEPKv, symObjAddr: 0xD10, symBinAddr: 0x18CD4, symSize: 0x2C }
  - { offsetInCU: 0x13E42, offset: 0x1C4C58, size: 0x8, addend: 0x0, symName: __ZN4grpc8internal29CancelInterceptorBatchMethods20GetSendMessageStatusEv, symObjAddr: 0xD3C, symBinAddr: 0x18D00, symSize: 0x40 }
  - { offsetInCU: 0x13E7D, offset: 0x1C4C93, size: 0x8, addend: 0x0, symName: __ZN4grpc8internal29CancelInterceptorBatchMethods22GetSendInitialMetadataEv, symObjAddr: 0xD7C, symBinAddr: 0x18D40, symSize: 0x40 }
  - { offsetInCU: 0x13EEC, offset: 0x1C4D02, size: 0x8, addend: 0x0, symName: __ZN4grpc8internal29CancelInterceptorBatchMethods13GetSendStatusEv, symObjAddr: 0xDBC, symBinAddr: 0x18D80, symSize: 0x5C }
  - { offsetInCU: 0x13FBF, offset: 0x1C4DD5, size: 0x8, addend: 0x0, symName: __ZN4grpc8internal29CancelInterceptorBatchMethods16ModifySendStatusERKNS_6StatusE, symObjAddr: 0xE18, symBinAddr: 0x18DDC, symSize: 0x2C }
  - { offsetInCU: 0x14007, offset: 0x1C4E1D, size: 0x8, addend: 0x0, symName: __ZN4grpc8internal29CancelInterceptorBatchMethods23GetSendTrailingMetadataEv, symObjAddr: 0xE44, symBinAddr: 0x18E08, symSize: 0x40 }
  - { offsetInCU: 0x14042, offset: 0x1C4E58, size: 0x8, addend: 0x0, symName: __ZN4grpc8internal29CancelInterceptorBatchMethods14GetRecvMessageEv, symObjAddr: 0xE84, symBinAddr: 0x18E48, symSize: 0x40 }
  - { offsetInCU: 0x1407D, offset: 0x1C4E93, size: 0x8, addend: 0x0, symName: __ZN4grpc8internal29CancelInterceptorBatchMethods22GetRecvInitialMetadataEv, symObjAddr: 0xEC4, symBinAddr: 0x18E88, symSize: 0x40 }
  - { offsetInCU: 0x140B8, offset: 0x1C4ECE, size: 0x8, addend: 0x0, symName: __ZN4grpc8internal29CancelInterceptorBatchMethods13GetRecvStatusEv, symObjAddr: 0xF04, symBinAddr: 0x18EC8, symSize: 0x40 }
  - { offsetInCU: 0x140F3, offset: 0x1C4F09, size: 0x8, addend: 0x0, symName: __ZN4grpc8internal29CancelInterceptorBatchMethods23GetRecvTrailingMetadataEv, symObjAddr: 0xF44, symBinAddr: 0x18F08, symSize: 0x40 }
  - { offsetInCU: 0x14239, offset: 0x1C504F, size: 0x8, addend: 0x0, symName: __ZN4grpc8internal29CancelInterceptorBatchMethods21GetInterceptedChannelEv, symObjAddr: 0xF84, symBinAddr: 0x18F48, symSize: 0x4C }
  - { offsetInCU: 0x14310, offset: 0x1C5126, size: 0x8, addend: 0x0, symName: __ZN4grpc8internal29CancelInterceptorBatchMethods23FailHijackedRecvMessageEv, symObjAddr: 0xFD0, symBinAddr: 0x18F94, symSize: 0x2C }
  - { offsetInCU: 0x1434B, offset: 0x1C5161, size: 0x8, addend: 0x0, symName: __ZN4grpc8internal29CancelInterceptorBatchMethods23FailHijackedSendMessageEv, symObjAddr: 0xFFC, symBinAddr: 0x18FC0, symSize: 0x2C }
  - { offsetInCU: 0x14640, offset: 0x1C5456, size: 0x8, addend: 0x0, symName: __ZNSt3__116allocator_traitsINS_9allocatorINS_11__tree_nodeINS_12__value_typeINS_12basic_stringIcNS_11char_traitsIcEENS1_IcEEEES8_EEPvEEEEE7destroyB7v160006INS_4pairIKS8_S8_EEvvEEvRSC_PT_, symObjAddr: 0x12A0, symBinAddr: 0x190E8, symSize: 0x44 }
  - { offsetInCU: 0x14CA1, offset: 0x1C5AB7, size: 0x8, addend: 0x0, symName: __ZNSt3__16__treeINS_12__value_typeINS_12basic_stringIcNS_11char_traitsIcEENS_9allocatorIcEEEES7_EENS_19__map_value_compareIS7_S8_NS_4lessIS7_EELb1EEENS5_IS8_EEE16__find_leaf_highERPNS_15__tree_end_nodeIPNS_16__tree_node_baseIPvEEEERKS7_, symObjAddr: 0x13A8, symBinAddr: 0x191F0, symSize: 0x78 }
  - { offsetInCU: 0x14D63, offset: 0x1C5B79, size: 0x8, addend: 0x0, symName: __ZNSt3__16__treeINS_12__value_typeINS_12basic_stringIcNS_11char_traitsIcEENS_9allocatorIcEEEES7_EENS_19__map_value_compareIS7_S8_NS_4lessIS7_EELb1EEENS5_IS8_EEE16__insert_node_atEPNS_15__tree_end_nodeIPNS_16__tree_node_baseIPvEEEERSJ_SJ_, symObjAddr: 0x1420, symBinAddr: 0x19268, symSize: 0x54 }
  - { offsetInCU: 0x14DCC, offset: 0x1C5BE2, size: 0x8, addend: 0x0, symName: __ZNSt3__122__tree_node_destructorINS_9allocatorINS_11__tree_nodeINS_12__value_typeINS_12basic_stringIcNS_11char_traitsIcEENS1_IcEEEES8_EEPvEEEEEclB7v160006EPSB_, symObjAddr: 0x1688, symBinAddr: 0x19338, symSize: 0x44 }
  - { offsetInCU: 0x14F1C, offset: 0x1C5D32, size: 0x8, addend: 0x0, symName: __ZNKSt3__14lessINS_12basic_stringIcNS_11char_traitsIcEENS_9allocatorIcEEEEEclB7v160006ERKS6_S9_, symObjAddr: 0x1474, symBinAddr: 0x192BC, symSize: 0x7C }
  - { offsetInCU: 0x152B6, offset: 0x1C60CC, size: 0x8, addend: 0x0, symName: _OUTLINED_FUNCTION_0, symObjAddr: 0x17C8, symBinAddr: 0x1937C, symSize: 0x8 }
  - { offsetInCU: 0x26, offset: 0x1C6118, size: 0x8, addend: 0x0, symName: __ZN4grpc12experimental38RegisterGlobalClientInterceptorFactoryEPNS0_33ClientInterceptorFactoryInterfaceE, symObjAddr: 0x0, symBinAddr: 0x193C8, symSize: 0x24 }
  - { offsetInCU: 0x4A, offset: 0x1C613C, size: 0x8, addend: 0x0, symName: __ZN4grpc8internal35g_global_client_interceptor_factoryE, symObjAddr: 0x30840, symBinAddr: 0x6D928, symSize: 0x0 }
  - { offsetInCU: 0x5E, offset: 0x1C6150, size: 0x8, addend: 0x0, symName: __ZN4grpc12experimental38RegisterGlobalClientInterceptorFactoryEPNS0_33ClientInterceptorFactoryInterfaceE, symObjAddr: 0x0, symBinAddr: 0x193C8, symSize: 0x24 }
  - { offsetInCU: 0x8C, offset: 0x1C617E, size: 0x8, addend: 0x0, symName: __ZN4grpc12experimental43TestOnlyResetGlobalClientInterceptorFactoryEv, symObjAddr: 0x24, symBinAddr: 0x193EC, symSize: 0xC }
  - { offsetInCU: 0x97, offset: 0x1C6189, size: 0x8, addend: 0x0, symName: __ZN4grpc12experimental43TestOnlyResetGlobalClientInterceptorFactoryEv, symObjAddr: 0x24, symBinAddr: 0x193EC, symSize: 0xC }
  - { offsetInCU: 0x40EF, offset: 0x1CA1E1, size: 0x8, addend: 0x0, symName: __ZN4grpc12experimental38RegisterGlobalClientInterceptorFactoryEPNS0_33ClientInterceptorFactoryInterfaceE.cold.1, symObjAddr: 0x30, symBinAddr: 0x4D2E0, symSize: 0x38 }
  - { offsetInCU: 0x38, offset: 0x1CA231, size: 0x8, addend: 0x0, symName: __ZN4grpc24g_core_codegen_interfaceE, symObjAddr: 0x12490, symBinAddr: 0x6D930, symSize: 0x0 }
  - { offsetInCU: 0x52, offset: 0x1CA24B, size: 0x8, addend: 0x0, symName: __ZN4grpc6g_glipE, symObjAddr: 0x12498, symBinAddr: 0x6D938, symSize: 0x0 }
  - { offsetInCU: 0x46, offset: 0x1CE2E1, size: 0x8, addend: 0x0, symName: __ZN4grpc12_GLOBAL__N_117g_gli_initializerE, symObjAddr: 0x32490, symBinAddr: 0x6D828, symSize: 0x0 }
  - { offsetInCU: 0x5F, offset: 0x1CE2FA, size: 0x8, addend: 0x0, symName: __ZN4grpc12_GLOBAL__N_125g_callback_alternative_cqE.0, symObjAddr: 0x32498, symBinAddr: 0x6D830, symSize: 0x0 }
  - { offsetInCU: 0x6C, offset: 0x1CE307, size: 0x8, addend: 0x0, symName: __ZN4grpc12_GLOBAL__N_125g_callback_alternative_cqE.1, symObjAddr: 0x324A0, symBinAddr: 0x6D838, symSize: 0x0 }
  - { offsetInCU: 0x77, offset: 0x1CE312, size: 0x8, addend: 0x0, symName: __ZN4grpc12_GLOBAL__N_125g_callback_alternative_cqE.2, symObjAddr: 0x324A8, symBinAddr: 0x6D840, symSize: 0x0 }
  - { offsetInCU: 0xF4, offset: 0x1CE38F, size: 0x8, addend: 0x0, symName: __ZN4grpc12_GLOBAL__N_132g_once_init_callback_alternativeE, symObjAddr: 0x1558, symBinAddr: 0x6D7A8, symSize: 0x0 }
  - { offsetInCU: 0x10D, offset: 0x1CE3A8, size: 0x8, addend: 0x0, symName: __ZN4grpc12_GLOBAL__N_125g_callback_alternative_muE, symObjAddr: 0x324B0, symBinAddr: 0x6D848, symSize: 0x0 }
  - { offsetInCU: 0x48B6, offset: 0x1D2B51, size: 0x8, addend: 0x0, symName: __ZNSt3__119__allocate_at_leastB7v160006INS_9allocatorIN9grpc_core6ThreadEEEEENS_19__allocation_resultINS_16allocator_traitsIT_E7pointerEEERS7_m, symObjAddr: 0xD24, symBinAddr: 0x19CC8, symSize: 0x34 }
  - { offsetInCU: 0x526E, offset: 0x1D3509, size: 0x8, addend: 0x0, symName: __ZNSt3__16vectorIN9grpc_core6ThreadENS_9allocatorIS2_EEE26__swap_out_circular_bufferERNS_14__split_bufferIS2_RS4_EE, symObjAddr: 0xC00, symBinAddr: 0x19C18, symSize: 0x9C }
  - { offsetInCU: 0x7535, offset: 0x1D57D0, size: 0x8, addend: 0x0, symName: __ZN4grpc15CompletionQueueC2EP21grpc_completion_queue, symObjAddr: 0x0, symBinAddr: 0x193F8, symSize: 0x80 }
  - { offsetInCU: 0x776A, offset: 0x1D5A05, size: 0x8, addend: 0x0, symName: __ZN4grpc15CompletionQueueC1EP21grpc_completion_queue, symObjAddr: 0x19C, symBinAddr: 0x19478, symSize: 0x4 }
  - { offsetInCU: 0x77A6, offset: 0x1D5A41, size: 0x8, addend: 0x0, symName: __ZN4grpc15CompletionQueueC1EP21grpc_completion_queue, symObjAddr: 0x19C, symBinAddr: 0x19478, symSize: 0x4 }
  - { offsetInCU: 0x77D8, offset: 0x1D5A73, size: 0x8, addend: 0x0, symName: __ZN4grpc15CompletionQueue8ShutdownEv, symObjAddr: 0x1A0, symBinAddr: 0x1947C, symSize: 0x7C }
  - { offsetInCU: 0x785F, offset: 0x1D5AFA, size: 0x8, addend: 0x0, symName: __ZNK4grpc15CompletionQueue15ServerListEmptyEv, symObjAddr: 0x21C, symBinAddr: 0x194F8, symSize: 0x68 }
  - { offsetInCU: 0x7A83, offset: 0x1D5D1E, size: 0x8, addend: 0x0, symName: __ZN4grpc15CompletionQueue17AsyncNextInternalEPPvPb12gpr_timespec, symObjAddr: 0x284, symBinAddr: 0x19560, symSize: 0xA0 }
  - { offsetInCU: 0x7B70, offset: 0x1D5E0B, size: 0x8, addend: 0x0, symName: __ZN4grpc15CompletionQueue23CompletionQueueTLSCacheC2EPS0_, symObjAddr: 0x324, symBinAddr: 0x19600, symSize: 0x30 }
  - { offsetInCU: 0x7BE5, offset: 0x1D5E80, size: 0x8, addend: 0x0, symName: __ZN4grpc15CompletionQueue23CompletionQueueTLSCacheC1EPS0_, symObjAddr: 0x354, symBinAddr: 0x19630, symSize: 0x30 }
  - { offsetInCU: 0x7C52, offset: 0x1D5EED, size: 0x8, addend: 0x0, symName: __ZN4grpc15CompletionQueue23CompletionQueueTLSCacheD2Ev, symObjAddr: 0x384, symBinAddr: 0x19660, symSize: 0x54 }
  - { offsetInCU: 0x7C9B, offset: 0x1D5F36, size: 0x8, addend: 0x0, symName: __ZN4grpc15CompletionQueue23CompletionQueueTLSCacheD1Ev, symObjAddr: 0x3E4, symBinAddr: 0x196B4, symSize: 0x4 }
  - { offsetInCU: 0x7CC9, offset: 0x1D5F64, size: 0x8, addend: 0x0, symName: __ZN4grpc15CompletionQueue23CompletionQueueTLSCacheD1Ev, symObjAddr: 0x3E4, symBinAddr: 0x196B4, symSize: 0x4 }
  - { offsetInCU: 0x7CDD, offset: 0x1D5F78, size: 0x8, addend: 0x0, symName: __ZN4grpc15CompletionQueue23CompletionQueueTLSCache5FlushEPPvPb, symObjAddr: 0x3E8, symBinAddr: 0x196B8, symSize: 0x84 }
  - { offsetInCU: 0x844F, offset: 0x1D66EA, size: 0x8, addend: 0x0, symName: __ZN4grpc15CompletionQueue21CallbackAlternativeCQEv, symObjAddr: 0x46C, symBinAddr: 0x1973C, symSize: 0x294 }
  - { offsetInCU: 0x8D52, offset: 0x1D6FED, size: 0x8, addend: 0x0, symName: __ZNSt3__114__split_bufferIN9grpc_core6ThreadERNS_9allocatorIS2_EEED2Ev, symObjAddr: 0xDDC, symBinAddr: 0x19D58, symSize: 0x4C }
  - { offsetInCU: 0x8EFB, offset: 0x1D7196, size: 0x8, addend: 0x0, symName: __ZN9grpc_core6Thread5StartEv, symObjAddr: 0x9E4, symBinAddr: 0x19AF4, symSize: 0x50 }
  - { offsetInCU: 0x8F49, offset: 0x1D71E4, size: 0x8, addend: 0x0, symName: __ZNKSt3__16vectorIN9grpc_core6ThreadENS_9allocatorIS2_EEE20__throw_length_errorB7v160006Ev, symObjAddr: 0xC9C, symBinAddr: 0x19CB4, symSize: 0x14 }
  - { offsetInCU: 0x8FE9, offset: 0x1D7284, size: 0x8, addend: 0x0, symName: __ZN4grpc15CompletionQueue28ReleaseCallbackAlternativeCQEPS0_, symObjAddr: 0x700, symBinAddr: 0x199D0, symSize: 0xE0 }
  - { offsetInCU: 0x921A, offset: 0x1D74B5, size: 0x8, addend: 0x0, symName: __ZN9grpc_core6Thread4JoinEv, symObjAddr: 0xE28, symBinAddr: 0x19DA4, symSize: 0x64 }
  - { offsetInCU: 0x925A, offset: 0x1D74F5, size: 0x8, addend: 0x0, symName: __ZNSt3__16vectorIN9grpc_core6ThreadENS_9allocatorIS2_EEED2B7v160006Ev, symObjAddr: 0xE8C, symBinAddr: 0x19E08, symSize: 0x38 }
  - { offsetInCU: 0x9266, offset: 0x1D7501, size: 0x8, addend: 0x0, symName: __ZNSt3__16vectorIN9grpc_core6ThreadENS_9allocatorIS2_EEED2B7v160006Ev, symObjAddr: 0xE8C, symBinAddr: 0x19E08, symSize: 0x38 }
  - { offsetInCU: 0x92F3, offset: 0x1D758E, size: 0x8, addend: 0x0, symName: __ZN4grpc15CompletionQueue28ReleaseCallbackAlternativeCQEPS0_.cold.1, symObjAddr: 0xFA4, symBinAddr: 0x4D318, symSize: 0x34 }
  - { offsetInCU: 0x94E8, offset: 0x1D7783, size: 0x8, addend: 0x0, symName: '__ZZN4grpc15CompletionQueue21CallbackAlternativeCQEvEN3$_08__invokeEv', symObjAddr: 0x9A0, symBinAddr: 0x19AB0, symSize: 0x44 }
  - { offsetInCU: 0x9564, offset: 0x1D77FF, size: 0x8, addend: 0x0, symName: __ZN9grpc_core6Thread5StartEv.cold.2, symObjAddr: 0x100C, symBinAddr: 0x4D380, symSize: 0x34 }
  - { offsetInCU: 0x957C, offset: 0x1D7817, size: 0x8, addend: 0x0, symName: __ZN9grpc_core6Thread5StartEv.cold.1, symObjAddr: 0xFD8, symBinAddr: 0x4D34C, symSize: 0x34 }
  - { offsetInCU: 0x9690, offset: 0x1D792B, size: 0x8, addend: 0x0, symName: __ZZN4grpc12_GLOBAL__N_121CallbackAlternativeCQ3RefEvENUlPvE_8__invokeES2_, symObjAddr: 0xB2C, symBinAddr: 0x19B44, symSize: 0xD4 }
  - { offsetInCU: 0x97D6, offset: 0x1D7A71, size: 0x8, addend: 0x0, symName: __ZNSt3__16vectorIN9grpc_core6ThreadENS_9allocatorIS2_EEE26__swap_out_circular_bufferERNS_14__split_bufferIS2_RS4_EE, symObjAddr: 0xC00, symBinAddr: 0x19C18, symSize: 0x9C }
  - { offsetInCU: 0x982F, offset: 0x1D7ACA, size: 0x8, addend: 0x0, symName: __ZZN4grpc12_GLOBAL__N_121CallbackAlternativeCQ3RefEvENUlPvE_8__invokeES2_.cold.1, symObjAddr: 0x1040, symBinAddr: 0x4D3B4, symSize: 0x34 }
  - { offsetInCU: 0x9A00, offset: 0x1D7C9B, size: 0x8, addend: 0x0, symName: __ZN9grpc_core6ThreadD2Ev, symObjAddr: 0xD80, symBinAddr: 0x19CFC, symSize: 0x5C }
  - { offsetInCU: 0x9B8D, offset: 0x1D7E28, size: 0x8, addend: 0x0, symName: __ZN9grpc_core6Thread4JoinEv.cold.1, symObjAddr: 0x1074, symBinAddr: 0x4D3E8, symSize: 0x34 }
  - { offsetInCU: 0x9BF8, offset: 0x1D7E93, size: 0x8, addend: 0x0, symName: __ZNSt3__16vectorIN9grpc_core6ThreadENS_9allocatorIS2_EEE16__destroy_vectorclB7v160006Ev, symObjAddr: 0xEC4, symBinAddr: 0x19E40, symSize: 0x70 }
  - { offsetInCU: 0x9DD5, offset: 0x1D8070, size: 0x8, addend: 0x0, symName: _OUTLINED_FUNCTION_0, symObjAddr: 0x10A8, symBinAddr: 0x19EB0, symSize: 0x8 }
  - { offsetInCU: 0x4B, offset: 0x1D80D7, size: 0x8, addend: 0x0, symName: __ZN11grpc_binder24GetConnectionIdGeneratorEv, symObjAddr: 0x2AC, symBinAddr: 0x1A188, symSize: 0xA4 }
  - { offsetInCU: 0x75, offset: 0x1D8101, size: 0x8, addend: 0x0, symName: __ZZN11grpc_binder24GetConnectionIdGeneratorEvE3cig, symObjAddr: 0x19170, symBinAddr: 0x6D850, symSize: 0x0 }
  - { offsetInCU: 0x4C04, offset: 0x1DCC90, size: 0x8, addend: 0x0, symName: __ZN11grpc_binder21ConnectionIdGenerator8GenerateEN4absl12lts_2022062311string_viewE, symObjAddr: 0x0, symBinAddr: 0x19EDC, symSize: 0x2AC }
  - { offsetInCU: 0x5972, offset: 0x1DD9FE, size: 0x8, addend: 0x0, symName: __ZN4absl12lts_202206238AlphaNumC2Ei, symObjAddr: 0x478, symBinAddr: 0x1A22C, symSize: 0x44 }
  - { offsetInCU: 0x5A33, offset: 0x1DDABF, size: 0x8, addend: 0x0, symName: __ZN4absl12lts_202206238AlphaNumC2Ei.cold.1, symObjAddr: 0x4BC, symBinAddr: 0x4D41C, symSize: 0x28 }
  - { offsetInCU: 0x5DCC, offset: 0x1DDE58, size: 0x8, addend: 0x0, symName: __ZN4absl12lts_202206238AlphaNumC2Ei.cold.1, symObjAddr: 0x4BC, symBinAddr: 0x4D41C, symSize: 0x28 }
  - { offsetInCU: 0x26, offset: 0x1DDEEB, size: 0x8, addend: 0x0, symName: __ZN4grpc11CoreCodegen36grpc_completion_queue_factory_lookupEPK32grpc_completion_queue_attributes, symObjAddr: 0x0, symBinAddr: 0x1A270, symSize: 0x8 }
  - { offsetInCU: 0x49F4, offset: 0x1E28B9, size: 0x8, addend: 0x0, symName: __ZN4grpc11CoreCodegen36grpc_completion_queue_factory_lookupEPK32grpc_completion_queue_attributes, symObjAddr: 0x0, symBinAddr: 0x1A270, symSize: 0x8 }
  - { offsetInCU: 0x4A52, offset: 0x1E2917, size: 0x8, addend: 0x0, symName: __ZN4grpc11CoreCodegen28grpc_completion_queue_createEPK29grpc_completion_queue_factoryPK32grpc_completion_queue_attributesPv, symObjAddr: 0x8, symBinAddr: 0x1A278, symSize: 0x10 }
  - { offsetInCU: 0x4AEA, offset: 0x1E29AF, size: 0x8, addend: 0x0, symName: __ZN4grpc11CoreCodegen37grpc_completion_queue_create_for_nextEPv, symObjAddr: 0x18, symBinAddr: 0x1A288, symSize: 0x8 }
  - { offsetInCU: 0x4B48, offset: 0x1E2A0D, size: 0x8, addend: 0x0, symName: __ZN4grpc11CoreCodegen38grpc_completion_queue_create_for_pluckEPv, symObjAddr: 0x20, symBinAddr: 0x1A290, symSize: 0x8 }
  - { offsetInCU: 0x4BA6, offset: 0x1E2A6B, size: 0x8, addend: 0x0, symName: __ZN4grpc11CoreCodegen30grpc_completion_queue_shutdownEP21grpc_completion_queue, symObjAddr: 0x28, symBinAddr: 0x1A298, symSize: 0x8 }
  - { offsetInCU: 0x4BFF, offset: 0x1E2AC4, size: 0x8, addend: 0x0, symName: __ZN4grpc11CoreCodegen29grpc_completion_queue_destroyEP21grpc_completion_queue, symObjAddr: 0x30, symBinAddr: 0x1A2A0, symSize: 0x8 }
  - { offsetInCU: 0x4C58, offset: 0x1E2B1D, size: 0x8, addend: 0x0, symName: __ZN4grpc11CoreCodegen27grpc_completion_queue_pluckEP21grpc_completion_queuePv12gpr_timespecS3_, symObjAddr: 0x38, symBinAddr: 0x1A2A8, symSize: 0x18 }
  - { offsetInCU: 0x4D11, offset: 0x1E2BD6, size: 0x8, addend: 0x0, symName: __ZN4grpc11CoreCodegen10gpr_mallocEm, symObjAddr: 0x50, symBinAddr: 0x1A2C0, symSize: 0x8 }
  - { offsetInCU: 0x4D6F, offset: 0x1E2C34, size: 0x8, addend: 0x0, symName: __ZN4grpc11CoreCodegen8gpr_freeEPv, symObjAddr: 0x58, symBinAddr: 0x1A2C8, symSize: 0x8 }
  - { offsetInCU: 0x4DC8, offset: 0x1E2C8D, size: 0x8, addend: 0x0, symName: __ZN4grpc11CoreCodegen9grpc_initEv, symObjAddr: 0x60, symBinAddr: 0x1A2D0, symSize: 0x4 }
  - { offsetInCU: 0x4DF0, offset: 0x1E2CB5, size: 0x8, addend: 0x0, symName: __ZN4grpc11CoreCodegen9grpc_initEv, symObjAddr: 0x60, symBinAddr: 0x1A2D0, symSize: 0x4 }
  - { offsetInCU: 0x4E03, offset: 0x1E2CC8, size: 0x8, addend: 0x0, symName: __ZN4grpc11CoreCodegen13grpc_shutdownEv, symObjAddr: 0x64, symBinAddr: 0x1A2D4, symSize: 0x4 }
  - { offsetInCU: 0x4E2B, offset: 0x1E2CF0, size: 0x8, addend: 0x0, symName: __ZN4grpc11CoreCodegen13grpc_shutdownEv, symObjAddr: 0x64, symBinAddr: 0x1A2D4, symSize: 0x4 }
  - { offsetInCU: 0x4E3E, offset: 0x1E2D03, size: 0x8, addend: 0x0, symName: __ZN4grpc11CoreCodegen11gpr_mu_initEP23_opaque_pthread_mutex_t, symObjAddr: 0x68, symBinAddr: 0x1A2D8, symSize: 0x8 }
  - { offsetInCU: 0x4E97, offset: 0x1E2D5C, size: 0x8, addend: 0x0, symName: __ZN4grpc11CoreCodegen14gpr_mu_destroyEP23_opaque_pthread_mutex_t, symObjAddr: 0x70, symBinAddr: 0x1A2E0, symSize: 0x8 }
  - { offsetInCU: 0x4EF0, offset: 0x1E2DB5, size: 0x8, addend: 0x0, symName: __ZN4grpc11CoreCodegen11gpr_mu_lockEP23_opaque_pthread_mutex_t, symObjAddr: 0x78, symBinAddr: 0x1A2E8, symSize: 0x8 }
  - { offsetInCU: 0x4F49, offset: 0x1E2E0E, size: 0x8, addend: 0x0, symName: __ZN4grpc11CoreCodegen13gpr_mu_unlockEP23_opaque_pthread_mutex_t, symObjAddr: 0x80, symBinAddr: 0x1A2F0, symSize: 0x8 }
  - { offsetInCU: 0x4FA2, offset: 0x1E2E67, size: 0x8, addend: 0x0, symName: __ZN4grpc11CoreCodegen11gpr_cv_initEP22_opaque_pthread_cond_t, symObjAddr: 0x88, symBinAddr: 0x1A2F8, symSize: 0x8 }
  - { offsetInCU: 0x4FFB, offset: 0x1E2EC0, size: 0x8, addend: 0x0, symName: __ZN4grpc11CoreCodegen14gpr_cv_destroyEP22_opaque_pthread_cond_t, symObjAddr: 0x90, symBinAddr: 0x1A300, symSize: 0x8 }
  - { offsetInCU: 0x5054, offset: 0x1E2F19, size: 0x8, addend: 0x0, symName: __ZN4grpc11CoreCodegen11gpr_cv_waitEP22_opaque_pthread_cond_tP23_opaque_pthread_mutex_t12gpr_timespec, symObjAddr: 0x98, symBinAddr: 0x1A308, symSize: 0x14 }
  - { offsetInCU: 0x50F0, offset: 0x1E2FB5, size: 0x8, addend: 0x0, symName: __ZN4grpc11CoreCodegen13gpr_cv_signalEP22_opaque_pthread_cond_t, symObjAddr: 0xAC, symBinAddr: 0x1A31C, symSize: 0x8 }
  - { offsetInCU: 0x5149, offset: 0x1E300E, size: 0x8, addend: 0x0, symName: __ZN4grpc11CoreCodegen16gpr_cv_broadcastEP22_opaque_pthread_cond_t, symObjAddr: 0xB4, symBinAddr: 0x1A324, symSize: 0x8 }
  - { offsetInCU: 0x51A2, offset: 0x1E3067, size: 0x8, addend: 0x0, symName: __ZN4grpc11CoreCodegen21grpc_byte_buffer_copyEP16grpc_byte_buffer, symObjAddr: 0xBC, symBinAddr: 0x1A32C, symSize: 0x8 }
  - { offsetInCU: 0x5200, offset: 0x1E30C5, size: 0x8, addend: 0x0, symName: __ZN4grpc11CoreCodegen24grpc_byte_buffer_destroyEP16grpc_byte_buffer, symObjAddr: 0xC4, symBinAddr: 0x1A334, symSize: 0x8 }
  - { offsetInCU: 0x5259, offset: 0x1E311E, size: 0x8, addend: 0x0, symName: __ZN4grpc11CoreCodegen23grpc_byte_buffer_lengthEP16grpc_byte_buffer, symObjAddr: 0xCC, symBinAddr: 0x1A33C, symSize: 0x8 }
  - { offsetInCU: 0x52B7, offset: 0x1E317C, size: 0x8, addend: 0x0, symName: __ZN4grpc11CoreCodegen21grpc_call_start_batchEP9grpc_callPK7grpc_opmPvS6_, symObjAddr: 0xD4, symBinAddr: 0x1A344, symSize: 0x18 }
  - { offsetInCU: 0x538A, offset: 0x1E324F, size: 0x8, addend: 0x0, symName: __ZN4grpc11CoreCodegen28grpc_call_cancel_with_statusEP9grpc_call16grpc_status_codePKcPv, symObjAddr: 0xEC, symBinAddr: 0x1A35C, symSize: 0x14 }
  - { offsetInCU: 0x5440, offset: 0x1E3305, size: 0x8, addend: 0x0, symName: __ZN4grpc11CoreCodegen36grpc_call_failed_before_recv_messageEPK9grpc_call, symObjAddr: 0x100, symBinAddr: 0x1A370, symSize: 0x8 }
  - { offsetInCU: 0x549F, offset: 0x1E3364, size: 0x8, addend: 0x0, symName: __ZN4grpc11CoreCodegen13grpc_call_refEP9grpc_call, symObjAddr: 0x108, symBinAddr: 0x1A378, symSize: 0x8 }
  - { offsetInCU: 0x54F9, offset: 0x1E33BE, size: 0x8, addend: 0x0, symName: __ZN4grpc11CoreCodegen15grpc_call_unrefEP9grpc_call, symObjAddr: 0x110, symBinAddr: 0x1A380, symSize: 0x8 }
  - { offsetInCU: 0x5553, offset: 0x1E3418, size: 0x8, addend: 0x0, symName: __ZN4grpc11CoreCodegen21grpc_call_arena_allocEP9grpc_callm, symObjAddr: 0x118, symBinAddr: 0x1A388, symSize: 0xC }
  - { offsetInCU: 0x55CE, offset: 0x1E3493, size: 0x8, addend: 0x0, symName: __ZN4grpc11CoreCodegen25grpc_call_error_to_stringE15grpc_call_error, symObjAddr: 0x124, symBinAddr: 0x1A394, symSize: 0x8 }
  - { offsetInCU: 0x562D, offset: 0x1E34F2, size: 0x8, addend: 0x0, symName: __ZN4grpc11CoreCodegen28grpc_byte_buffer_reader_initEP23grpc_byte_buffer_readerP16grpc_byte_buffer, symObjAddr: 0x12C, symBinAddr: 0x1A39C, symSize: 0xC }
  - { offsetInCU: 0x56A8, offset: 0x1E356D, size: 0x8, addend: 0x0, symName: __ZN4grpc11CoreCodegen31grpc_byte_buffer_reader_destroyEP23grpc_byte_buffer_reader, symObjAddr: 0x138, symBinAddr: 0x1A3A8, symSize: 0x8 }
  - { offsetInCU: 0x5701, offset: 0x1E35C6, size: 0x8, addend: 0x0, symName: __ZN4grpc11CoreCodegen28grpc_byte_buffer_reader_nextEP23grpc_byte_buffer_readerP10grpc_slice, symObjAddr: 0x140, symBinAddr: 0x1A3B0, symSize: 0xC }
  - { offsetInCU: 0x577C, offset: 0x1E3641, size: 0x8, addend: 0x0, symName: __ZN4grpc11CoreCodegen28grpc_byte_buffer_reader_peekEP23grpc_byte_buffer_readerPP10grpc_slice, symObjAddr: 0x14C, symBinAddr: 0x1A3BC, symSize: 0xC }
  - { offsetInCU: 0x57F7, offset: 0x1E36BC, size: 0x8, addend: 0x0, symName: __ZN4grpc11CoreCodegen27grpc_raw_byte_buffer_createEP10grpc_slicem, symObjAddr: 0x158, symBinAddr: 0x1A3C8, symSize: 0xC }
  - { offsetInCU: 0x5872, offset: 0x1E3737, size: 0x8, addend: 0x0, symName: __ZN4grpc11CoreCodegen29grpc_slice_new_with_user_dataEPvmPFvS1_ES1_, symObjAddr: 0x164, symBinAddr: 0x1A3D4, symSize: 0x14 }
  - { offsetInCU: 0x592F, offset: 0x1E37F4, size: 0x8, addend: 0x0, symName: __ZN4grpc11CoreCodegen23grpc_slice_new_with_lenEPvmPFvS1_mE, symObjAddr: 0x178, symBinAddr: 0x1A3E8, symSize: 0x10 }
  - { offsetInCU: 0x59CF, offset: 0x1E3894, size: 0x8, addend: 0x0, symName: __ZN4grpc11CoreCodegen16grpc_empty_sliceEv, symObjAddr: 0x188, symBinAddr: 0x1A3F8, symSize: 0x4 }
  - { offsetInCU: 0x59F7, offset: 0x1E38BC, size: 0x8, addend: 0x0, symName: __ZN4grpc11CoreCodegen16grpc_empty_sliceEv, symObjAddr: 0x188, symBinAddr: 0x1A3F8, symSize: 0x4 }
  - { offsetInCU: 0x5A17, offset: 0x1E38DC, size: 0x8, addend: 0x0, symName: __ZN4grpc11CoreCodegen17grpc_slice_mallocEm, symObjAddr: 0x18C, symBinAddr: 0x1A3FC, symSize: 0x8 }
  - { offsetInCU: 0x5A7D, offset: 0x1E3942, size: 0x8, addend: 0x0, symName: __ZN4grpc11CoreCodegen16grpc_slice_unrefE10grpc_slice, symObjAddr: 0x194, symBinAddr: 0x1A404, symSize: 0x54 }
  - { offsetInCU: 0x5AD5, offset: 0x1E399A, size: 0x8, addend: 0x0, symName: __ZN4grpc11CoreCodegen14grpc_slice_refE10grpc_slice, symObjAddr: 0x1E8, symBinAddr: 0x1A458, symSize: 0x54 }
  - { offsetInCU: 0x5B3A, offset: 0x1E39FF, size: 0x8, addend: 0x0, symName: __ZN4grpc11CoreCodegen21grpc_slice_split_tailEP10grpc_slicem, symObjAddr: 0x23C, symBinAddr: 0x1A4AC, symSize: 0xC }
  - { offsetInCU: 0x5BBD, offset: 0x1E3A82, size: 0x8, addend: 0x0, symName: __ZN4grpc11CoreCodegen21grpc_slice_split_headEP10grpc_slicem, symObjAddr: 0x248, symBinAddr: 0x1A4B8, symSize: 0xC }
  - { offsetInCU: 0x5C40, offset: 0x1E3B05, size: 0x8, addend: 0x0, symName: __ZN4grpc11CoreCodegen14grpc_slice_subE10grpc_slicemm, symObjAddr: 0x254, symBinAddr: 0x1A4C4, symSize: 0x5C }
  - { offsetInCU: 0x5CDF, offset: 0x1E3BA4, size: 0x8, addend: 0x0, symName: __ZN4grpc11CoreCodegen29grpc_slice_from_static_bufferEPKvm, symObjAddr: 0x2B0, symBinAddr: 0x1A520, symSize: 0xC }
  - { offsetInCU: 0x5D62, offset: 0x1E3C27, size: 0x8, addend: 0x0, symName: __ZN4grpc11CoreCodegen29grpc_slice_from_copied_bufferEPKvm, symObjAddr: 0x2BC, symBinAddr: 0x1A52C, symSize: 0xC }
  - { offsetInCU: 0x5DE5, offset: 0x1E3CAA, size: 0x8, addend: 0x0, symName: __ZN4grpc11CoreCodegen21grpc_slice_buffer_addEP17grpc_slice_buffer10grpc_slice, symObjAddr: 0x2C8, symBinAddr: 0x1A538, symSize: 0x58 }
  - { offsetInCU: 0x5E5A, offset: 0x1E3D1F, size: 0x8, addend: 0x0, symName: __ZN4grpc11CoreCodegen29grpc_slice_buffer_add_indexedEP17grpc_slice_buffer10grpc_slice, symObjAddr: 0x320, symBinAddr: 0x1A590, symSize: 0x58 }
  - { offsetInCU: 0x5ED4, offset: 0x1E3D99, size: 0x8, addend: 0x0, symName: __ZN4grpc11CoreCodegen21grpc_slice_buffer_popEP17grpc_slice_buffer, symObjAddr: 0x378, symBinAddr: 0x1A5E8, symSize: 0x8 }
  - { offsetInCU: 0x5F2D, offset: 0x1E3DF2, size: 0x8, addend: 0x0, symName: __ZN4grpc11CoreCodegen24grpc_metadata_array_initEP19grpc_metadata_array, symObjAddr: 0x380, symBinAddr: 0x1A5F0, symSize: 0x8 }
  - { offsetInCU: 0x5F86, offset: 0x1E3E4B, size: 0x8, addend: 0x0, symName: __ZN4grpc11CoreCodegen27grpc_metadata_array_destroyEP19grpc_metadata_array, symObjAddr: 0x388, symBinAddr: 0x1A5F8, symSize: 0x8 }
  - { offsetInCU: 0x5FDF, offset: 0x1E3EA4, size: 0x8, addend: 0x0, symName: __ZN4grpc11CoreCodegen2okEv, symObjAddr: 0x390, symBinAddr: 0x1A600, symSize: 0x10 }
  - { offsetInCU: 0x6004, offset: 0x1E3EC9, size: 0x8, addend: 0x0, symName: __ZN4grpc11CoreCodegen9cancelledEv, symObjAddr: 0x3A0, symBinAddr: 0x1A610, symSize: 0x10 }
  - { offsetInCU: 0x6029, offset: 0x1E3EEE, size: 0x8, addend: 0x0, symName: __ZN4grpc11CoreCodegen14gpr_inf_futureE14gpr_clock_type, symObjAddr: 0x3B0, symBinAddr: 0x1A620, symSize: 0x8 }
  - { offsetInCU: 0x6087, offset: 0x1E3F4C, size: 0x8, addend: 0x0, symName: __ZN4grpc11CoreCodegen10gpr_time_0E14gpr_clock_type, symObjAddr: 0x3B8, symBinAddr: 0x1A628, symSize: 0x8 }
  - { offsetInCU: 0x60E5, offset: 0x1E3FAA, size: 0x8, addend: 0x0, symName: __ZN4grpc11CoreCodegen11assert_failEPKcS2_i, symObjAddr: 0x3C0, symBinAddr: 0x1A630, symSize: 0x30 }
  - { offsetInCU: 0x617C, offset: 0x1E4041, size: 0x8, addend: 0x0, symName: __ZN4grpc11CoreCodegenD1Ev, symObjAddr: 0x3F0, symBinAddr: 0x1A660, symSize: 0x4 }
  - { offsetInCU: 0x61A7, offset: 0x1E406C, size: 0x8, addend: 0x0, symName: __ZN4grpc11CoreCodegenD0Ev, symObjAddr: 0x3F4, symBinAddr: 0x1A664, symSize: 0x4 }
  - { offsetInCU: 0x629, offset: 0x1E46C5, size: 0x8, addend: 0x0, symName: __ZN4grpc12experimental35CreateCustomChannelWithInterceptorsERKNSt3__112basic_stringIcNS1_11char_traitsIcEENS1_9allocatorIcEEEERKNS1_10shared_ptrINS_18ChannelCredentialsEEERKNS_16ChannelArgumentsENS1_6vectorINS1_10unique_ptrINS0_33ClientInterceptorFactoryInterfaceENS1_14default_deleteISK_EEEENS5_ISN_EEEE, symObjAddr: 0x1DC, symBinAddr: 0x1A840, symSize: 0x1B0 }
  - { offsetInCU: 0xC24, offset: 0x1E4CC0, size: 0x8, addend: 0x0, symName: __ZN4grpc13CreateChannelERKNSt3__112basic_stringIcNS0_11char_traitsIcEENS0_9allocatorIcEEEERKNS0_10shared_ptrINS_18ChannelCredentialsEEE, symObjAddr: 0x0, symBinAddr: 0x1A668, symSize: 0x6C }
  - { offsetInCU: 0xC8E, offset: 0x1E4D2A, size: 0x8, addend: 0x0, symName: __ZN4grpc19CreateCustomChannelERKNSt3__112basic_stringIcNS0_11char_traitsIcEENS0_9allocatorIcEEEERKNS0_10shared_ptrINS_18ChannelCredentialsEEERKNS_16ChannelArgumentsE, symObjAddr: 0x6C, symBinAddr: 0x1A6D4, symSize: 0x16C }
  - { offsetInCU: 0x823, offset: 0x1EE9E0, size: 0x8, addend: 0x0, symName: __ZN4grpc21CreateChannelInternalERKNSt3__112basic_stringIcNS0_11char_traitsIcEENS0_9allocatorIcEEEEP12grpc_channelNS0_6vectorINS0_10unique_ptrINS_12experimental33ClientInterceptorFactoryInterfaceENS0_14default_deleteISE_EEEENS4_ISH_EEEE, symObjAddr: 0x0, symBinAddr: 0x1A9F0, symSize: 0xB4 }
  - { offsetInCU: 0x5A1B, offset: 0x1F3BD8, size: 0x8, addend: 0x0, symName: __ZNSt3__110shared_ptrIN4grpc7ChannelEE18__enable_weak_thisB7v160006IS2_S2_vEEvPKNS_23enable_shared_from_thisIT_EEPT0_, symObjAddr: 0x1F0, symBinAddr: 0x1AB20, symSize: 0xB0 }
  - { offsetInCU: 0x7C41, offset: 0x1F5DFE, size: 0x8, addend: 0x0, symName: __ZNSt3__110shared_ptrIN4grpc7ChannelEEC2IS2_vEEPT_, symObjAddr: 0x174, symBinAddr: 0x1AAA4, symSize: 0x7C }
  - { offsetInCU: 0x8652, offset: 0x1F680F, size: 0x8, addend: 0x0, symName: __ZNSt3__120__shared_ptr_pointerIPN4grpc7ChannelENS_10shared_ptrIS2_E27__shared_ptr_default_deleteIS2_S2_EENS_9allocatorIS2_EEED1Ev, symObjAddr: 0x2A0, symBinAddr: 0x1ABD0, symSize: 0x4 }
  - { offsetInCU: 0x8674, offset: 0x1F6831, size: 0x8, addend: 0x0, symName: __ZNSt3__120__shared_ptr_pointerIPN4grpc7ChannelENS_10shared_ptrIS2_E27__shared_ptr_default_deleteIS2_S2_EENS_9allocatorIS2_EEED1Ev, symObjAddr: 0x2A0, symBinAddr: 0x1ABD0, symSize: 0x4 }
  - { offsetInCU: 0x86AA, offset: 0x1F6867, size: 0x8, addend: 0x0, symName: __ZNSt3__120__shared_ptr_pointerIPN4grpc7ChannelENS_10shared_ptrIS2_E27__shared_ptr_default_deleteIS2_S2_EENS_9allocatorIS2_EEED0Ev, symObjAddr: 0x2A4, symBinAddr: 0x1ABD4, symSize: 0x14 }
  - { offsetInCU: 0x870D, offset: 0x1F68CA, size: 0x8, addend: 0x0, symName: __ZNSt3__120__shared_ptr_pointerIPN4grpc7ChannelENS_10shared_ptrIS2_E27__shared_ptr_default_deleteIS2_S2_EENS_9allocatorIS2_EEE16__on_zero_sharedEv, symObjAddr: 0x2B8, symBinAddr: 0x1ABE8, symSize: 0x24 }
  - { offsetInCU: 0x8750, offset: 0x1F690D, size: 0x8, addend: 0x0, symName: __ZNKSt3__120__shared_ptr_pointerIPN4grpc7ChannelENS_10shared_ptrIS2_E27__shared_ptr_default_deleteIS2_S2_EENS_9allocatorIS2_EEE13__get_deleterERKSt9type_info, symObjAddr: 0x2DC, symBinAddr: 0x1AC0C, symSize: 0x3C }
  - { offsetInCU: 0x8843, offset: 0x1F6A00, size: 0x8, addend: 0x0, symName: __ZNSt3__120__shared_ptr_pointerIPN4grpc7ChannelENS_10shared_ptrIS2_E27__shared_ptr_default_deleteIS2_S2_EENS_9allocatorIS2_EEE21__on_zero_shared_weakEv, symObjAddr: 0x318, symBinAddr: 0x1AC48, symSize: 0x4 }
  - { offsetInCU: 0x8878, offset: 0x1F6A35, size: 0x8, addend: 0x0, symName: __ZNSt3__120__shared_ptr_pointerIPN4grpc7ChannelENS_10shared_ptrIS2_E27__shared_ptr_default_deleteIS2_S2_EENS_9allocatorIS2_EEE21__on_zero_shared_weakEv, symObjAddr: 0x318, symBinAddr: 0x1AC48, symSize: 0x4 }
  - { offsetInCU: 0x889C, offset: 0x1F6A59, size: 0x8, addend: 0x0, symName: __ZNSt3__120__shared_ptr_pointerIPN4grpc7ChannelENS_10shared_ptrIS2_E27__shared_ptr_default_deleteIS2_S2_EENS_9allocatorIS2_EEE21__on_zero_shared_weakEv, symObjAddr: 0x318, symBinAddr: 0x1AC48, symSize: 0x4 }
  - { offsetInCU: 0x88C8, offset: 0x1F6A85, size: 0x8, addend: 0x0, symName: __ZNSt3__120__shared_ptr_pointerIPN4grpc7ChannelENS_10shared_ptrIS2_E27__shared_ptr_default_deleteIS2_S2_EENS_9allocatorIS2_EEE21__on_zero_shared_weakEv, symObjAddr: 0x318, symBinAddr: 0x1AC48, symSize: 0x4 }
  - { offsetInCU: 0x88EF, offset: 0x1F6AAC, size: 0x8, addend: 0x0, symName: __ZNSt3__120__shared_ptr_pointerIPN4grpc7ChannelENS_10shared_ptrIS2_E27__shared_ptr_default_deleteIS2_S2_EENS_9allocatorIS2_EEE21__on_zero_shared_weakEv, symObjAddr: 0x318, symBinAddr: 0x1AC48, symSize: 0x4 }
  - { offsetInCU: 0x26, offset: 0x1F6B36, size: 0x8, addend: 0x0, symName: __ZN4grpc23CreateDefaultThreadPoolEv, symObjAddr: 0x0, symBinAddr: 0x1AC4C, symSize: 0xC }
  - { offsetInCU: 0x47, offset: 0x1F6B57, size: 0x8, addend: 0x0, symName: __ZN4grpc12_GLOBAL__N_110g_ctp_implE, symObjAddr: 0x80, symBinAddr: 0x6D7B8, symSize: 0x0 }
  - { offsetInCU: 0x54, offset: 0x1F6B64, size: 0x8, addend: 0x0, symName: __ZN4grpc12_GLOBAL__N_127CreateDefaultThreadPoolImplEv, symObjAddr: 0x18, symBinAddr: 0x1AC64, symSize: 0x54 }
  - { offsetInCU: 0xEA, offset: 0x1F6BFA, size: 0x8, addend: 0x0, symName: __ZN4grpc23CreateDefaultThreadPoolEv, symObjAddr: 0x0, symBinAddr: 0x1AC4C, symSize: 0xC }
  - { offsetInCU: 0x115, offset: 0x1F6C25, size: 0x8, addend: 0x0, symName: __ZN4grpc19SetCreateThreadPoolEPFPNS_19ThreadPoolInterfaceEvE, symObjAddr: 0xC, symBinAddr: 0x1AC58, symSize: 0xC }
  - { offsetInCU: 0x44, offset: 0x1F9717, size: 0x8, addend: 0x0, symName: __ZN4grpcL17g_gli_initializerE, symObjAddr: 0x4E945, symBinAddr: 0x6D860, symSize: 0x0 }
  - { offsetInCU: 0x87B8, offset: 0x201E8B, size: 0x8, addend: 0x0, symName: __ZN4grpc18ChannelCredentialsC2Ev, symObjAddr: 0x0, symBinAddr: 0x1ACB8, symSize: 0x24 }
  - { offsetInCU: 0x887A, offset: 0x201F4D, size: 0x8, addend: 0x0, symName: __ZN4grpc18ChannelCredentialsD2Ev, symObjAddr: 0x140, symBinAddr: 0x1ACDC, symSize: 0x4 }
  - { offsetInCU: 0x88A8, offset: 0x201F7B, size: 0x8, addend: 0x0, symName: __ZN4grpc18ChannelCredentialsD2Ev, symObjAddr: 0x140, symBinAddr: 0x1ACDC, symSize: 0x4 }
  - { offsetInCU: 0x88BC, offset: 0x201F8F, size: 0x8, addend: 0x0, symName: __ZN4grpc18ChannelCredentialsD1Ev, symObjAddr: 0x144, symBinAddr: 0x1ACE0, symSize: 0x4 }
  - { offsetInCU: 0x88E5, offset: 0x201FB8, size: 0x8, addend: 0x0, symName: __ZN4grpc18ChannelCredentialsD0Ev, symObjAddr: 0x148, symBinAddr: 0x1ACE4, symSize: 0x4 }
  - { offsetInCU: 0x890E, offset: 0x201FE1, size: 0x8, addend: 0x0, symName: __ZN4grpc15CallCredentialsC2Ev, symObjAddr: 0x14C, symBinAddr: 0x1ACE8, symSize: 0x24 }
  - { offsetInCU: 0x8956, offset: 0x202029, size: 0x8, addend: 0x0, symName: __ZN4grpc15CallCredentialsD2Ev, symObjAddr: 0x170, symBinAddr: 0x1AD0C, symSize: 0x4 }
  - { offsetInCU: 0x8984, offset: 0x202057, size: 0x8, addend: 0x0, symName: __ZN4grpc15CallCredentialsD2Ev, symObjAddr: 0x170, symBinAddr: 0x1AD0C, symSize: 0x4 }
  - { offsetInCU: 0x8998, offset: 0x20206B, size: 0x8, addend: 0x0, symName: __ZN4grpc15CallCredentialsD1Ev, symObjAddr: 0x174, symBinAddr: 0x1AD10, symSize: 0x4 }
  - { offsetInCU: 0x89C1, offset: 0x202094, size: 0x8, addend: 0x0, symName: __ZN4grpc15CallCredentialsD0Ev, symObjAddr: 0x178, symBinAddr: 0x1AD14, symSize: 0x4 }
  - { offsetInCU: 0x8A35, offset: 0x202108, size: 0x8, addend: 0x0, symName: __ZN4grpc18ChannelCredentials29CreateChannelWithInterceptorsERKNSt3__112basic_stringIcNS1_11char_traitsIcEENS1_9allocatorIcEEEERKNS_16ChannelArgumentsENS1_6vectorINS1_10unique_ptrINS_12experimental33ClientInterceptorFactoryInterfaceENS1_14default_deleteISG_EEEENS5_ISJ_EEEE, symObjAddr: 0x17C, symBinAddr: 0x1AD18, symSize: 0x8 }
  - { offsetInCU: 0x8A7B, offset: 0x20214E, size: 0x8, addend: 0x0, symName: __ZN4grpc18ChannelCredentials29CreateChannelWithInterceptorsERKNSt3__112basic_stringIcNS1_11char_traitsIcEENS1_9allocatorIcEEEERKNS_16ChannelArgumentsENS1_6vectorINS1_10unique_ptrINS_12experimental33ClientInterceptorFactoryInterfaceENS1_14default_deleteISG_EEEENS5_ISJ_EEEE, symObjAddr: 0x17C, symBinAddr: 0x1AD18, symSize: 0x8 }
  - { offsetInCU: 0x8A9E, offset: 0x202171, size: 0x8, addend: 0x0, symName: __ZN4grpc18ChannelCredentials29CreateChannelWithInterceptorsERKNSt3__112basic_stringIcNS1_11char_traitsIcEENS1_9allocatorIcEEEERKNS_16ChannelArgumentsENS1_6vectorINS1_10unique_ptrINS_12experimental33ClientInterceptorFactoryInterfaceENS1_14default_deleteISG_EEEENS5_ISJ_EEEE, symObjAddr: 0x17C, symBinAddr: 0x1AD18, symSize: 0x8 }
  - { offsetInCU: 0x8AC1, offset: 0x202194, size: 0x8, addend: 0x0, symName: __ZNK4grpc18ChannelCredentials10IsInsecureEv, symObjAddr: 0x184, symBinAddr: 0x1AD20, symSize: 0x8 }
  - { offsetInCU: 0x8B18, offset: 0x2021EB, size: 0x8, addend: 0x0, symName: __ZN4grpc15CallCredentials11DebugStringEv, symObjAddr: 0x18C, symBinAddr: 0x1AD28, symSize: 0x10 }
  - { offsetInCU: 0x65, offset: 0x20272E, size: 0x8, addend: 0x0, symName: __ZN4grpc12_GLOBAL__N_122kHealthCheckMethodNameE, symObjAddr: 0xBB35, symBinAddr: 0x53218, symSize: 0x0 }
  - { offsetInCU: 0x7E, offset: 0x202747, size: 0x8, addend: 0x0, symName: __ZN4grpc12_GLOBAL__N_122kHealthWatchMethodNameE, symObjAddr: 0xBB52, symBinAddr: 0x53235, symSize: 0x0 }
  - { offsetInCU: 0x12A4, offset: 0x20396D, size: 0x8, addend: 0x0, symName: __ZN4grpc8internalL22kBinaryErrorDetailsKeyE, symObjAddr: 0xC249, symBinAddr: 0x537EC, symSize: 0x0 }
  - { offsetInCU: 0x1B73, offset: 0x20423C, size: 0x8, addend: 0x0, symName: __ZN4grpc8internal21CatchingReactorGetterINS_18ServerUnaryReactorERNSt3__18functionIFPS2_PNS_21CallbackServerContextEPKNS_10ByteBufferEPS8_EEEJS7_SA_SB_EEEPT_OT0_DpOT1_, symObjAddr: 0x42D8, symBinAddr: 0x1EBDC, symSize: 0x30 }
  - { offsetInCU: 0x1DEA, offset: 0x2044B3, size: 0x8, addend: 0x0, symName: __ZN4grpc8internal17FillMetadataArrayERKNSt3__18multimapINS1_12basic_stringIcNS1_11char_traitsIcEENS1_9allocatorIcEEEES8_NS1_4lessIS8_EENS6_INS1_4pairIKS8_S8_EEEEEEPmRSC_, symObjAddr: 0x5D70, symBinAddr: 0x2052C, symSize: 0x22C }
  - { offsetInCU: 0x21E9, offset: 0x2048B2, size: 0x8, addend: 0x0, symName: __ZN4grpc8internal16CatchingCallbackIRNSt3__18functionIFvbEEEJRbEEEvOT_DpOT0_, symObjAddr: 0x71B4, symBinAddr: 0x218E0, symSize: 0x4C }
  - { offsetInCU: 0x2301, offset: 0x2049CA, size: 0x8, addend: 0x0, symName: __ZN4grpc8internal21CatchingReactorGetterINS_18ServerWriteReactorINS_10ByteBufferEEERNSt3__18functionIFPS4_PNS_21CallbackServerContextEPKS3_EEEJS9_SB_EEEPT_OT0_DpOT1_, symObjAddr: 0x80CC, symBinAddr: 0x227F8, symSize: 0x2C }
  - { offsetInCU: 0x4C61, offset: 0x20732A, size: 0x8, addend: 0x0, symName: __ZNSt3__1L19piecewise_constructE, symObjAddr: 0xBD8C, symBinAddr: 0x5346F, symSize: 0x0 }
  - { offsetInCU: 0x230BB, offset: 0x225784, size: 0x8, addend: 0x0, symName: __ZNSt3__119__allocate_at_leastB7v160006INS_9allocatorINS_10unique_ptrIN4grpc8internal16RpcServiceMethodENS_14default_deleteIS5_EEEEEEEENS_19__allocation_resultINS_16allocator_traitsIT_E7pointerEEERSC_m, symObjAddr: 0x2974, symBinAddr: 0x1D5BC, symSize: 0x34 }
  - { offsetInCU: 0x23950, offset: 0x226019, size: 0x8, addend: 0x0, symName: __ZNSt3__113__tree_removeB7v160006IPNS_16__tree_node_baseIPvEEEEvT_S5_, symObjAddr: 0x36C8, symBinAddr: 0x1E014, symSize: 0x384 }
  - { offsetInCU: 0x290C5, offset: 0x22B78E, size: 0x8, addend: 0x0, symName: __ZN4grpc8internal9CallOpSetINS0_25CallOpSendInitialMetadataENS0_8CallNoOpILi2EEENS3_ILi3EEENS3_ILi4EEENS3_ILi5EEENS3_ILi6EEEE32ContinueFillOpsAfterInterceptionEv, symObjAddr: 0x4CBC, symBinAddr: 0x1F55C, symSize: 0xE4 }
  - { offsetInCU: 0x291DB, offset: 0x22B8A4, size: 0x8, addend: 0x0, symName: __ZN4grpc8internal9CallOpSetINS0_25CallOpSendInitialMetadataENS0_17CallOpSendMessageENS0_22CallOpServerSendStatusENS0_8CallNoOpILi4EEENS5_ILi5EEENS5_ILi6EEEE32ContinueFillOpsAfterInterceptionEv, symObjAddr: 0x6294, symBinAddr: 0x20A50, symSize: 0x104 }
  - { offsetInCU: 0x2931F, offset: 0x22B9E8, size: 0x8, addend: 0x0, symName: __ZN4grpc8internal9CallOpSetINS0_25CallOpSendInitialMetadataENS0_17CallOpSendMessageENS0_8CallNoOpILi3EEENS4_ILi4EEENS4_ILi5EEENS4_ILi6EEEE32ContinueFillOpsAfterInterceptionEv, symObjAddr: 0x8CAC, symBinAddr: 0x233D8, symSize: 0xF4 }
  - { offsetInCU: 0x2A2E6, offset: 0x22C9AF, size: 0x8, addend: 0x0, symName: __ZN4grpc25DefaultHealthCheckService22HealthCheckServiceImplC1EPS0_, symObjAddr: 0xDC0, symBinAddr: 0x1BB04, symSize: 0x4 }
  - { offsetInCU: 0x2A375, offset: 0x22CA3E, size: 0x8, addend: 0x0, symName: __ZN4grpc25DefaultHealthCheckService22HealthCheckServiceImplC1EPS0_, symObjAddr: 0xDC0, symBinAddr: 0x1BB04, symSize: 0x4 }
  - { offsetInCU: 0x2A673, offset: 0x22CD3C, size: 0x8, addend: 0x0, symName: __ZN4grpc8internal20CallbackUnaryHandlerINS_10ByteBufferES2_E23ServerCallbackUnaryImpl6FinishENS_6StatusE, symObjAddr: 0x4790, symBinAddr: 0x1F030, symSize: 0x1F4 }
  - { offsetInCU: 0x2B22F, offset: 0x22D8F8, size: 0x8, addend: 0x0, symName: __ZN4grpc8internal20CallbackUnaryHandlerINS_10ByteBufferES2_E23ServerCallbackUnaryImpl19SendInitialMetadataEv, symObjAddr: 0x4984, symBinAddr: 0x1F224, symSize: 0x190 }
  - { offsetInCU: 0x2B7DA, offset: 0x22DEA3, size: 0x8, addend: 0x0, symName: __ZN4grpc8internal20CallbackUnaryHandlerINS_10ByteBufferES2_E10RunHandlerERKNS0_13MethodHandler16HandlerParameterE, symObjAddr: 0x3E70, symBinAddr: 0x1E774, symSize: 0x2B0 }
  - { offsetInCU: 0x2C875, offset: 0x22EF3E, size: 0x8, addend: 0x0, symName: __ZN4grpc8internal30CallbackServerStreamingHandlerINS_10ByteBufferES2_E24ServerCallbackWriterImpl6FinishENS_6StatusE, symObjAddr: 0x8594, symBinAddr: 0x22CC0, symSize: 0x168 }
  - { offsetInCU: 0x2CDE4, offset: 0x22F4AD, size: 0x8, addend: 0x0, symName: __ZN4grpc8internal30CallbackServerStreamingHandlerINS_10ByteBufferES2_E24ServerCallbackWriterImpl19SendInitialMetadataEv, symObjAddr: 0x86FC, symBinAddr: 0x22E28, symSize: 0x190 }
  - { offsetInCU: 0x2D3A7, offset: 0x22FA70, size: 0x8, addend: 0x0, symName: __ZN4grpc8internal30CallbackServerStreamingHandlerINS_10ByteBufferES2_E10RunHandlerERKNS0_13MethodHandler16HandlerParameterE, symObjAddr: 0x7C80, symBinAddr: 0x223AC, symSize: 0x2A0 }
  - { offsetInCU: 0x2E172, offset: 0x23083B, size: 0x8, addend: 0x0, symName: __ZN4grpc8internal30CallbackServerStreamingHandlerINS_10ByteBufferES2_E24ServerCallbackWriterImpl12SetupReactorEPNS_18ServerWriteReactorIS2_EE, symObjAddr: 0x80F8, symBinAddr: 0x22824, symSize: 0x15C }
  - { offsetInCU: 0x30B9F, offset: 0x233268, size: 0x8, addend: 0x0, symName: __ZN4grpc25DefaultHealthCheckServiceC2Ev, symObjAddr: 0x0, symBinAddr: 0x1AD44, symSize: 0x12C }
  - { offsetInCU: 0x31363, offset: 0x233A2C, size: 0x8, addend: 0x0, symName: __ZNSt3__16__treeINS_12__value_typeINS_12basic_stringIcNS_11char_traitsIcEENS_9allocatorIcEEEEN4grpc25DefaultHealthCheckService11ServiceDataEEENS_19__map_value_compareIS7_SB_NS_4lessIS7_EELb1EEENS5_ISB_EEE25__emplace_unique_key_argsIS7_JRKNS_21piecewise_construct_tENS_5tupleIJOS7_EEENSM_IJEEEEEENS_4pairINS_15__tree_iteratorISB_PNS_11__tree_nodeISB_PvEElEEbEERKT_DpOT0_, symObjAddr: 0x2F98, symBinAddr: 0x1DAF8, symSize: 0xA8 }
  - { offsetInCU: 0x3174D, offset: 0x233E16, size: 0x8, addend: 0x0, symName: __ZN4grpc25DefaultHealthCheckService11ServiceData16SetServingStatusENS0_13ServingStatusE, symObjAddr: 0x12C, symBinAddr: 0x1AE70, symSize: 0x7C }
  - { offsetInCU: 0x31914, offset: 0x233FDD, size: 0x8, addend: 0x0, symName: __ZNSt3__16__treeINS_12__value_typeINS_12basic_stringIcNS_11char_traitsIcEENS_9allocatorIcEEEEN4grpc25DefaultHealthCheckService11ServiceDataEEENS_19__map_value_compareIS7_SB_NS_4lessIS7_EELb1EEENS5_ISB_EEE7destroyEPNS_11__tree_nodeISB_PvEE, symObjAddr: 0x2EC4, symBinAddr: 0x1DA24, symSize: 0x4C }
  - { offsetInCU: 0x31B48, offset: 0x234211, size: 0x8, addend: 0x0, symName: __ZN4grpc25DefaultHealthCheckService22HealthCheckServiceImpl12WatchReactor10SendHealthENS0_13ServingStatusE, symObjAddr: 0x5FC, symBinAddr: 0x1B340, symSize: 0x120 }
  - { offsetInCU: 0x31E29, offset: 0x2344F2, size: 0x8, addend: 0x0, symName: __ZN4grpc25DefaultHealthCheckServiceC1Ev, symObjAddr: 0x1A8, symBinAddr: 0x1AEEC, symSize: 0x4 }
  - { offsetInCU: 0x31E57, offset: 0x234520, size: 0x8, addend: 0x0, symName: __ZN4grpc25DefaultHealthCheckServiceC1Ev, symObjAddr: 0x1A8, symBinAddr: 0x1AEEC, symSize: 0x4 }
  - { offsetInCU: 0x31F41, offset: 0x23460A, size: 0x8, addend: 0x0, symName: __ZN4grpc25DefaultHealthCheckService16SetServingStatusERKNSt3__112basic_stringIcNS1_11char_traitsIcEENS1_9allocatorIcEEEEb, symObjAddr: 0x1AC, symBinAddr: 0x1AEF0, symSize: 0xD8 }
  - { offsetInCU: 0x32100, offset: 0x2347C9, size: 0x8, addend: 0x0, symName: __ZNSt3__16__treeINS_12__value_typeINS_12basic_stringIcNS_11char_traitsIcEENS_9allocatorIcEEEEN4grpc25DefaultHealthCheckService11ServiceDataEEENS_19__map_value_compareIS7_SB_NS_4lessIS7_EELb1EEENS5_ISB_EEE25__emplace_unique_key_argsIS7_JRKNS_21piecewise_construct_tENS_5tupleIJRKS7_EEENSM_IJEEEEEENS_4pairINS_15__tree_iteratorISB_PNS_11__tree_nodeISB_PvEElEEbEERKT_DpOT0_, symObjAddr: 0x3388, symBinAddr: 0x1DCD4, symSize: 0x94 }
  - { offsetInCU: 0x3234C, offset: 0x234A15, size: 0x8, addend: 0x0, symName: __ZN4grpc25DefaultHealthCheckService16SetServingStatusEb, symObjAddr: 0x284, symBinAddr: 0x1AFC8, symSize: 0xF0 }
  - { offsetInCU: 0x3266C, offset: 0x234D35, size: 0x8, addend: 0x0, symName: __ZN4grpc25DefaultHealthCheckService8ShutdownEv, symObjAddr: 0x374, symBinAddr: 0x1B0B8, symSize: 0xE4 }
  - { offsetInCU: 0x329F0, offset: 0x2350B9, size: 0x8, addend: 0x0, symName: __ZNK4grpc25DefaultHealthCheckService16GetServingStatusERKNSt3__112basic_stringIcNS1_11char_traitsIcEENS1_9allocatorIcEEEE, symObjAddr: 0x458, symBinAddr: 0x1B19C, symSize: 0xAC }
  - { offsetInCU: 0x32C07, offset: 0x2352D0, size: 0x8, addend: 0x0, symName: __ZNKSt3__16__treeINS_12__value_typeINS_12basic_stringIcNS_11char_traitsIcEENS_9allocatorIcEEEEN4grpc25DefaultHealthCheckService11ServiceDataEEENS_19__map_value_compareIS7_SB_NS_4lessIS7_EELb1EEENS5_ISB_EEE4findIS7_EENS_21__tree_const_iteratorISB_PNS_11__tree_nodeISB_PvEElEERKT_, symObjAddr: 0x34AC, symBinAddr: 0x1DDF8, symSize: 0x8C }
  - { offsetInCU: 0x32DE6, offset: 0x2354AF, size: 0x8, addend: 0x0, symName: __ZN4grpc25DefaultHealthCheckService13RegisterWatchERKNSt3__112basic_stringIcNS1_11char_traitsIcEENS1_9allocatorIcEEEEN9grpc_core13RefCountedPtrINS0_22HealthCheckServiceImpl12WatchReactorEEE, symObjAddr: 0x504, symBinAddr: 0x1B248, symSize: 0xF8 }
  - { offsetInCU: 0x330B9, offset: 0x235782, size: 0x8, addend: 0x0, symName: __ZN4grpc25DefaultHealthCheckService11ServiceData8AddWatchEN9grpc_core13RefCountedPtrINS0_22HealthCheckServiceImpl12WatchReactorEEE, symObjAddr: 0x71C, symBinAddr: 0x1B460, symSize: 0x5C }
  - { offsetInCU: 0x3316F, offset: 0x235838, size: 0x8, addend: 0x0, symName: __ZN9grpc_core13RefCountedPtrIN4grpc25DefaultHealthCheckService22HealthCheckServiceImpl12WatchReactorEED2Ev, symObjAddr: 0x3538, symBinAddr: 0x1DE84, symSize: 0x4C }
  - { offsetInCU: 0x3328A, offset: 0x235953, size: 0x8, addend: 0x0, symName: __ZN4grpc25DefaultHealthCheckService22HealthCheckServiceImpl12WatchReactor16SendHealthLockedENS0_13ServingStatusE, symObjAddr: 0x1C88, symBinAddr: 0x1C944, symSize: 0x240 }
  - { offsetInCU: 0x341D5, offset: 0x23689E, size: 0x8, addend: 0x0, symName: __ZNSt3__16__treeINS_12__value_typeIPN4grpc25DefaultHealthCheckService22HealthCheckServiceImpl12WatchReactorEN9grpc_core13RefCountedPtrIS5_EEEENS_19__map_value_compareIS6_SA_NS_4lessIS6_EELb1EEENS_9allocatorISA_EEE25__emplace_unique_key_argsIS6_JRKNS_21piecewise_construct_tENS_5tupleIJOS6_EEENSM_IJEEEEEENS_4pairINS_15__tree_iteratorISA_PNS_11__tree_nodeISA_PvEElEEbEERKT_DpOT0_, symObjAddr: 0x3A4C, symBinAddr: 0x1E398, symSize: 0xE0 }
  - { offsetInCU: 0x3461D, offset: 0x236CE6, size: 0x8, addend: 0x0, symName: __ZN9grpc_core13RefCountedPtrIN4grpc25DefaultHealthCheckService22HealthCheckServiceImpl12WatchReactorEEaSEOS5_, symObjAddr: 0x8F8, symBinAddr: 0x1B63C, symSize: 0x64 }
  - { offsetInCU: 0x347B5, offset: 0x236E7E, size: 0x8, addend: 0x0, symName: __ZN4grpc25DefaultHealthCheckService15UnregisterWatchERKNSt3__112basic_stringIcNS1_11char_traitsIcEENS1_9allocatorIcEEEEPNS0_22HealthCheckServiceImpl12WatchReactorE, symObjAddr: 0x778, symBinAddr: 0x1B4BC, symSize: 0xE8 }
  - { offsetInCU: 0x34AB2, offset: 0x23717B, size: 0x8, addend: 0x0, symName: __ZNSt3__16__treeINS_12__value_typeINS_12basic_stringIcNS_11char_traitsIcEENS_9allocatorIcEEEEN4grpc25DefaultHealthCheckService11ServiceDataEEENS_19__map_value_compareIS7_SB_NS_4lessIS7_EELb1EEENS5_ISB_EEE4findIS7_EENS_15__tree_iteratorISB_PNS_11__tree_nodeISB_PvEElEERKT_, symObjAddr: 0x3584, symBinAddr: 0x1DED0, symSize: 0x8C }
  - { offsetInCU: 0x34C0B, offset: 0x2372D4, size: 0x8, addend: 0x0, symName: __ZNSt3__16__treeINS_12__value_typeIPN4grpc25DefaultHealthCheckService22HealthCheckServiceImpl12WatchReactorEN9grpc_core13RefCountedPtrIS5_EEEENS_19__map_value_compareIS6_SA_NS_4lessIS6_EELb1EEENS_9allocatorISA_EEE14__erase_uniqueIS6_EEmRKT_, symObjAddr: 0x3BC4, symBinAddr: 0x1E510, symSize: 0x80 }
  - { offsetInCU: 0x34F13, offset: 0x2375DC, size: 0x8, addend: 0x0, symName: __ZNSt3__16__treeINS_12__value_typeINS_12basic_stringIcNS_11char_traitsIcEENS_9allocatorIcEEEEN4grpc25DefaultHealthCheckService11ServiceDataEEENS_19__map_value_compareIS7_SB_NS_4lessIS7_EELb1EEENS5_ISB_EEE5eraseENS_21__tree_const_iteratorISB_PNS_11__tree_nodeISB_PvEElEE, symObjAddr: 0x3610, symBinAddr: 0x1DF5C, symSize: 0x48 }
  - { offsetInCU: 0x350AE, offset: 0x237777, size: 0x8, addend: 0x0, symName: __ZN4grpc25DefaultHealthCheckService11ServiceData11RemoveWatchEPNS0_22HealthCheckServiceImpl12WatchReactorE, symObjAddr: 0x860, symBinAddr: 0x1B5A4, symSize: 0x28 }
  - { offsetInCU: 0x3519D, offset: 0x237866, size: 0x8, addend: 0x0, symName: __ZN4grpc25DefaultHealthCheckService21GetHealthCheckServiceEv, symObjAddr: 0x888, symBinAddr: 0x1B5CC, symSize: 0x70 }
  - { offsetInCU: 0x352F1, offset: 0x2379BA, size: 0x8, addend: 0x0, symName: __ZN4grpc25DefaultHealthCheckService22HealthCheckServiceImplC2EPS0_, symObjAddr: 0x95C, symBinAddr: 0x1B6A0, symSize: 0x2CC }
  - { offsetInCU: 0x35D7C, offset: 0x238445, size: 0x8, addend: 0x0, symName: __ZN4grpc25DefaultHealthCheckService21GetHealthCheckServiceEv.cold.1, symObjAddr: 0x96F8, symBinAddr: 0x4D454, symSize: 0x38 }
  - { offsetInCU: 0x35E9B, offset: 0x238564, size: 0x8, addend: 0x0, symName: __ZN4grpc25DefaultHealthCheckService21GetHealthCheckServiceEv.cold.1, symObjAddr: 0x96F8, symBinAddr: 0x4D454, symSize: 0x38 }
  - { offsetInCU: 0x367A8, offset: 0x238E71, size: 0x8, addend: 0x0, symName: __ZN4grpc7Service9AddMethodEPNS_8internal16RpcServiceMethodE, symObjAddr: 0xC28, symBinAddr: 0x1B96C, symSize: 0x104 }
  - { offsetInCU: 0x36D34, offset: 0x2393FD, size: 0x8, addend: 0x0, symName: __ZN4grpc7Service18MarkMethodCallbackEiPNS_8internal13MethodHandlerE, symObjAddr: 0xD2C, symBinAddr: 0x1BA70, symSize: 0x94 }
  - { offsetInCU: 0x36D40, offset: 0x239409, size: 0x8, addend: 0x0, symName: __ZNSt3__110__function12__value_funcIFPN4grpc18ServerUnaryReactorEPNS2_21CallbackServerContextEPKNS2_10ByteBufferEPS7_EEC2B7v160006EOSC_, symObjAddr: 0x4274, symBinAddr: 0x1EB78, symSize: 0x64 }
  - { offsetInCU: 0x36D8E, offset: 0x239457, size: 0x8, addend: 0x0, symName: __ZN4grpc7Service18MarkMethodCallbackEiPNS_8internal13MethodHandlerE, symObjAddr: 0xD2C, symBinAddr: 0x1BA70, symSize: 0x94 }
  - { offsetInCU: 0x36F23, offset: 0x2395EC, size: 0x8, addend: 0x0, symName: __ZNSt3__110__function12__value_funcIFPN4grpc18ServerWriteReactorINS2_10ByteBufferEEEPNS2_21CallbackServerContextEPKS4_EEC2B7v160006EOSC_, symObjAddr: 0x8068, symBinAddr: 0x22794, symSize: 0x64 }
  - { offsetInCU: 0x36F71, offset: 0x23963A, size: 0x8, addend: 0x0, symName: __ZNSt3__16vectorINS_10unique_ptrIN4grpc8internal16RpcServiceMethodENS_14default_deleteIS4_EEEENS_9allocatorIS7_EEED2B7v160006Ev, symObjAddr: 0x2B50, symBinAddr: 0x1D770, symSize: 0x38 }
  - { offsetInCU: 0x37675, offset: 0x239D3E, size: 0x8, addend: 0x0, symName: __ZNSt3__114__split_bufferINS_10unique_ptrIN4grpc8internal16RpcServiceMethodENS_14default_deleteIS4_EEEERNS_9allocatorIS7_EEED2Ev, symObjAddr: 0x2A1C, symBinAddr: 0x1D63C, symSize: 0x50 }
  - { offsetInCU: 0x37843, offset: 0x239F0C, size: 0x8, addend: 0x0, symName: __ZNKSt3__16vectorINS_10unique_ptrIN4grpc8internal16RpcServiceMethodENS_14default_deleteIS4_EEEENS_9allocatorIS7_EEE20__throw_length_errorB7v160006Ev, symObjAddr: 0x28EC, symBinAddr: 0x1D5A8, symSize: 0x14 }
  - { offsetInCU: 0x37941, offset: 0x23A00A, size: 0x8, addend: 0x0, symName: __ZN4grpc8internal16RpcServiceMethod16SetServerApiTypeENS1_7ApiTypeE, symObjAddr: 0x2A6C, symBinAddr: 0x1D68C, symSize: 0xA8 }
  - { offsetInCU: 0x37A63, offset: 0x23A12C, size: 0x8, addend: 0x0, symName: __ZN4grpc25DefaultHealthCheckService22HealthCheckServiceImplD2Ev, symObjAddr: 0xDC4, symBinAddr: 0x1BB08, symSize: 0x110 }
  - { offsetInCU: 0x37C91, offset: 0x23A35A, size: 0x8, addend: 0x0, symName: __ZN4grpc25DefaultHealthCheckService22HealthCheckServiceImplD1Ev, symObjAddr: 0xEE0, symBinAddr: 0x1BC18, symSize: 0x4 }
  - { offsetInCU: 0x37CB4, offset: 0x23A37D, size: 0x8, addend: 0x0, symName: __ZN4grpc25DefaultHealthCheckService22HealthCheckServiceImplD1Ev, symObjAddr: 0xEE0, symBinAddr: 0x1BC18, symSize: 0x4 }
  - { offsetInCU: 0x37CE4, offset: 0x23A3AD, size: 0x8, addend: 0x0, symName: __ZN4grpc25DefaultHealthCheckService22HealthCheckServiceImplD0Ev, symObjAddr: 0xEE4, symBinAddr: 0x1BC1C, symSize: 0x14 }
  - { offsetInCU: 0x37E6A, offset: 0x23A533, size: 0x8, addend: 0x0, symName: __ZN4grpc25DefaultHealthCheckService22HealthCheckServiceImpl18HandleCheckRequestEPS0_PNS_21CallbackServerContextEPKNS_10ByteBufferEPS5_, symObjAddr: 0xEF8, symBinAddr: 0x1BC30, symSize: 0x2A8 }
  - { offsetInCU: 0x38DEF, offset: 0x23B4B8, size: 0x8, addend: 0x0, symName: __ZN4grpc17ServerContextBase14DefaultReactorEv, symObjAddr: 0x11A0, symBinAddr: 0x1BED8, symSize: 0x9C }
  - { offsetInCU: 0x3913C, offset: 0x23B805, size: 0x8, addend: 0x0, symName: __ZN4grpc25DefaultHealthCheckService22HealthCheckServiceImpl13DecodeRequestERKNS_10ByteBufferEPNSt3__112basic_stringIcNS5_11char_traitsIcEENS5_9allocatorIcEEEE, symObjAddr: 0x123C, symBinAddr: 0x1BF74, symSize: 0x1D8 }
  - { offsetInCU: 0x39148, offset: 0x23B811, size: 0x8, addend: 0x0, symName: __ZN4grpc25DefaultHealthCheckService22HealthCheckServiceImpl13DecodeRequestERKNS_10ByteBufferEPNSt3__112basic_stringIcNS5_11char_traitsIcEENS5_9allocatorIcEEEE, symObjAddr: 0x123C, symBinAddr: 0x1BF74, symSize: 0x1D8 }
  - { offsetInCU: 0x39704, offset: 0x23BDCD, size: 0x8, addend: 0x0, symName: __ZN4grpc25DefaultHealthCheckService22HealthCheckServiceImpl14EncodeResponseENS0_13ServingStatusEPNS_10ByteBufferE, symObjAddr: 0x15DC, symBinAddr: 0x1C314, symSize: 0x188 }
  - { offsetInCU: 0x39AA5, offset: 0x23C16E, size: 0x8, addend: 0x0, symName: __ZN4grpc18ServerUnaryReactor6FinishENS_6StatusE, symObjAddr: 0x1414, symBinAddr: 0x1C14C, symSize: 0x188 }
  - { offsetInCU: 0x3A35E, offset: 0x23CA27, size: 0x8, addend: 0x0, symName: __ZN4grpc6StatusD1Ev, symObjAddr: 0x159C, symBinAddr: 0x1C2D4, symSize: 0x40 }
  - { offsetInCU: 0x3A825, offset: 0x23CEEE, size: 0x8, addend: 0x0, symName: __ZN4grpc17ServerContextBase14DefaultReactorEv.cold.1, symObjAddr: 0x9730, symBinAddr: 0x4D48C, symSize: 0x28 }
  - { offsetInCU: 0x3B1C8, offset: 0x23D891, size: 0x8, addend: 0x0, symName: __ZN4grpc25DefaultHealthCheckService22HealthCheckServiceImpl12WatchReactorC2EPS1_PKNS_10ByteBufferE, symObjAddr: 0x17E0, symBinAddr: 0x1C49C, symSize: 0x2A8 }
  - { offsetInCU: 0x3C0C3, offset: 0x23E78C, size: 0x8, addend: 0x0, symName: __ZN4grpc25DefaultHealthCheckService22HealthCheckServiceImpl12WatchReactor17MaybeFinishLockedENS_6StatusE, symObjAddr: 0x1A88, symBinAddr: 0x1C744, symSize: 0x18C }
  - { offsetInCU: 0x3C84C, offset: 0x23EF15, size: 0x8, addend: 0x0, symName: __ZN4grpc10ByteBufferD2Ev, symObjAddr: 0x2DC0, symBinAddr: 0x1D9D8, symSize: 0x44 }
  - { offsetInCU: 0x3C87B, offset: 0x23EF44, size: 0x8, addend: 0x0, symName: __ZN4grpc18ServerWriteReactorINS_10ByteBufferEED2Ev, symObjAddr: 0x1C14, symBinAddr: 0x1C8D0, symSize: 0x70 }
  - { offsetInCU: 0x3CC07, offset: 0x23F2D0, size: 0x8, addend: 0x0, symName: __ZN4grpc18ServerWriteReactorINS_10ByteBufferEE6FinishENS_6StatusE, symObjAddr: 0x22B8, symBinAddr: 0x1CF74, symSize: 0x188 }
  - { offsetInCU: 0x3D4FA, offset: 0x23FBC3, size: 0x8, addend: 0x0, symName: __ZN4grpc25DefaultHealthCheckService22HealthCheckServiceImpl12WatchReactorC1EPS1_PKNS_10ByteBufferE, symObjAddr: 0x1C84, symBinAddr: 0x1C940, symSize: 0x4 }
  - { offsetInCU: 0x3D52B, offset: 0x23FBF4, size: 0x8, addend: 0x0, symName: __ZN4grpc25DefaultHealthCheckService22HealthCheckServiceImpl12WatchReactorC1EPS1_PKNS_10ByteBufferE, symObjAddr: 0x1C84, symBinAddr: 0x1C940, symSize: 0x4 }
  - { offsetInCU: 0x3D572, offset: 0x23FC3B, size: 0x8, addend: 0x0, symName: __ZN4grpc18ServerWriteReactorINS_10ByteBufferEE10StartWriteEPKS1_NS_12WriteOptionsE, symObjAddr: 0x95B4, symBinAddr: 0x23C84, symSize: 0xD0 }
  - { offsetInCU: 0x3D7A5, offset: 0x23FE6E, size: 0x8, addend: 0x0, symName: __ZN4grpc25DefaultHealthCheckService22HealthCheckServiceImpl12WatchReactor11OnWriteDoneEb, symObjAddr: 0x1EC8, symBinAddr: 0x1CB84, symSize: 0x19C }
  - { offsetInCU: 0x3E041, offset: 0x24070A, size: 0x8, addend: 0x0, symName: __ZN4grpc25DefaultHealthCheckService22HealthCheckServiceImpl12WatchReactor8OnCancelEv, symObjAddr: 0x2064, symBinAddr: 0x1CD20, symSize: 0x11C }
  - { offsetInCU: 0x3E7AE, offset: 0x240E77, size: 0x8, addend: 0x0, symName: __ZN4grpc25DefaultHealthCheckService22HealthCheckServiceImpl12WatchReactor6OnDoneEv, symObjAddr: 0x2180, symBinAddr: 0x1CE3C, symSize: 0x138 }
  - { offsetInCU: 0x3EAD6, offset: 0x24119F, size: 0x8, addend: 0x0, symName: __ZN4grpc25DefaultHealthCheckServiceD1Ev, symObjAddr: 0x2440, symBinAddr: 0x1D0FC, symSize: 0x64 }
  - { offsetInCU: 0x3ECBE, offset: 0x241387, size: 0x8, addend: 0x0, symName: __ZN4grpc25DefaultHealthCheckServiceD0Ev, symObjAddr: 0x24A4, symBinAddr: 0x1D160, symSize: 0x64 }
  - { offsetInCU: 0x3EEC7, offset: 0x241590, size: 0x8, addend: 0x0, symName: __ZN4grpc25DefaultHealthCheckService22HealthCheckServiceImpl12WatchReactorD1Ev, symObjAddr: 0x2508, symBinAddr: 0x1D1C4, symSize: 0x6C }
  - { offsetInCU: 0x3F0DB, offset: 0x2417A4, size: 0x8, addend: 0x0, symName: __ZN4grpc25DefaultHealthCheckService22HealthCheckServiceImpl12WatchReactorD0Ev, symObjAddr: 0x2574, symBinAddr: 0x1D230, symSize: 0x70 }
  - { offsetInCU: 0x3F2E4, offset: 0x2419AD, size: 0x8, addend: 0x0, symName: __ZN4grpc8internal13ServerReactor18InternalInlineableEv, symObjAddr: 0x25E4, symBinAddr: 0x1D2A0, symSize: 0x8 }
  - { offsetInCU: 0x3F30A, offset: 0x2419D3, size: 0x8, addend: 0x0, symName: __ZN4grpc18ServerWriteReactorINS_10ByteBufferEE25OnSendInitialMetadataDoneEb, symObjAddr: 0x25EC, symBinAddr: 0x1D2A8, symSize: 0x4 }
  - { offsetInCU: 0x3F379, offset: 0x241A42, size: 0x8, addend: 0x0, symName: __ZN4grpc18ServerWriteReactorINS_10ByteBufferEE18InternalBindWriterEPNS_20ServerCallbackWriterIS1_EE, symObjAddr: 0x25F0, symBinAddr: 0x1D2AC, symSize: 0x1B0 }
  - { offsetInCU: 0x3F781, offset: 0x241E4A, size: 0x8, addend: 0x0, symName: __ZThn160_N4grpc25DefaultHealthCheckService22HealthCheckServiceImpl12WatchReactorD1Ev, symObjAddr: 0x27A0, symBinAddr: 0x1D45C, symSize: 0x70 }
  - { offsetInCU: 0x3F9A7, offset: 0x242070, size: 0x8, addend: 0x0, symName: __ZThn160_N4grpc25DefaultHealthCheckService22HealthCheckServiceImpl12WatchReactorD0Ev, symObjAddr: 0x2810, symBinAddr: 0x1D4CC, symSize: 0x74 }
  - { offsetInCU: 0x3FBC2, offset: 0x24228B, size: 0x8, addend: 0x0, symName: __ZN4grpc7ServiceD1Ev, symObjAddr: 0x2884, symBinAddr: 0x1D540, symSize: 0x34 }
  - { offsetInCU: 0x3FC45, offset: 0x24230E, size: 0x8, addend: 0x0, symName: __ZN4grpc7ServiceD0Ev, symObjAddr: 0x28B8, symBinAddr: 0x1D574, symSize: 0x34 }
  - { offsetInCU: 0x3FDEB, offset: 0x2424B4, size: 0x8, addend: 0x0, symName: __ZNSt3__110unique_ptrIN4grpc8internal16RpcServiceMethodENS_14default_deleteIS3_EEE5resetB7v160006EPS3_, symObjAddr: 0x29D0, symBinAddr: 0x1D5F0, symSize: 0x4C }
  - { offsetInCU: 0x4008A, offset: 0x242753, size: 0x8, addend: 0x0, symName: __ZN4grpc8internal16RpcServiceMethod12TypeToStringENS1_7ApiTypeE, symObjAddr: 0x2B14, symBinAddr: 0x1D734, symSize: 0x3C }
  - { offsetInCU: 0x400C2, offset: 0x24278B, size: 0x8, addend: 0x0, symName: __ZNSt3__16vectorINS_10unique_ptrIN4grpc8internal16RpcServiceMethodENS_14default_deleteIS4_EEEENS_9allocatorIS7_EEED2B7v160006Ev, symObjAddr: 0x2B50, symBinAddr: 0x1D770, symSize: 0x38 }
  - { offsetInCU: 0x40143, offset: 0x24280C, size: 0x8, addend: 0x0, symName: __ZNSt3__16vectorINS_10unique_ptrIN4grpc8internal16RpcServiceMethodENS_14default_deleteIS4_EEEENS_9allocatorIS7_EEE16__destroy_vectorclB7v160006Ev, symObjAddr: 0x2B88, symBinAddr: 0x1D7A8, symSize: 0x74 }
  - { offsetInCU: 0x40369, offset: 0x242A32, size: 0x8, addend: 0x0, symName: __ZN4grpc17ServerContextBase7ReactorD1Ev, symObjAddr: 0x2BFC, symBinAddr: 0x1D81C, symSize: 0x4 }
  - { offsetInCU: 0x4038B, offset: 0x242A54, size: 0x8, addend: 0x0, symName: __ZN4grpc17ServerContextBase7ReactorD1Ev, symObjAddr: 0x2BFC, symBinAddr: 0x1D81C, symSize: 0x4 }
  - { offsetInCU: 0x403AA, offset: 0x242A73, size: 0x8, addend: 0x0, symName: __ZN4grpc17ServerContextBase7ReactorD1Ev, symObjAddr: 0x2BFC, symBinAddr: 0x1D81C, symSize: 0x4 }
  - { offsetInCU: 0x403BE, offset: 0x242A87, size: 0x8, addend: 0x0, symName: __ZN4grpc18ServerUnaryReactorD2Ev, symObjAddr: 0x2D50, symBinAddr: 0x1D968, symSize: 0x70 }
  - { offsetInCU: 0x40751, offset: 0x242E1A, size: 0x8, addend: 0x0, symName: __ZN4grpc17ServerContextBase7ReactorD0Ev, symObjAddr: 0x2C00, symBinAddr: 0x1D820, symSize: 0x14 }
  - { offsetInCU: 0x407D0, offset: 0x242E99, size: 0x8, addend: 0x0, symName: __ZN4grpc17ServerContextBase7Reactor6OnDoneEv, symObjAddr: 0x2C14, symBinAddr: 0x1D834, symSize: 0x4 }
  - { offsetInCU: 0x407F5, offset: 0x242EBE, size: 0x8, addend: 0x0, symName: __ZN4grpc17ServerContextBase7Reactor8OnCancelEv, symObjAddr: 0x2C18, symBinAddr: 0x1D838, symSize: 0x4 }
  - { offsetInCU: 0x4081A, offset: 0x242EE3, size: 0x8, addend: 0x0, symName: __ZN4grpc17ServerContextBase7Reactor18InternalInlineableEv, symObjAddr: 0x2C1C, symBinAddr: 0x1D83C, symSize: 0x8 }
  - { offsetInCU: 0x40840, offset: 0x242F09, size: 0x8, addend: 0x0, symName: __ZN4grpc18ServerUnaryReactor25OnSendInitialMetadataDoneEb, symObjAddr: 0x2C24, symBinAddr: 0x1D844, symSize: 0x4 }
  - { offsetInCU: 0x408A5, offset: 0x242F6E, size: 0x8, addend: 0x0, symName: __ZN4grpc18ServerUnaryReactor16InternalBindCallEPNS_19ServerCallbackUnaryE, symObjAddr: 0x2C28, symBinAddr: 0x1D848, symSize: 0x11C }
  - { offsetInCU: 0x40BA1, offset: 0x24326A, size: 0x8, addend: 0x0, symName: __ZN4grpc18ServerUnaryReactorD1Ev, symObjAddr: 0x2D44, symBinAddr: 0x4D444, symSize: 0x4 }
  - { offsetInCU: 0x40BCA, offset: 0x243293, size: 0x8, addend: 0x0, symName: __ZN4grpc18ServerUnaryReactorD0Ev, symObjAddr: 0x2D48, symBinAddr: 0x4D448, symSize: 0x4 }
  - { offsetInCU: 0x40BF3, offset: 0x2432BC, size: 0x8, addend: 0x0, symName: __ZN4grpc18ServerUnaryReactor8OnCancelEv, symObjAddr: 0x2D4C, symBinAddr: 0x1D964, symSize: 0x4 }
  - { offsetInCU: 0x40C52, offset: 0x24331B, size: 0x8, addend: 0x0, symName: __ZN4grpc18ServerWriteReactorINS_10ByteBufferEED1Ev, symObjAddr: 0x2E04, symBinAddr: 0x4D44C, symSize: 0x4 }
  - { offsetInCU: 0x40C7B, offset: 0x243344, size: 0x8, addend: 0x0, symName: __ZN4grpc18ServerWriteReactorINS_10ByteBufferEED0Ev, symObjAddr: 0x2E08, symBinAddr: 0x4D450, symSize: 0x4 }
  - { offsetInCU: 0x40CA4, offset: 0x24336D, size: 0x8, addend: 0x0, symName: __ZN4grpc18ServerWriteReactorINS_10ByteBufferEE8OnCancelEv, symObjAddr: 0x2E0C, symBinAddr: 0x1DA1C, symSize: 0x4 }
  - { offsetInCU: 0x40CC9, offset: 0x243392, size: 0x8, addend: 0x0, symName: __ZN4grpc18ServerWriteReactorINS_10ByteBufferEE11OnWriteDoneEb, symObjAddr: 0x2E10, symBinAddr: 0x1DA20, symSize: 0x4 }
  - { offsetInCU: 0x40E8B, offset: 0x243554, size: 0x8, addend: 0x0, symName: __ZNSt3__16__treeINS_12__value_typeINS_12basic_stringIcNS_11char_traitsIcEENS_9allocatorIcEEEEN4grpc25DefaultHealthCheckService11ServiceDataEEENS_19__map_value_compareIS7_SB_NS_4lessIS7_EELb1EEENS5_ISB_EEE7destroyEPNS_11__tree_nodeISB_PvEE, symObjAddr: 0x2EC4, symBinAddr: 0x1DA24, symSize: 0x4C }
  - { offsetInCU: 0x40F0F, offset: 0x2435D8, size: 0x8, addend: 0x0, symName: __ZNSt3__116allocator_traitsINS_9allocatorINS_11__tree_nodeINS_12__value_typeINS_12basic_stringIcNS_11char_traitsIcEENS1_IcEEEEN4grpc25DefaultHealthCheckService11ServiceDataEEEPvEEEEE7destroyB7v160006INS_4pairIKS8_SB_EEvvEEvRSF_PT_, symObjAddr: 0x2F10, symBinAddr: 0x1DA70, symSize: 0x40 }
  - { offsetInCU: 0x4125D, offset: 0x243926, size: 0x8, addend: 0x0, symName: __ZNSt3__16__treeINS_12__value_typeIPN4grpc25DefaultHealthCheckService22HealthCheckServiceImpl12WatchReactorEN9grpc_core13RefCountedPtrIS5_EEEENS_19__map_value_compareIS6_SA_NS_4lessIS6_EELb1EEENS_9allocatorISA_EEE7destroyEPNS_11__tree_nodeISA_PvEE, symObjAddr: 0x2F50, symBinAddr: 0x1DAB0, symSize: 0x48 }
  - { offsetInCU: 0x41872, offset: 0x243F3B, size: 0x8, addend: 0x0, symName: __ZNSt3__16__treeINS_12__value_typeINS_12basic_stringIcNS_11char_traitsIcEENS_9allocatorIcEEEEN4grpc25DefaultHealthCheckService11ServiceDataEEENS_19__map_value_compareIS7_SB_NS_4lessIS7_EELb1EEENS5_ISB_EEE12__find_equalIS7_EERPNS_16__tree_node_baseIPvEERPNS_15__tree_end_nodeISM_EERKT_, symObjAddr: 0x3040, symBinAddr: 0x1DBA0, symSize: 0x9C }
  - { offsetInCU: 0x419A5, offset: 0x24406E, size: 0x8, addend: 0x0, symName: __ZNSt3__16__treeINS_12__value_typeINS_12basic_stringIcNS_11char_traitsIcEENS_9allocatorIcEEEEN4grpc25DefaultHealthCheckService11ServiceDataEEENS_19__map_value_compareIS7_SB_NS_4lessIS7_EELb1EEENS5_ISB_EEE16__insert_node_atEPNS_15__tree_end_nodeIPNS_16__tree_node_baseIPvEEEERSM_SM_, symObjAddr: 0x30DC, symBinAddr: 0x1DC3C, symSize: 0x54 }
  - { offsetInCU: 0x41CFF, offset: 0x2443C8, size: 0x8, addend: 0x0, symName: __ZNSt3__122__tree_node_destructorINS_9allocatorINS_11__tree_nodeINS_12__value_typeINS_12basic_stringIcNS_11char_traitsIcEENS1_IcEEEEN4grpc25DefaultHealthCheckService11ServiceDataEEEPvEEEEEclB7v160006EPSE_, symObjAddr: 0x3344, symBinAddr: 0x1DC90, symSize: 0x44 }
  - { offsetInCU: 0x41E5D, offset: 0x244526, size: 0x8, addend: 0x0, symName: __ZNSt3__16__treeINS_12__value_typeINS_12basic_stringIcNS_11char_traitsIcEENS_9allocatorIcEEEEN4grpc25DefaultHealthCheckService11ServiceDataEEENS_19__map_value_compareIS7_SB_NS_4lessIS7_EELb1EEENS5_ISB_EEE16__construct_nodeIJRKNS_21piecewise_construct_tENS_5tupleIJRKS7_EEENSM_IJEEEEEENS_10unique_ptrINS_11__tree_nodeISB_PvEENS_22__tree_node_destructorINS5_ISU_EEEEEEDpOT_, symObjAddr: 0x341C, symBinAddr: 0x1DD68, symSize: 0x90 }
  - { offsetInCU: 0x426E2, offset: 0x244DAB, size: 0x8, addend: 0x0, symName: __ZNSt3__16__treeINS_12__value_typeINS_12basic_stringIcNS_11char_traitsIcEENS_9allocatorIcEEEEN4grpc25DefaultHealthCheckService11ServiceDataEEENS_19__map_value_compareIS7_SB_NS_4lessIS7_EELb1EEENS5_ISB_EEE21__remove_node_pointerEPNS_11__tree_nodeISB_PvEE, symObjAddr: 0x3658, symBinAddr: 0x1DFA4, symSize: 0x70 }
  - { offsetInCU: 0x42CBB, offset: 0x245384, size: 0x8, addend: 0x0, symName: __ZNSt3__16__treeINS_12__value_typeIPN4grpc25DefaultHealthCheckService22HealthCheckServiceImpl12WatchReactorEN9grpc_core13RefCountedPtrIS5_EEEENS_19__map_value_compareIS6_SA_NS_4lessIS6_EELb1EEENS_9allocatorISA_EEE16__insert_node_atEPNS_15__tree_end_nodeIPNS_16__tree_node_baseIPvEEEERSM_SM_, symObjAddr: 0x3B2C, symBinAddr: 0x1E478, symSize: 0x54 }
  - { offsetInCU: 0x42D24, offset: 0x2453ED, size: 0x8, addend: 0x0, symName: __ZNSt3__110unique_ptrINS_11__tree_nodeINS_12__value_typeIPN4grpc25DefaultHealthCheckService22HealthCheckServiceImpl12WatchReactorEN9grpc_core13RefCountedPtrIS6_EEEEPvEENS_22__tree_node_destructorINS_9allocatorISD_EEEEE5resetB7v160006EPSD_, symObjAddr: 0x3B80, symBinAddr: 0x1E4CC, symSize: 0x44 }
  - { offsetInCU: 0x4301C, offset: 0x2456E5, size: 0x8, addend: 0x0, symName: __ZNSt3__16__treeINS_12__value_typeIPN4grpc25DefaultHealthCheckService22HealthCheckServiceImpl12WatchReactorEN9grpc_core13RefCountedPtrIS5_EEEENS_19__map_value_compareIS6_SA_NS_4lessIS6_EELb1EEENS_9allocatorISA_EEE21__remove_node_pointerEPNS_11__tree_nodeISA_PvEE, symObjAddr: 0x3C44, symBinAddr: 0x1E590, symSize: 0x70 }
  - { offsetInCU: 0x430E4, offset: 0x2457AD, size: 0x8, addend: 0x0, symName: '__ZNSt3__110__function6__funcIZN4grpc25DefaultHealthCheckService22HealthCheckServiceImplC1EPS3_E3$_0NS_9allocatorIS6_EEFPNS2_18ServerUnaryReactorEPNS2_21CallbackServerContextEPKNS2_10ByteBufferEPSD_EED1Ev', symObjAddr: 0x3CB4, symBinAddr: 0x1E600, symSize: 0x4 }
  - { offsetInCU: 0x43110, offset: 0x2457D9, size: 0x8, addend: 0x0, symName: '__ZNSt3__110__function6__funcIZN4grpc25DefaultHealthCheckService22HealthCheckServiceImplC1EPS3_E3$_0NS_9allocatorIS6_EEFPNS2_18ServerUnaryReactorEPNS2_21CallbackServerContextEPKNS2_10ByteBufferEPSD_EED0Ev', symObjAddr: 0x3CB8, symBinAddr: 0x1E604, symSize: 0x4 }
  - { offsetInCU: 0x43324, offset: 0x2459ED, size: 0x8, addend: 0x0, symName: '__ZNKSt3__110__function6__funcIZN4grpc25DefaultHealthCheckService22HealthCheckServiceImplC1EPS3_E3$_0NS_9allocatorIS6_EEFPNS2_18ServerUnaryReactorEPNS2_21CallbackServerContextEPKNS2_10ByteBufferEPSD_EE7__cloneEv', symObjAddr: 0x3CBC, symBinAddr: 0x1E608, symSize: 0x34 }
  - { offsetInCU: 0x4362F, offset: 0x245CF8, size: 0x8, addend: 0x0, symName: '__ZNKSt3__110__function6__funcIZN4grpc25DefaultHealthCheckService22HealthCheckServiceImplC1EPS3_E3$_0NS_9allocatorIS6_EEFPNS2_18ServerUnaryReactorEPNS2_21CallbackServerContextEPKNS2_10ByteBufferEPSD_EE7__cloneEPNS0_6__baseISH_EE', symObjAddr: 0x3CF0, symBinAddr: 0x1E63C, symSize: 0x14 }
  - { offsetInCU: 0x43667, offset: 0x245D30, size: 0x8, addend: 0x0, symName: '__ZNKSt3__110__function6__funcIZN4grpc25DefaultHealthCheckService22HealthCheckServiceImplC1EPS3_E3$_0NS_9allocatorIS6_EEFPNS2_18ServerUnaryReactorEPNS2_21CallbackServerContextEPKNS2_10ByteBufferEPSD_EE7__cloneEPNS0_6__baseISH_EE', symObjAddr: 0x3CF0, symBinAddr: 0x1E63C, symSize: 0x14 }
  - { offsetInCU: 0x43696, offset: 0x245D5F, size: 0x8, addend: 0x0, symName: '__ZNKSt3__110__function6__funcIZN4grpc25DefaultHealthCheckService22HealthCheckServiceImplC1EPS3_E3$_0NS_9allocatorIS6_EEFPNS2_18ServerUnaryReactorEPNS2_21CallbackServerContextEPKNS2_10ByteBufferEPSD_EE7__cloneEPNS0_6__baseISH_EE', symObjAddr: 0x3CF0, symBinAddr: 0x1E63C, symSize: 0x14 }
  - { offsetInCU: 0x436C5, offset: 0x245D8E, size: 0x8, addend: 0x0, symName: '__ZNKSt3__110__function6__funcIZN4grpc25DefaultHealthCheckService22HealthCheckServiceImplC1EPS3_E3$_0NS_9allocatorIS6_EEFPNS2_18ServerUnaryReactorEPNS2_21CallbackServerContextEPKNS2_10ByteBufferEPSD_EE7__cloneEPNS0_6__baseISH_EE', symObjAddr: 0x3CF0, symBinAddr: 0x1E63C, symSize: 0x14 }
  - { offsetInCU: 0x436DB, offset: 0x245DA4, size: 0x8, addend: 0x0, symName: '__ZNKSt3__110__function6__funcIZN4grpc25DefaultHealthCheckService22HealthCheckServiceImplC1EPS3_E3$_0NS_9allocatorIS6_EEFPNS2_18ServerUnaryReactorEPNS2_21CallbackServerContextEPKNS2_10ByteBufferEPSD_EE7__cloneEPNS0_6__baseISH_EE', symObjAddr: 0x3CF0, symBinAddr: 0x1E63C, symSize: 0x14 }
  - { offsetInCU: 0x436EF, offset: 0x245DB8, size: 0x8, addend: 0x0, symName: '__ZNKSt3__110__function6__funcIZN4grpc25DefaultHealthCheckService22HealthCheckServiceImplC1EPS3_E3$_0NS_9allocatorIS6_EEFPNS2_18ServerUnaryReactorEPNS2_21CallbackServerContextEPKNS2_10ByteBufferEPSD_EE7__cloneEPNS0_6__baseISH_EE', symObjAddr: 0x3CF0, symBinAddr: 0x1E63C, symSize: 0x14 }
  - { offsetInCU: 0x43703, offset: 0x245DCC, size: 0x8, addend: 0x0, symName: '__ZNKSt3__110__function6__funcIZN4grpc25DefaultHealthCheckService22HealthCheckServiceImplC1EPS3_E3$_0NS_9allocatorIS6_EEFPNS2_18ServerUnaryReactorEPNS2_21CallbackServerContextEPKNS2_10ByteBufferEPSD_EE7__cloneEPNS0_6__baseISH_EE', symObjAddr: 0x3CF0, symBinAddr: 0x1E63C, symSize: 0x14 }
  - { offsetInCU: 0x43718, offset: 0x245DE1, size: 0x8, addend: 0x0, symName: '__ZNKSt3__110__function6__funcIZN4grpc25DefaultHealthCheckService22HealthCheckServiceImplC1EPS3_E3$_0NS_9allocatorIS6_EEFPNS2_18ServerUnaryReactorEPNS2_21CallbackServerContextEPKNS2_10ByteBufferEPSD_EE7__cloneEPNS0_6__baseISH_EE', symObjAddr: 0x3CF0, symBinAddr: 0x1E63C, symSize: 0x14 }
  - { offsetInCU: 0x43730, offset: 0x245DF9, size: 0x8, addend: 0x0, symName: '__ZNSt3__110__function6__funcIZN4grpc25DefaultHealthCheckService22HealthCheckServiceImplC1EPS3_E3$_0NS_9allocatorIS6_EEFPNS2_18ServerUnaryReactorEPNS2_21CallbackServerContextEPKNS2_10ByteBufferEPSD_EE7destroyEv', symObjAddr: 0x3D04, symBinAddr: 0x1E650, symSize: 0x4 }
  - { offsetInCU: 0x43783, offset: 0x245E4C, size: 0x8, addend: 0x0, symName: '__ZNSt3__110__function6__funcIZN4grpc25DefaultHealthCheckService22HealthCheckServiceImplC1EPS3_E3$_0NS_9allocatorIS6_EEFPNS2_18ServerUnaryReactorEPNS2_21CallbackServerContextEPKNS2_10ByteBufferEPSD_EE18destroy_deallocateEv', symObjAddr: 0x3D08, symBinAddr: 0x1E654, symSize: 0x4 }
  - { offsetInCU: 0x437B9, offset: 0x245E82, size: 0x8, addend: 0x0, symName: '__ZNSt3__110__function6__funcIZN4grpc25DefaultHealthCheckService22HealthCheckServiceImplC1EPS3_E3$_0NS_9allocatorIS6_EEFPNS2_18ServerUnaryReactorEPNS2_21CallbackServerContextEPKNS2_10ByteBufferEPSD_EE18destroy_deallocateEv', symObjAddr: 0x3D08, symBinAddr: 0x1E654, symSize: 0x4 }
  - { offsetInCU: 0x437DD, offset: 0x245EA6, size: 0x8, addend: 0x0, symName: '__ZNSt3__110__function6__funcIZN4grpc25DefaultHealthCheckService22HealthCheckServiceImplC1EPS3_E3$_0NS_9allocatorIS6_EEFPNS2_18ServerUnaryReactorEPNS2_21CallbackServerContextEPKNS2_10ByteBufferEPSD_EE18destroy_deallocateEv', symObjAddr: 0x3D08, symBinAddr: 0x1E654, symSize: 0x4 }
  - { offsetInCU: 0x43809, offset: 0x245ED2, size: 0x8, addend: 0x0, symName: '__ZNSt3__110__function6__funcIZN4grpc25DefaultHealthCheckService22HealthCheckServiceImplC1EPS3_E3$_0NS_9allocatorIS6_EEFPNS2_18ServerUnaryReactorEPNS2_21CallbackServerContextEPKNS2_10ByteBufferEPSD_EE18destroy_deallocateEv', symObjAddr: 0x3D08, symBinAddr: 0x1E654, symSize: 0x4 }
  - { offsetInCU: 0x43830, offset: 0x245EF9, size: 0x8, addend: 0x0, symName: '__ZNSt3__110__function6__funcIZN4grpc25DefaultHealthCheckService22HealthCheckServiceImplC1EPS3_E3$_0NS_9allocatorIS6_EEFPNS2_18ServerUnaryReactorEPNS2_21CallbackServerContextEPKNS2_10ByteBufferEPSD_EE18destroy_deallocateEv', symObjAddr: 0x3D08, symBinAddr: 0x1E654, symSize: 0x4 }
  - { offsetInCU: 0x4392E, offset: 0x245FF7, size: 0x8, addend: 0x0, symName: '__ZNSt3__110__function6__funcIZN4grpc25DefaultHealthCheckService22HealthCheckServiceImplC1EPS3_E3$_0NS_9allocatorIS6_EEFPNS2_18ServerUnaryReactorEPNS2_21CallbackServerContextEPKNS2_10ByteBufferEPSD_EEclEOSC_OSF_OSG_', symObjAddr: 0x3D0C, symBinAddr: 0x1E658, symSize: 0x14 }
  - { offsetInCU: 0x4398B, offset: 0x246054, size: 0x8, addend: 0x0, symName: '__ZNSt3__110__function6__funcIZN4grpc25DefaultHealthCheckService22HealthCheckServiceImplC1EPS3_E3$_0NS_9allocatorIS6_EEFPNS2_18ServerUnaryReactorEPNS2_21CallbackServerContextEPKNS2_10ByteBufferEPSD_EEclEOSC_OSF_OSG_', symObjAddr: 0x3D0C, symBinAddr: 0x1E658, symSize: 0x14 }
  - { offsetInCU: 0x439C9, offset: 0x246092, size: 0x8, addend: 0x0, symName: '__ZNSt3__110__function6__funcIZN4grpc25DefaultHealthCheckService22HealthCheckServiceImplC1EPS3_E3$_0NS_9allocatorIS6_EEFPNS2_18ServerUnaryReactorEPNS2_21CallbackServerContextEPKNS2_10ByteBufferEPSD_EEclEOSC_OSF_OSG_', symObjAddr: 0x3D0C, symBinAddr: 0x1E658, symSize: 0x14 }
  - { offsetInCU: 0x43A05, offset: 0x2460CE, size: 0x8, addend: 0x0, symName: '__ZNSt3__110__function6__funcIZN4grpc25DefaultHealthCheckService22HealthCheckServiceImplC1EPS3_E3$_0NS_9allocatorIS6_EEFPNS2_18ServerUnaryReactorEPNS2_21CallbackServerContextEPKNS2_10ByteBufferEPSD_EEclEOSC_OSF_OSG_', symObjAddr: 0x3D0C, symBinAddr: 0x1E658, symSize: 0x14 }
  - { offsetInCU: 0x43A88, offset: 0x246151, size: 0x8, addend: 0x0, symName: '__ZNKSt3__110__function6__funcIZN4grpc25DefaultHealthCheckService22HealthCheckServiceImplC1EPS3_E3$_0NS_9allocatorIS6_EEFPNS2_18ServerUnaryReactorEPNS2_21CallbackServerContextEPKNS2_10ByteBufferEPSD_EE6targetERKSt9type_info', symObjAddr: 0x3D20, symBinAddr: 0x1E66C, symSize: 0x3C }
  - { offsetInCU: 0x43B25, offset: 0x2461EE, size: 0x8, addend: 0x0, symName: '__ZNKSt3__110__function6__funcIZN4grpc25DefaultHealthCheckService22HealthCheckServiceImplC1EPS3_E3$_0NS_9allocatorIS6_EEFPNS2_18ServerUnaryReactorEPNS2_21CallbackServerContextEPKNS2_10ByteBufferEPSD_EE11target_typeEv', symObjAddr: 0x3D5C, symBinAddr: 0x1E6A8, symSize: 0xC }
  - { offsetInCU: 0x43B9C, offset: 0x246265, size: 0x8, addend: 0x0, symName: __ZN4grpc8internal20CallbackUnaryHandlerINS_10ByteBufferES2_ED1Ev, symObjAddr: 0x3DB0, symBinAddr: 0x1E6B4, symSize: 0x60 }
  - { offsetInCU: 0x43C85, offset: 0x24634E, size: 0x8, addend: 0x0, symName: __ZN4grpc8internal20CallbackUnaryHandlerINS_10ByteBufferES2_ED0Ev, symObjAddr: 0x3E10, symBinAddr: 0x1E714, symSize: 0x60 }
  - { offsetInCU: 0x441BA, offset: 0x246883, size: 0x8, addend: 0x0, symName: __ZN4grpc8internal20CallbackUnaryHandlerINS_10ByteBufferES2_E23ServerCallbackUnaryImplC2EPNS_21CallbackServerContextEPNS0_4CallEPNS_13MessageHolderIS2_S2_EENSt3__18functionIFvvEEE, symObjAddr: 0x4408, symBinAddr: 0x1ECA8, symSize: 0x150 }
  - { offsetInCU: 0x44957, offset: 0x247020, size: 0x8, addend: 0x0, symName: __ZN4grpc8internal17FinishOnlyReactorINS_18ServerUnaryReactorEEC2ENS_6StatusE, symObjAddr: 0x7870, symBinAddr: 0x21F9C, symSize: 0xFC }
  - { offsetInCU: 0x44FA1, offset: 0x24766A, size: 0x8, addend: 0x0, symName: __ZN4grpc8internal20CallbackUnaryHandlerINS_10ByteBufferES2_E23ServerCallbackUnaryImpl12SetupReactorEPNS_18ServerUnaryReactorE, symObjAddr: 0x4308, symBinAddr: 0x1EC0C, symSize: 0x9C }
  - { offsetInCU: 0x45226, offset: 0x2478EF, size: 0x8, addend: 0x0, symName: __ZN4grpc8internal20CallbackUnaryHandlerINS_10ByteBufferES2_E11DeserializeEP9grpc_callP16grpc_byte_bufferPNS_6StatusEPPv, symObjAddr: 0x4120, symBinAddr: 0x1EA24, symSize: 0x154 }
  - { offsetInCU: 0x45855, offset: 0x247F1E, size: 0x8, addend: 0x0, symName: __ZN4grpc19SerializationTraitsINS_10ByteBufferEvE11DeserializeEPS1_S3_, symObjAddr: 0x7990, symBinAddr: 0x220BC, symSize: 0xA0 }
  - { offsetInCU: 0x45A2A, offset: 0x2480F3, size: 0x8, addend: 0x0, symName: __ZNKSt3__18functionIFPN4grpc18ServerUnaryReactorEPNS1_21CallbackServerContextEPKNS1_10ByteBufferEPS6_EEclES5_S8_S9_, symObjAddr: 0x782C, symBinAddr: 0x21F58, symSize: 0x44 }
  - { offsetInCU: 0x45ADF, offset: 0x2481A8, size: 0x8, addend: 0x0, symName: __ZN4grpc8internal17FinishOnlyReactorINS_18ServerUnaryReactorEEC2ENS_6StatusE, symObjAddr: 0x7870, symBinAddr: 0x21F9C, symSize: 0xFC }
  - { offsetInCU: 0x460C0, offset: 0x248789, size: 0x8, addend: 0x0, symName: __ZN4grpc8internal9CallOpSetINS0_25CallOpSendInitialMetadataENS0_17CallOpSendMessageENS0_22CallOpServerSendStatusENS0_8CallNoOpILi4EEENS5_ILi5EEENS5_ILi6EEEEC2Ev, symObjAddr: 0x5F9C, symBinAddr: 0x20758, symSize: 0x9C }
  - { offsetInCU: 0x460EB, offset: 0x2487B4, size: 0x8, addend: 0x0, symName: __ZN4grpc8internal9CallOpSetINS0_25CallOpSendInitialMetadataENS0_17CallOpSendMessageENS0_22CallOpServerSendStatusENS0_8CallNoOpILi4EEENS5_ILi5EEENS5_ILi6EEEEC2Ev, symObjAddr: 0x5F9C, symBinAddr: 0x20758, symSize: 0x9C }
  - { offsetInCU: 0x46436, offset: 0x248AFF, size: 0x8, addend: 0x0, symName: __ZNSt3__110__function12__value_funcIFvvEEC2B7v160006EOS3_, symObjAddr: 0x6CE8, symBinAddr: 0x214A4, symSize: 0x64 }
  - { offsetInCU: 0x46484, offset: 0x248B4D, size: 0x8, addend: 0x0, symName: __ZN4grpc8internal22CallbackWithSuccessTagD2Ev, symObjAddr: 0x6D4C, symBinAddr: 0x21508, symSize: 0x58 }
  - { offsetInCU: 0x46552, offset: 0x248C1B, size: 0x8, addend: 0x0, symName: __ZN4grpc8internal27InterceptorBatchMethodsImplD2Ev, symObjAddr: 0x53BC, symBinAddr: 0x1FC5C, symSize: 0x90 }
  - { offsetInCU: 0x4675F, offset: 0x248E28, size: 0x8, addend: 0x0, symName: __ZN4grpc8internal9CallOpSetINS0_25CallOpSendInitialMetadataENS0_17CallOpSendMessageENS0_22CallOpServerSendStatusENS0_8CallNoOpILi4EEENS5_ILi5EEENS5_ILi6EEEED1Ev, symObjAddr: 0x4558, symBinAddr: 0x1EDF8, symSize: 0x90 }
  - { offsetInCU: 0x46B48, offset: 0x249211, size: 0x8, addend: 0x0, symName: __ZN4grpc8internal9CallOpSetINS0_25CallOpSendInitialMetadataENS0_8CallNoOpILi2EEENS3_ILi3EEENS3_ILi4EEENS3_ILi5EEENS3_ILi6EEEED1Ev, symObjAddr: 0x45E8, symBinAddr: 0x1EE88, symSize: 0x34 }
  - { offsetInCU: 0x46BB5, offset: 0x24927E, size: 0x8, addend: 0x0, symName: __ZN4grpc8internal20CallbackUnaryHandlerINS_10ByteBufferES2_E23ServerCallbackUnaryImplD1Ev, symObjAddr: 0x461C, symBinAddr: 0x1EEBC, symSize: 0x4 }
  - { offsetInCU: 0x46BD8, offset: 0x2492A1, size: 0x8, addend: 0x0, symName: __ZN4grpc8internal20CallbackUnaryHandlerINS_10ByteBufferES2_E23ServerCallbackUnaryImplD1Ev, symObjAddr: 0x461C, symBinAddr: 0x1EEBC, symSize: 0x4 }
  - { offsetInCU: 0x46BEC, offset: 0x2492B5, size: 0x8, addend: 0x0, symName: __ZN4grpc8internal20CallbackUnaryHandlerINS_10ByteBufferES2_E23ServerCallbackUnaryImplD2Ev, symObjAddr: 0x6E24, symBinAddr: 0x215E0, symSize: 0xF8 }
  - { offsetInCU: 0x4715A, offset: 0x249823, size: 0x8, addend: 0x0, symName: __ZN4grpc8internal20CallbackUnaryHandlerINS_10ByteBufferES2_E23ServerCallbackUnaryImplD0Ev, symObjAddr: 0x4620, symBinAddr: 0x1EEC0, symSize: 0x14 }
  - { offsetInCU: 0x471EA, offset: 0x2498B3, size: 0x8, addend: 0x0, symName: __ZN4grpc8internal20CallbackUnaryHandlerINS_10ByteBufferES2_E23ServerCallbackUnaryImpl7reactorEv, symObjAddr: 0x4634, symBinAddr: 0x1EED4, symSize: 0x8 }
  - { offsetInCU: 0x47212, offset: 0x2498DB, size: 0x8, addend: 0x0, symName: __ZN4grpc8internal20CallbackUnaryHandlerINS_10ByteBufferES2_E23ServerCallbackUnaryImpl7reactorEv, symObjAddr: 0x4634, symBinAddr: 0x1EED4, symSize: 0x8 }
  - { offsetInCU: 0x47237, offset: 0x249900, size: 0x8, addend: 0x0, symName: __ZN4grpc8internal20CallbackUnaryHandlerINS_10ByteBufferES2_E23ServerCallbackUnaryImpl7reactorEv, symObjAddr: 0x4634, symBinAddr: 0x1EED4, symSize: 0x8 }
  - { offsetInCU: 0x472B1, offset: 0x24997A, size: 0x8, addend: 0x0, symName: __ZN4grpc8internal20CallbackUnaryHandlerINS_10ByteBufferES2_E23ServerCallbackUnaryImpl10CallOnDoneEv, symObjAddr: 0x463C, symBinAddr: 0x1EEDC, symSize: 0x154 }
  - { offsetInCU: 0x478E5, offset: 0x249FAE, size: 0x8, addend: 0x0, symName: __ZN4grpc8internal22CallbackWithSuccessTag3SetEP9grpc_callNSt3__18functionIFvbEEEPNS0_18CompletionQueueTagEb, symObjAddr: 0x6F1C, symBinAddr: 0x216D8, symSize: 0xB0 }
  - { offsetInCU: 0x479B3, offset: 0x24A07C, size: 0x8, addend: 0x0, symName: __ZN4grpc8internal22CallOpServerSendStatus16ServerSendStatusEPNSt3__18multimapINS2_12basic_stringIcNS2_11char_traitsIcEENS2_9allocatorIcEEEES9_NS2_4lessIS9_EENS7_INS2_4pairIKS9_S9_EEEEEERKNS_6StatusE, symObjAddr: 0x6FCC, symBinAddr: 0x21788, symSize: 0xA8 }
  - { offsetInCU: 0x47CB3, offset: 0x24A37C, size: 0x8, addend: 0x0, symName: __ZNSt3__18functionIFN4grpc6StatusEPKvEEaSIZNS1_8internal17CallOpSendMessage14SendMessagePtrINS1_10ByteBufferEEES2_PKT_NS1_12WriteOptionsEEUlS4_E_vEERS6_OSC_, symObjAddr: 0x72F8, symBinAddr: 0x21A24, symSize: 0xA8 }
  - { offsetInCU: 0x480CB, offset: 0x24A794, size: 0x8, addend: 0x0, symName: __ZN4grpc8internal9CallOpSetINS0_25CallOpSendInitialMetadataENS0_8CallNoOpILi2EEENS3_ILi3EEENS3_ILi4EEENS3_ILi5EEENS3_ILi6EEEED0Ev, symObjAddr: 0x4B14, symBinAddr: 0x1F3B4, symSize: 0x34 }
  - { offsetInCU: 0x481FD, offset: 0x24A8C6, size: 0x8, addend: 0x0, symName: __ZN4grpc8internal9CallOpSetINS0_25CallOpSendInitialMetadataENS0_8CallNoOpILi2EEENS3_ILi3EEENS3_ILi4EEENS3_ILi5EEENS3_ILi6EEEE14FinalizeResultEPPvPb, symObjAddr: 0x4B48, symBinAddr: 0x1F3E8, symSize: 0xEC }
  - { offsetInCU: 0x4835A, offset: 0x24AA23, size: 0x8, addend: 0x0, symName: __ZN4grpc8internal27InterceptorBatchMethodsImpl15RunInterceptorsEv, symObjAddr: 0x5AD8, symBinAddr: 0x20294, symSize: 0xA0 }
  - { offsetInCU: 0x48455, offset: 0x24AB1E, size: 0x8, addend: 0x0, symName: __ZN4grpc8internal9CallOpSetINS0_25CallOpSendInitialMetadataENS0_8CallNoOpILi2EEENS3_ILi3EEENS3_ILi4EEENS3_ILi5EEENS3_ILi6EEEE7FillOpsEPNS0_4CallE, symObjAddr: 0x4C34, symBinAddr: 0x1F4D4, symSize: 0x74 }
  - { offsetInCU: 0x484E0, offset: 0x24ABA9, size: 0x8, addend: 0x0, symName: __ZN4grpc8internal9CallOpSetINS0_25CallOpSendInitialMetadataENS0_8CallNoOpILi2EEENS3_ILi3EEENS3_ILi4EEENS3_ILi5EEENS3_ILi6EEEE15RunInterceptorsEv, symObjAddr: 0x5BF0, symBinAddr: 0x203AC, symSize: 0x8C }
  - { offsetInCU: 0x48508, offset: 0x24ABD1, size: 0x8, addend: 0x0, symName: __ZN4grpc8internal9CallOpSetINS0_25CallOpSendInitialMetadataENS0_8CallNoOpILi2EEENS3_ILi3EEENS3_ILi4EEENS3_ILi5EEENS3_ILi6EEEE15RunInterceptorsEv, symObjAddr: 0x5BF0, symBinAddr: 0x203AC, symSize: 0x8C }
  - { offsetInCU: 0x48697, offset: 0x24AD60, size: 0x8, addend: 0x0, symName: __ZN4grpc8internal9CallOpSetINS0_25CallOpSendInitialMetadataENS0_8CallNoOpILi2EEENS3_ILi3EEENS3_ILi4EEENS3_ILi5EEENS3_ILi6EEEE11core_cq_tagEv, symObjAddr: 0x4CA8, symBinAddr: 0x1F548, symSize: 0x8 }
  - { offsetInCU: 0x486DC, offset: 0x24ADA5, size: 0x8, addend: 0x0, symName: __ZN4grpc8internal9CallOpSetINS0_25CallOpSendInitialMetadataENS0_8CallNoOpILi2EEENS3_ILi3EEENS3_ILi4EEENS3_ILi5EEENS3_ILi6EEEE17SetHijackingStateEv, symObjAddr: 0x4CB0, symBinAddr: 0x1F550, symSize: 0xC }
  - { offsetInCU: 0x4872B, offset: 0x24ADF4, size: 0x8, addend: 0x0, symName: __ZN4grpc8internal25CallOpSendInitialMetadata5AddOpEP7grpc_opPm, symObjAddr: 0x5C7C, symBinAddr: 0x20438, symSize: 0xF4 }
  - { offsetInCU: 0x48A39, offset: 0x24B102, size: 0x8, addend: 0x0, symName: __ZN4grpc8internal9CallOpSetINS0_25CallOpSendInitialMetadataENS0_8CallNoOpILi2EEENS3_ILi3EEENS3_ILi4EEENS3_ILi5EEENS3_ILi6EEEE39ContinueFinalizeResultAfterInterceptionEv, symObjAddr: 0x4DA0, symBinAddr: 0x1F640, symSize: 0x9C }
  - { offsetInCU: 0x48AD7, offset: 0x24B1A0, size: 0x8, addend: 0x0, symName: __ZN4grpc8internal27InterceptorBatchMethodsImplD1Ev, symObjAddr: 0x4E3C, symBinAddr: 0x1F6DC, symSize: 0x4 }
  - { offsetInCU: 0x48AFA, offset: 0x24B1C3, size: 0x8, addend: 0x0, symName: __ZN4grpc8internal27InterceptorBatchMethodsImplD1Ev, symObjAddr: 0x4E3C, symBinAddr: 0x1F6DC, symSize: 0x4 }
  - { offsetInCU: 0x48B0E, offset: 0x24B1D7, size: 0x8, addend: 0x0, symName: __ZN4grpc8internal27InterceptorBatchMethodsImplD0Ev, symObjAddr: 0x4E40, symBinAddr: 0x1F6E0, symSize: 0x14 }
  - { offsetInCU: 0x48B69, offset: 0x24B232, size: 0x8, addend: 0x0, symName: __ZN4grpc8internal27InterceptorBatchMethodsImpl26QueryInterceptionHookPointENS_12experimental22InterceptionHookPointsE, symObjAddr: 0x4E54, symBinAddr: 0x1F6F4, symSize: 0xC }
  - { offsetInCU: 0x48BC9, offset: 0x24B292, size: 0x8, addend: 0x0, symName: __ZN4grpc8internal27InterceptorBatchMethodsImpl7ProceedEv, symObjAddr: 0x4E60, symBinAddr: 0x1F700, symSize: 0x74 }
  - { offsetInCU: 0x48C67, offset: 0x24B330, size: 0x8, addend: 0x0, symName: __ZN4grpc8internal27InterceptorBatchMethodsImpl13ProceedClientEv, symObjAddr: 0x544C, symBinAddr: 0x1FCEC, symSize: 0xE4 }
  - { offsetInCU: 0x48D48, offset: 0x24B411, size: 0x8, addend: 0x0, symName: __ZN4grpc8internal27InterceptorBatchMethodsImpl13ProceedServerEv, symObjAddr: 0x5530, symBinAddr: 0x1FDD0, symSize: 0xD0 }
  - { offsetInCU: 0x48E67, offset: 0x24B530, size: 0x8, addend: 0x0, symName: __ZN4grpc8internal27InterceptorBatchMethodsImpl6HijackEv, symObjAddr: 0x4ED4, symBinAddr: 0x1F774, symSize: 0xE4 }
  - { offsetInCU: 0x49021, offset: 0x24B6EA, size: 0x8, addend: 0x0, symName: __ZN4grpc8internal27InterceptorBatchMethodsImpl24GetSerializedSendMessageEv, symObjAddr: 0x4FB8, symBinAddr: 0x1F858, symSize: 0xF0 }
  - { offsetInCU: 0x4937F, offset: 0x24BA48, size: 0x8, addend: 0x0, symName: __ZN4grpc8internal27InterceptorBatchMethodsImpl14GetSendMessageEv, symObjAddr: 0x50A8, symBinAddr: 0x1F948, symSize: 0x5C }
  - { offsetInCU: 0x4938B, offset: 0x24BA54, size: 0x8, addend: 0x0, symName: __ZN4grpc8internal27InterceptorBatchMethodsImpl14GetSendMessageEv, symObjAddr: 0x50A8, symBinAddr: 0x1F948, symSize: 0x5C }
  - { offsetInCU: 0x493C5, offset: 0x24BA8E, size: 0x8, addend: 0x0, symName: __ZN4grpc8internal27InterceptorBatchMethodsImpl17ModifySendMessageEPKv, symObjAddr: 0x5104, symBinAddr: 0x1F9A4, symSize: 0x60 }
  - { offsetInCU: 0x4940F, offset: 0x24BAD8, size: 0x8, addend: 0x0, symName: __ZN4grpc8internal27InterceptorBatchMethodsImpl20GetSendMessageStatusEv, symObjAddr: 0x5164, symBinAddr: 0x1FA04, symSize: 0x14 }
  - { offsetInCU: 0x49435, offset: 0x24BAFE, size: 0x8, addend: 0x0, symName: __ZN4grpc8internal27InterceptorBatchMethodsImpl22GetSendInitialMetadataEv, symObjAddr: 0x5178, symBinAddr: 0x1FA18, symSize: 0x8 }
  - { offsetInCU: 0x49499, offset: 0x24BB62, size: 0x8, addend: 0x0, symName: __ZN4grpc8internal27InterceptorBatchMethodsImpl13GetSendStatusEv, symObjAddr: 0x5180, symBinAddr: 0x1FA20, symSize: 0x14 }
  - { offsetInCU: 0x494F9, offset: 0x24BBC2, size: 0x8, addend: 0x0, symName: __ZN4grpc6StatusC2ENS_10StatusCodeERKNSt3__112basic_stringIcNS2_11char_traitsIcEENS2_9allocatorIcEEEESA_, symObjAddr: 0x574C, symBinAddr: 0x1FF20, symSize: 0x6C }
  - { offsetInCU: 0x4968F, offset: 0x24BD58, size: 0x8, addend: 0x0, symName: __ZN4grpc8internal27InterceptorBatchMethodsImpl16ModifySendStatusERKNS_6StatusE, symObjAddr: 0x5194, symBinAddr: 0x1FA34, symSize: 0x98 }
  - { offsetInCU: 0x4997B, offset: 0x24C044, size: 0x8, addend: 0x0, symName: __ZN4grpc8internal27InterceptorBatchMethodsImpl23GetSendTrailingMetadataEv, symObjAddr: 0x522C, symBinAddr: 0x1FACC, symSize: 0x8 }
  - { offsetInCU: 0x499A1, offset: 0x24C06A, size: 0x8, addend: 0x0, symName: __ZN4grpc8internal27InterceptorBatchMethodsImpl14GetRecvMessageEv, symObjAddr: 0x5234, symBinAddr: 0x1FAD4, symSize: 0x8 }
  - { offsetInCU: 0x499DD, offset: 0x24C0A6, size: 0x8, addend: 0x0, symName: __ZN4grpc8internal27InterceptorBatchMethodsImpl22GetRecvInitialMetadataEv, symObjAddr: 0x523C, symBinAddr: 0x1FADC, symSize: 0x28 }
  - { offsetInCU: 0x49A35, offset: 0x24C0FE, size: 0x8, addend: 0x0, symName: __ZN4grpc8internal11MetadataMap7FillMapEv, symObjAddr: 0x57B8, symBinAddr: 0x1FF8C, symSize: 0xB8 }
  - { offsetInCU: 0x49BCE, offset: 0x24C297, size: 0x8, addend: 0x0, symName: __ZN4grpc8internal27InterceptorBatchMethodsImpl13GetRecvStatusEv, symObjAddr: 0x5264, symBinAddr: 0x1FB04, symSize: 0x8 }
  - { offsetInCU: 0x49BF4, offset: 0x24C2BD, size: 0x8, addend: 0x0, symName: __ZN4grpc8internal27InterceptorBatchMethodsImpl23GetRecvTrailingMetadataEv, symObjAddr: 0x526C, symBinAddr: 0x1FB0C, symSize: 0x28 }
  - { offsetInCU: 0x49CD0, offset: 0x24C399, size: 0x8, addend: 0x0, symName: __ZN4grpc8internal27InterceptorBatchMethodsImpl21GetInterceptedChannelEv, symObjAddr: 0x5294, symBinAddr: 0x1FB34, symSize: 0x68 }
  - { offsetInCU: 0x49D92, offset: 0x24C45B, size: 0x8, addend: 0x0, symName: __ZN4grpc8internal27InterceptorBatchMethodsImpl23FailHijackedRecvMessageEv, symObjAddr: 0x52FC, symBinAddr: 0x1FB9C, symSize: 0x60 }
  - { offsetInCU: 0x49DCD, offset: 0x24C496, size: 0x8, addend: 0x0, symName: __ZN4grpc8internal27InterceptorBatchMethodsImpl23FailHijackedSendMessageEv, symObjAddr: 0x535C, symBinAddr: 0x1FBFC, symSize: 0x60 }
  - { offsetInCU: 0x49E4F, offset: 0x24C518, size: 0x8, addend: 0x0, symName: __ZN4grpc12experimental13ServerRpcInfo14RunInterceptorEPNS0_23InterceptorBatchMethodsEm, symObjAddr: 0x5680, symBinAddr: 0x1FEA0, symSize: 0x80 }
  - { offsetInCU: 0x4A0E0, offset: 0x24C7A9, size: 0x8, addend: 0x0, symName: __ZNSt3__16__treeINS_12__value_typeIN4grpc10string_refES3_EENS_19__map_value_compareIS3_S4_NS_4lessIS3_EELb1EEENS_9allocatorIS4_EEE15__emplace_multiIJNS_4pairIS3_S3_EEEEENS_15__tree_iteratorIS4_PNS_11__tree_nodeIS4_PvEElEEDpOT_, symObjAddr: 0x5870, symBinAddr: 0x20044, symSize: 0x90 }
  - { offsetInCU: 0x4A72E, offset: 0x24CDF7, size: 0x8, addend: 0x0, symName: __ZNSt3__16__treeINS_12__value_typeIN4grpc10string_refES3_EENS_19__map_value_compareIS3_S4_NS_4lessIS3_EELb1EEENS_9allocatorIS4_EEE16__find_leaf_highERPNS_15__tree_end_nodeIPNS_16__tree_node_baseIPvEEEERKS3_, symObjAddr: 0x5900, symBinAddr: 0x200D4, symSize: 0x8C }
  - { offsetInCU: 0x4A905, offset: 0x24CFCE, size: 0x8, addend: 0x0, symName: __ZNSt3__16__treeINS_12__value_typeIN4grpc10string_refES3_EENS_19__map_value_compareIS3_S4_NS_4lessIS3_EELb1EEENS_9allocatorIS4_EEE16__insert_node_atEPNS_15__tree_end_nodeIPNS_16__tree_node_baseIPvEEEERSG_SG_, symObjAddr: 0x598C, symBinAddr: 0x20160, symSize: 0x54 }
  - { offsetInCU: 0x4A9F3, offset: 0x24D0BC, size: 0x8, addend: 0x0, symName: __ZNK4grpc10string_ref7compareES0_, symObjAddr: 0x59E0, symBinAddr: 0x201B4, symSize: 0x54 }
  - { offsetInCU: 0x4AA63, offset: 0x24D12C, size: 0x8, addend: 0x0, symName: __ZN4grpc8internal18InterceptedChannelD1Ev, symObjAddr: 0x5A34, symBinAddr: 0x20208, symSize: 0x14 }
  - { offsetInCU: 0x4AA8E, offset: 0x24D157, size: 0x8, addend: 0x0, symName: __ZN4grpc8internal18InterceptedChannelD1Ev, symObjAddr: 0x5A34, symBinAddr: 0x20208, symSize: 0x14 }
  - { offsetInCU: 0x4AAA8, offset: 0x24D171, size: 0x8, addend: 0x0, symName: __ZN4grpc8internal18InterceptedChannelD0Ev, symObjAddr: 0x5A48, symBinAddr: 0x2021C, symSize: 0x4 }
  - { offsetInCU: 0x4AAD1, offset: 0x24D19A, size: 0x8, addend: 0x0, symName: __ZN4grpc8internal18InterceptedChannel8GetStateEb, symObjAddr: 0x5A4C, symBinAddr: 0x20220, symSize: 0x10 }
  - { offsetInCU: 0x4AB1F, offset: 0x24D1E8, size: 0x8, addend: 0x0, symName: __ZN4grpc8internal18InterceptedChannel10CreateCallERKNS0_9RpcMethodEPNS_13ClientContextEPNS_15CompletionQueueE, symObjAddr: 0x5A5C, symBinAddr: 0x20230, symSize: 0x14 }
  - { offsetInCU: 0x4AB9C, offset: 0x24D265, size: 0x8, addend: 0x0, symName: __ZN4grpc8internal18InterceptedChannel16PerformOpsOnCallEPNS0_18CallOpSetInterfaceEPNS0_4CallE, symObjAddr: 0x5A70, symBinAddr: 0x20244, symSize: 0x10 }
  - { offsetInCU: 0x4ABFB, offset: 0x24D2C4, size: 0x8, addend: 0x0, symName: __ZN4grpc8internal18InterceptedChannel14RegisterMethodEPKc, symObjAddr: 0x5A80, symBinAddr: 0x20254, symSize: 0x10 }
  - { offsetInCU: 0x4AC44, offset: 0x24D30D, size: 0x8, addend: 0x0, symName: __ZN4grpc8internal18InterceptedChannel23NotifyOnStateChangeImplE23grpc_connectivity_state12gpr_timespecPNS_15CompletionQueueEPv, symObjAddr: 0x5A90, symBinAddr: 0x20264, symSize: 0x10 }
  - { offsetInCU: 0x4ACD5, offset: 0x24D39E, size: 0x8, addend: 0x0, symName: __ZN4grpc8internal18InterceptedChannel22WaitForStateChangeImplE23grpc_connectivity_state12gpr_timespec, symObjAddr: 0x5AA0, symBinAddr: 0x20274, symSize: 0x10 }
  - { offsetInCU: 0x4AD3A, offset: 0x24D403, size: 0x8, addend: 0x0, symName: __ZN4grpc8internal18InterceptedChannel10CallbackCQEv, symObjAddr: 0x5AC8, symBinAddr: 0x20284, symSize: 0x10 }
  - { offsetInCU: 0x4AD82, offset: 0x24D44B, size: 0x8, addend: 0x0, symName: __ZN4grpc8internal27InterceptorBatchMethodsImpl21RunClientInterceptorsEv, symObjAddr: 0x5B78, symBinAddr: 0x20334, symSize: 0x44 }
  - { offsetInCU: 0x4AE05, offset: 0x24D4CE, size: 0x8, addend: 0x0, symName: __ZN4grpc8internal27InterceptorBatchMethodsImpl21RunServerInterceptorsEv, symObjAddr: 0x5BBC, symBinAddr: 0x20378, symSize: 0x34 }
  - { offsetInCU: 0x4B06A, offset: 0x24D733, size: 0x8, addend: 0x0, symName: __ZN4grpc8internal9CallOpSetINS0_25CallOpSendInitialMetadataENS0_17CallOpSendMessageENS0_22CallOpServerSendStatusENS0_8CallNoOpILi4EEENS5_ILi5EEENS5_ILi6EEEED0Ev, symObjAddr: 0x6038, symBinAddr: 0x207F4, symSize: 0x90 }
  - { offsetInCU: 0x4B4B0, offset: 0x24DB79, size: 0x8, addend: 0x0, symName: __ZN4grpc8internal9CallOpSetINS0_25CallOpSendInitialMetadataENS0_17CallOpSendMessageENS0_22CallOpServerSendStatusENS0_8CallNoOpILi4EEENS5_ILi5EEENS5_ILi6EEEE14FinalizeResultEPPvPb, symObjAddr: 0x60C8, symBinAddr: 0x20884, symSize: 0x13C }
  - { offsetInCU: 0x4B67A, offset: 0x24DD43, size: 0x8, addend: 0x0, symName: __ZN4grpc8internal17CallOpSendMessage8FinishOpEPb, symObjAddr: 0x6434, symBinAddr: 0x20BF0, symSize: 0x7C }
  - { offsetInCU: 0x4B6D5, offset: 0x24DD9E, size: 0x8, addend: 0x0, symName: __ZN4grpc8internal17CallOpSendMessage30SetFinishInterceptionHookPointEPNS0_27InterceptorBatchMethodsImplE, symObjAddr: 0x64B0, symBinAddr: 0x20C6C, symSize: 0x11C }
  - { offsetInCU: 0x4B956, offset: 0x24E01F, size: 0x8, addend: 0x0, symName: __ZN4grpc8internal9CallOpSetINS0_25CallOpSendInitialMetadataENS0_17CallOpSendMessageENS0_22CallOpServerSendStatusENS0_8CallNoOpILi4EEENS5_ILi5EEENS5_ILi6EEEE7FillOpsEPNS0_4CallE, symObjAddr: 0x6204, symBinAddr: 0x209C0, symSize: 0x74 }
  - { offsetInCU: 0x4B9E1, offset: 0x24E0AA, size: 0x8, addend: 0x0, symName: __ZN4grpc8internal9CallOpSetINS0_25CallOpSendInitialMetadataENS0_17CallOpSendMessageENS0_22CallOpServerSendStatusENS0_8CallNoOpILi4EEENS5_ILi5EEENS5_ILi6EEEE15RunInterceptorsEv, symObjAddr: 0x6834, symBinAddr: 0x20FF0, symSize: 0xE4 }
  - { offsetInCU: 0x4BC93, offset: 0x24E35C, size: 0x8, addend: 0x0, symName: __ZN4grpc8internal9CallOpSetINS0_25CallOpSendInitialMetadataENS0_17CallOpSendMessageENS0_22CallOpServerSendStatusENS0_8CallNoOpILi4EEENS5_ILi5EEENS5_ILi6EEEE11core_cq_tagEv, symObjAddr: 0x6278, symBinAddr: 0x20A34, symSize: 0x8 }
  - { offsetInCU: 0x4BCF7, offset: 0x24E3C0, size: 0x8, addend: 0x0, symName: __ZN4grpc8internal9CallOpSetINS0_25CallOpSendInitialMetadataENS0_17CallOpSendMessageENS0_22CallOpServerSendStatusENS0_8CallNoOpILi4EEENS5_ILi5EEENS5_ILi6EEEE17SetHijackingStateEv, symObjAddr: 0x6280, symBinAddr: 0x20A3C, symSize: 0x14 }
  - { offsetInCU: 0x4BD9B, offset: 0x24E464, size: 0x8, addend: 0x0, symName: __ZN4grpc8internal17CallOpSendMessage5AddOpEP7grpc_opPm, symObjAddr: 0x6A24, symBinAddr: 0x211E0, symSize: 0x184 }
  - { offsetInCU: 0x4C252, offset: 0x24E91B, size: 0x8, addend: 0x0, symName: __ZN4grpc8internal22CallOpServerSendStatus5AddOpEP7grpc_opPm, symObjAddr: 0x6BA8, symBinAddr: 0x21364, symSize: 0x140 }
  - { offsetInCU: 0x4C25E, offset: 0x24E927, size: 0x8, addend: 0x0, symName: __ZN4grpc8internal22CallOpServerSendStatus5AddOpEP7grpc_opPm, symObjAddr: 0x6BA8, symBinAddr: 0x21364, symSize: 0x140 }
  - { offsetInCU: 0x4C3ED, offset: 0x24EAB6, size: 0x8, addend: 0x0, symName: __ZN4grpc8internal9CallOpSetINS0_25CallOpSendInitialMetadataENS0_17CallOpSendMessageENS0_22CallOpServerSendStatusENS0_8CallNoOpILi4EEENS5_ILi5EEENS5_ILi6EEEE39ContinueFinalizeResultAfterInterceptionEv, symObjAddr: 0x6398, symBinAddr: 0x20B54, symSize: 0x9C }
  - { offsetInCU: 0x4C517, offset: 0x24EBE0, size: 0x8, addend: 0x0, symName: __ZNSt3__18functionIFN4grpc6StatusEPKvEEaSERKS6_, symObjAddr: 0x65CC, symBinAddr: 0x20D88, symSize: 0x98 }
  - { offsetInCU: 0x4C751, offset: 0x24EE1A, size: 0x8, addend: 0x0, symName: __ZNSt3__110__function12__value_funcIFN4grpc6StatusEPKvEEC2B7v160006ERKS7_, symObjAddr: 0x6664, symBinAddr: 0x20E20, symSize: 0x64 }
  - { offsetInCU: 0x4C7AB, offset: 0x24EE74, size: 0x8, addend: 0x0, symName: __ZNSt3__110__function12__value_funcIFN4grpc6StatusEPKvEE4swapB7v160006ERS7_, symObjAddr: 0x66C8, symBinAddr: 0x20E84, symSize: 0x16C }
  - { offsetInCU: 0x4C972, offset: 0x24F03B, size: 0x8, addend: 0x0, symName: __ZN4grpc8internal17CallOpSendMessage24SetInterceptionHookPointEPNS0_27InterceptorBatchMethodsImplE, symObjAddr: 0x6918, symBinAddr: 0x210D4, symSize: 0x10C }
  - { offsetInCU: 0x4CCC7, offset: 0x24F390, size: 0x8, addend: 0x0, symName: __ZN4grpc8internal22CallbackWithSuccessTag5ClearEv, symObjAddr: 0x6DA4, symBinAddr: 0x21560, symSize: 0x80 }
  - { offsetInCU: 0x4CE43, offset: 0x24F50C, size: 0x8, addend: 0x0, symName: __ZN4grpc8internal22CallbackWithSuccessTag9StaticRunEP29grpc_completion_queue_functori, symObjAddr: 0x7074, symBinAddr: 0x21830, symSize: 0xC }
  - { offsetInCU: 0x4CE8D, offset: 0x24F556, size: 0x8, addend: 0x0, symName: __ZN4grpc8internal22CallbackWithSuccessTag3RunEb, symObjAddr: 0x7110, symBinAddr: 0x2183C, symSize: 0xA4 }
  - { offsetInCU: 0x4CF95, offset: 0x24F65E, size: 0x8, addend: 0x0, symName: __ZNSt3__110__function6__funcIZN4grpc8internal20CallbackUnaryHandlerINS2_10ByteBufferES5_E23ServerCallbackUnaryImpl6FinishENS2_6StatusEEUlbE_NS_9allocatorIS9_EEFvbEED1Ev, symObjAddr: 0x7200, symBinAddr: 0x2192C, symSize: 0x4 }
  - { offsetInCU: 0x4CFC1, offset: 0x24F68A, size: 0x8, addend: 0x0, symName: __ZNSt3__110__function6__funcIZN4grpc8internal20CallbackUnaryHandlerINS2_10ByteBufferES5_E23ServerCallbackUnaryImpl6FinishENS2_6StatusEEUlbE_NS_9allocatorIS9_EEFvbEED0Ev, symObjAddr: 0x7204, symBinAddr: 0x21930, symSize: 0x4 }
  - { offsetInCU: 0x4D1D5, offset: 0x24F89E, size: 0x8, addend: 0x0, symName: __ZNKSt3__110__function6__funcIZN4grpc8internal20CallbackUnaryHandlerINS2_10ByteBufferES5_E23ServerCallbackUnaryImpl6FinishENS2_6StatusEEUlbE_NS_9allocatorIS9_EEFvbEE7__cloneEv, symObjAddr: 0x7208, symBinAddr: 0x21934, symSize: 0x34 }
  - { offsetInCU: 0x4D4E0, offset: 0x24FBA9, size: 0x8, addend: 0x0, symName: __ZNKSt3__110__function6__funcIZN4grpc8internal20CallbackUnaryHandlerINS2_10ByteBufferES5_E23ServerCallbackUnaryImpl6FinishENS2_6StatusEEUlbE_NS_9allocatorIS9_EEFvbEE7__cloneEPNS0_6__baseISC_EE, symObjAddr: 0x723C, symBinAddr: 0x21968, symSize: 0x14 }
  - { offsetInCU: 0x4D518, offset: 0x24FBE1, size: 0x8, addend: 0x0, symName: __ZNKSt3__110__function6__funcIZN4grpc8internal20CallbackUnaryHandlerINS2_10ByteBufferES5_E23ServerCallbackUnaryImpl6FinishENS2_6StatusEEUlbE_NS_9allocatorIS9_EEFvbEE7__cloneEPNS0_6__baseISC_EE, symObjAddr: 0x723C, symBinAddr: 0x21968, symSize: 0x14 }
  - { offsetInCU: 0x4D547, offset: 0x24FC10, size: 0x8, addend: 0x0, symName: __ZNKSt3__110__function6__funcIZN4grpc8internal20CallbackUnaryHandlerINS2_10ByteBufferES5_E23ServerCallbackUnaryImpl6FinishENS2_6StatusEEUlbE_NS_9allocatorIS9_EEFvbEE7__cloneEPNS0_6__baseISC_EE, symObjAddr: 0x723C, symBinAddr: 0x21968, symSize: 0x14 }
  - { offsetInCU: 0x4D576, offset: 0x24FC3F, size: 0x8, addend: 0x0, symName: __ZNKSt3__110__function6__funcIZN4grpc8internal20CallbackUnaryHandlerINS2_10ByteBufferES5_E23ServerCallbackUnaryImpl6FinishENS2_6StatusEEUlbE_NS_9allocatorIS9_EEFvbEE7__cloneEPNS0_6__baseISC_EE, symObjAddr: 0x723C, symBinAddr: 0x21968, symSize: 0x14 }
  - { offsetInCU: 0x4D58C, offset: 0x24FC55, size: 0x8, addend: 0x0, symName: __ZNKSt3__110__function6__funcIZN4grpc8internal20CallbackUnaryHandlerINS2_10ByteBufferES5_E23ServerCallbackUnaryImpl6FinishENS2_6StatusEEUlbE_NS_9allocatorIS9_EEFvbEE7__cloneEPNS0_6__baseISC_EE, symObjAddr: 0x723C, symBinAddr: 0x21968, symSize: 0x14 }
  - { offsetInCU: 0x4D5A0, offset: 0x24FC69, size: 0x8, addend: 0x0, symName: __ZNKSt3__110__function6__funcIZN4grpc8internal20CallbackUnaryHandlerINS2_10ByteBufferES5_E23ServerCallbackUnaryImpl6FinishENS2_6StatusEEUlbE_NS_9allocatorIS9_EEFvbEE7__cloneEPNS0_6__baseISC_EE, symObjAddr: 0x723C, symBinAddr: 0x21968, symSize: 0x14 }
  - { offsetInCU: 0x4D5B4, offset: 0x24FC7D, size: 0x8, addend: 0x0, symName: __ZNKSt3__110__function6__funcIZN4grpc8internal20CallbackUnaryHandlerINS2_10ByteBufferES5_E23ServerCallbackUnaryImpl6FinishENS2_6StatusEEUlbE_NS_9allocatorIS9_EEFvbEE7__cloneEPNS0_6__baseISC_EE, symObjAddr: 0x723C, symBinAddr: 0x21968, symSize: 0x14 }
  - { offsetInCU: 0x4D5C9, offset: 0x24FC92, size: 0x8, addend: 0x0, symName: __ZNKSt3__110__function6__funcIZN4grpc8internal20CallbackUnaryHandlerINS2_10ByteBufferES5_E23ServerCallbackUnaryImpl6FinishENS2_6StatusEEUlbE_NS_9allocatorIS9_EEFvbEE7__cloneEPNS0_6__baseISC_EE, symObjAddr: 0x723C, symBinAddr: 0x21968, symSize: 0x14 }
  - { offsetInCU: 0x4D5E1, offset: 0x24FCAA, size: 0x8, addend: 0x0, symName: __ZNSt3__110__function6__funcIZN4grpc8internal20CallbackUnaryHandlerINS2_10ByteBufferES5_E23ServerCallbackUnaryImpl6FinishENS2_6StatusEEUlbE_NS_9allocatorIS9_EEFvbEE7destroyEv, symObjAddr: 0x7250, symBinAddr: 0x2197C, symSize: 0x4 }
  - { offsetInCU: 0x4D636, offset: 0x24FCFF, size: 0x8, addend: 0x0, symName: __ZNSt3__110__function6__funcIZN4grpc8internal20CallbackUnaryHandlerINS2_10ByteBufferES5_E23ServerCallbackUnaryImpl6FinishENS2_6StatusEEUlbE_NS_9allocatorIS9_EEFvbEE18destroy_deallocateEv, symObjAddr: 0x7254, symBinAddr: 0x21980, symSize: 0x4 }
  - { offsetInCU: 0x4D66C, offset: 0x24FD35, size: 0x8, addend: 0x0, symName: __ZNSt3__110__function6__funcIZN4grpc8internal20CallbackUnaryHandlerINS2_10ByteBufferES5_E23ServerCallbackUnaryImpl6FinishENS2_6StatusEEUlbE_NS_9allocatorIS9_EEFvbEE18destroy_deallocateEv, symObjAddr: 0x7254, symBinAddr: 0x21980, symSize: 0x4 }
  - { offsetInCU: 0x4D690, offset: 0x24FD59, size: 0x8, addend: 0x0, symName: __ZNSt3__110__function6__funcIZN4grpc8internal20CallbackUnaryHandlerINS2_10ByteBufferES5_E23ServerCallbackUnaryImpl6FinishENS2_6StatusEEUlbE_NS_9allocatorIS9_EEFvbEE18destroy_deallocateEv, symObjAddr: 0x7254, symBinAddr: 0x21980, symSize: 0x4 }
  - { offsetInCU: 0x4D6BC, offset: 0x24FD85, size: 0x8, addend: 0x0, symName: __ZNSt3__110__function6__funcIZN4grpc8internal20CallbackUnaryHandlerINS2_10ByteBufferES5_E23ServerCallbackUnaryImpl6FinishENS2_6StatusEEUlbE_NS_9allocatorIS9_EEFvbEE18destroy_deallocateEv, symObjAddr: 0x7254, symBinAddr: 0x21980, symSize: 0x4 }
  - { offsetInCU: 0x4D6E3, offset: 0x24FDAC, size: 0x8, addend: 0x0, symName: __ZNSt3__110__function6__funcIZN4grpc8internal20CallbackUnaryHandlerINS2_10ByteBufferES5_E23ServerCallbackUnaryImpl6FinishENS2_6StatusEEUlbE_NS_9allocatorIS9_EEFvbEE18destroy_deallocateEv, symObjAddr: 0x7254, symBinAddr: 0x21980, symSize: 0x4 }
  - { offsetInCU: 0x4D789, offset: 0x24FE52, size: 0x8, addend: 0x0, symName: __ZNSt3__110__function6__funcIZN4grpc8internal20CallbackUnaryHandlerINS2_10ByteBufferES5_E23ServerCallbackUnaryImpl6FinishENS2_6StatusEEUlbE_NS_9allocatorIS9_EEFvbEEclEOb, symObjAddr: 0x7258, symBinAddr: 0x21984, symSize: 0x58 }
  - { offsetInCU: 0x4D909, offset: 0x24FFD2, size: 0x8, addend: 0x0, symName: __ZNKSt3__110__function6__funcIZN4grpc8internal20CallbackUnaryHandlerINS2_10ByteBufferES5_E23ServerCallbackUnaryImpl6FinishENS2_6StatusEEUlbE_NS_9allocatorIS9_EEFvbEE6targetERKSt9type_info, symObjAddr: 0x72B0, symBinAddr: 0x219DC, symSize: 0x3C }
  - { offsetInCU: 0x4D959, offset: 0x250022, size: 0x8, addend: 0x0, symName: __ZNKSt3__110__function6__funcIZN4grpc8internal20CallbackUnaryHandlerINS2_10ByteBufferES5_E23ServerCallbackUnaryImpl6FinishENS2_6StatusEEUlbE_NS_9allocatorIS9_EEFvbEE11target_typeEv, symObjAddr: 0x72EC, symBinAddr: 0x21A18, symSize: 0xC }
  - { offsetInCU: 0x4DB59, offset: 0x250222, size: 0x8, addend: 0x0, symName: __ZNSt3__110__function6__funcIZN4grpc8internal17CallOpSendMessage14SendMessagePtrINS2_10ByteBufferEEENS2_6StatusEPKT_NS2_12WriteOptionsEEUlPKvE_NS_9allocatorISE_EEFS7_SD_EED1Ev, symObjAddr: 0x73A0, symBinAddr: 0x21ACC, symSize: 0x4 }
  - { offsetInCU: 0x4DB85, offset: 0x25024E, size: 0x8, addend: 0x0, symName: __ZNSt3__110__function6__funcIZN4grpc8internal17CallOpSendMessage14SendMessagePtrINS2_10ByteBufferEEENS2_6StatusEPKT_NS2_12WriteOptionsEEUlPKvE_NS_9allocatorISE_EEFS7_SD_EED0Ev, symObjAddr: 0x73A4, symBinAddr: 0x21AD0, symSize: 0x4 }
  - { offsetInCU: 0x4DD99, offset: 0x250462, size: 0x8, addend: 0x0, symName: __ZNKSt3__110__function6__funcIZN4grpc8internal17CallOpSendMessage14SendMessagePtrINS2_10ByteBufferEEENS2_6StatusEPKT_NS2_12WriteOptionsEEUlPKvE_NS_9allocatorISE_EEFS7_SD_EE7__cloneEv, symObjAddr: 0x73A8, symBinAddr: 0x21AD4, symSize: 0x38 }
  - { offsetInCU: 0x4E0A4, offset: 0x25076D, size: 0x8, addend: 0x0, symName: __ZNKSt3__110__function6__funcIZN4grpc8internal17CallOpSendMessage14SendMessagePtrINS2_10ByteBufferEEENS2_6StatusEPKT_NS2_12WriteOptionsEEUlPKvE_NS_9allocatorISE_EEFS7_SD_EE7__cloneEPNS0_6__baseISH_EE, symObjAddr: 0x73E0, symBinAddr: 0x21B0C, symSize: 0x18 }
  - { offsetInCU: 0x4E0DC, offset: 0x2507A5, size: 0x8, addend: 0x0, symName: __ZNKSt3__110__function6__funcIZN4grpc8internal17CallOpSendMessage14SendMessagePtrINS2_10ByteBufferEEENS2_6StatusEPKT_NS2_12WriteOptionsEEUlPKvE_NS_9allocatorISE_EEFS7_SD_EE7__cloneEPNS0_6__baseISH_EE, symObjAddr: 0x73E0, symBinAddr: 0x21B0C, symSize: 0x18 }
  - { offsetInCU: 0x4E10B, offset: 0x2507D4, size: 0x8, addend: 0x0, symName: __ZNKSt3__110__function6__funcIZN4grpc8internal17CallOpSendMessage14SendMessagePtrINS2_10ByteBufferEEENS2_6StatusEPKT_NS2_12WriteOptionsEEUlPKvE_NS_9allocatorISE_EEFS7_SD_EE7__cloneEPNS0_6__baseISH_EE, symObjAddr: 0x73E0, symBinAddr: 0x21B0C, symSize: 0x18 }
  - { offsetInCU: 0x4E1A5, offset: 0x25086E, size: 0x8, addend: 0x0, symName: __ZNSt3__110__function6__funcIZN4grpc8internal17CallOpSendMessage14SendMessagePtrINS2_10ByteBufferEEENS2_6StatusEPKT_NS2_12WriteOptionsEEUlPKvE_NS_9allocatorISE_EEFS7_SD_EE7destroyEv, symObjAddr: 0x73F8, symBinAddr: 0x21B24, symSize: 0x4 }
  - { offsetInCU: 0x4E1FA, offset: 0x2508C3, size: 0x8, addend: 0x0, symName: __ZNSt3__110__function6__funcIZN4grpc8internal17CallOpSendMessage14SendMessagePtrINS2_10ByteBufferEEENS2_6StatusEPKT_NS2_12WriteOptionsEEUlPKvE_NS_9allocatorISE_EEFS7_SD_EE18destroy_deallocateEv, symObjAddr: 0x73FC, symBinAddr: 0x21B28, symSize: 0x4 }
  - { offsetInCU: 0x4E230, offset: 0x2508F9, size: 0x8, addend: 0x0, symName: __ZNSt3__110__function6__funcIZN4grpc8internal17CallOpSendMessage14SendMessagePtrINS2_10ByteBufferEEENS2_6StatusEPKT_NS2_12WriteOptionsEEUlPKvE_NS_9allocatorISE_EEFS7_SD_EE18destroy_deallocateEv, symObjAddr: 0x73FC, symBinAddr: 0x21B28, symSize: 0x4 }
  - { offsetInCU: 0x4E254, offset: 0x25091D, size: 0x8, addend: 0x0, symName: __ZNSt3__110__function6__funcIZN4grpc8internal17CallOpSendMessage14SendMessagePtrINS2_10ByteBufferEEENS2_6StatusEPKT_NS2_12WriteOptionsEEUlPKvE_NS_9allocatorISE_EEFS7_SD_EE18destroy_deallocateEv, symObjAddr: 0x73FC, symBinAddr: 0x21B28, symSize: 0x4 }
  - { offsetInCU: 0x4E280, offset: 0x250949, size: 0x8, addend: 0x0, symName: __ZNSt3__110__function6__funcIZN4grpc8internal17CallOpSendMessage14SendMessagePtrINS2_10ByteBufferEEENS2_6StatusEPKT_NS2_12WriteOptionsEEUlPKvE_NS_9allocatorISE_EEFS7_SD_EE18destroy_deallocateEv, symObjAddr: 0x73FC, symBinAddr: 0x21B28, symSize: 0x4 }
  - { offsetInCU: 0x4E2A7, offset: 0x250970, size: 0x8, addend: 0x0, symName: __ZNSt3__110__function6__funcIZN4grpc8internal17CallOpSendMessage14SendMessagePtrINS2_10ByteBufferEEENS2_6StatusEPKT_NS2_12WriteOptionsEEUlPKvE_NS_9allocatorISE_EEFS7_SD_EE18destroy_deallocateEv, symObjAddr: 0x73FC, symBinAddr: 0x21B28, symSize: 0x4 }
  - { offsetInCU: 0x4E2F4, offset: 0x2509BD, size: 0x8, addend: 0x0, symName: __ZNSt3__110__function6__funcIZN4grpc8internal17CallOpSendMessage14SendMessagePtrINS2_10ByteBufferEEENS2_6StatusEPKT_NS2_12WriteOptionsEEUlPKvE_NS_9allocatorISE_EEFS7_SD_EEclEOSD_, symObjAddr: 0x7400, symBinAddr: 0x21B2C, symSize: 0x8 }
  - { offsetInCU: 0x4E36F, offset: 0x250A38, size: 0x8, addend: 0x0, symName: __ZNSt3__128__invoke_void_return_wrapperIN4grpc6StatusELb0EE6__callIJRZNS1_8internal17CallOpSendMessage14SendMessagePtrINS1_10ByteBufferEEES2_PKT_NS1_12WriteOptionsEEUlPKvE_SE_EEES2_DpOT_, symObjAddr: 0x7450, symBinAddr: 0x21B7C, symSize: 0xB8 }
  - { offsetInCU: 0x4E6B3, offset: 0x250D7C, size: 0x8, addend: 0x0, symName: __ZNKSt3__110__function6__funcIZN4grpc8internal17CallOpSendMessage14SendMessagePtrINS2_10ByteBufferEEENS2_6StatusEPKT_NS2_12WriteOptionsEEUlPKvE_NS_9allocatorISE_EEFS7_SD_EE6targetERKSt9type_info, symObjAddr: 0x7408, symBinAddr: 0x21B34, symSize: 0x3C }
  - { offsetInCU: 0x4E703, offset: 0x250DCC, size: 0x8, addend: 0x0, symName: __ZNKSt3__110__function6__funcIZN4grpc8internal17CallOpSendMessage14SendMessagePtrINS2_10ByteBufferEEENS2_6StatusEPKT_NS2_12WriteOptionsEEUlPKvE_NS_9allocatorISE_EEFS7_SD_EE11target_typeEv, symObjAddr: 0x7444, symBinAddr: 0x21B70, symSize: 0xC }
  - { offsetInCU: 0x4E787, offset: 0x250E50, size: 0x8, addend: 0x0, symName: __ZN4grpc19SerializationTraitsINS_10ByteBufferEvE9SerializeERKS1_PS1_Pb, symObjAddr: 0x7508, symBinAddr: 0x21C34, symSize: 0xA0 }
  - { offsetInCU: 0x4E94C, offset: 0x251015, size: 0x8, addend: 0x0, symName: __ZNSt3__128__invoke_void_return_wrapperIN4grpc6StatusELb0EE6__callIJRZNS1_8internal17CallOpSendMessage14SendMessagePtrINS1_10ByteBufferEEES2_PKT_NS1_12WriteOptionsEEUlPKvE_SE_EEES2_DpOT_.cold.1, symObjAddr: 0x9758, symBinAddr: 0x4D4B4, symSize: 0x20 }
  - { offsetInCU: 0x4EAC6, offset: 0x25118F, size: 0x8, addend: 0x0, symName: __ZN4grpc10ByteBufferaSERKS0_, symObjAddr: 0x75A8, symBinAddr: 0x21CD4, symSize: 0x74 }
  - { offsetInCU: 0x4EB30, offset: 0x2511F9, size: 0x8, addend: 0x0, symName: __ZNSt3__110__function6__funcIZN4grpc8internal20CallbackUnaryHandlerINS2_10ByteBufferES5_E23ServerCallbackUnaryImpl19SendInitialMetadataEvEUlbE_NS_9allocatorIS8_EEFvbEED1Ev, symObjAddr: 0x761C, symBinAddr: 0x21D48, symSize: 0x4 }
  - { offsetInCU: 0x4EB5C, offset: 0x251225, size: 0x8, addend: 0x0, symName: __ZNSt3__110__function6__funcIZN4grpc8internal20CallbackUnaryHandlerINS2_10ByteBufferES5_E23ServerCallbackUnaryImpl19SendInitialMetadataEvEUlbE_NS_9allocatorIS8_EEFvbEED0Ev, symObjAddr: 0x7620, symBinAddr: 0x21D4C, symSize: 0x4 }
  - { offsetInCU: 0x4ED70, offset: 0x251439, size: 0x8, addend: 0x0, symName: __ZNKSt3__110__function6__funcIZN4grpc8internal20CallbackUnaryHandlerINS2_10ByteBufferES5_E23ServerCallbackUnaryImpl19SendInitialMetadataEvEUlbE_NS_9allocatorIS8_EEFvbEE7__cloneEv, symObjAddr: 0x7624, symBinAddr: 0x21D50, symSize: 0x34 }
  - { offsetInCU: 0x4F07B, offset: 0x251744, size: 0x8, addend: 0x0, symName: __ZNKSt3__110__function6__funcIZN4grpc8internal20CallbackUnaryHandlerINS2_10ByteBufferES5_E23ServerCallbackUnaryImpl19SendInitialMetadataEvEUlbE_NS_9allocatorIS8_EEFvbEE7__cloneEPNS0_6__baseISB_EE, symObjAddr: 0x7658, symBinAddr: 0x21D84, symSize: 0x14 }
  - { offsetInCU: 0x4F0B3, offset: 0x25177C, size: 0x8, addend: 0x0, symName: __ZNKSt3__110__function6__funcIZN4grpc8internal20CallbackUnaryHandlerINS2_10ByteBufferES5_E23ServerCallbackUnaryImpl19SendInitialMetadataEvEUlbE_NS_9allocatorIS8_EEFvbEE7__cloneEPNS0_6__baseISB_EE, symObjAddr: 0x7658, symBinAddr: 0x21D84, symSize: 0x14 }
  - { offsetInCU: 0x4F0E2, offset: 0x2517AB, size: 0x8, addend: 0x0, symName: __ZNKSt3__110__function6__funcIZN4grpc8internal20CallbackUnaryHandlerINS2_10ByteBufferES5_E23ServerCallbackUnaryImpl19SendInitialMetadataEvEUlbE_NS_9allocatorIS8_EEFvbEE7__cloneEPNS0_6__baseISB_EE, symObjAddr: 0x7658, symBinAddr: 0x21D84, symSize: 0x14 }
  - { offsetInCU: 0x4F111, offset: 0x2517DA, size: 0x8, addend: 0x0, symName: __ZNKSt3__110__function6__funcIZN4grpc8internal20CallbackUnaryHandlerINS2_10ByteBufferES5_E23ServerCallbackUnaryImpl19SendInitialMetadataEvEUlbE_NS_9allocatorIS8_EEFvbEE7__cloneEPNS0_6__baseISB_EE, symObjAddr: 0x7658, symBinAddr: 0x21D84, symSize: 0x14 }
  - { offsetInCU: 0x4F127, offset: 0x2517F0, size: 0x8, addend: 0x0, symName: __ZNKSt3__110__function6__funcIZN4grpc8internal20CallbackUnaryHandlerINS2_10ByteBufferES5_E23ServerCallbackUnaryImpl19SendInitialMetadataEvEUlbE_NS_9allocatorIS8_EEFvbEE7__cloneEPNS0_6__baseISB_EE, symObjAddr: 0x7658, symBinAddr: 0x21D84, symSize: 0x14 }
  - { offsetInCU: 0x4F13B, offset: 0x251804, size: 0x8, addend: 0x0, symName: __ZNKSt3__110__function6__funcIZN4grpc8internal20CallbackUnaryHandlerINS2_10ByteBufferES5_E23ServerCallbackUnaryImpl19SendInitialMetadataEvEUlbE_NS_9allocatorIS8_EEFvbEE7__cloneEPNS0_6__baseISB_EE, symObjAddr: 0x7658, symBinAddr: 0x21D84, symSize: 0x14 }
  - { offsetInCU: 0x4F14F, offset: 0x251818, size: 0x8, addend: 0x0, symName: __ZNKSt3__110__function6__funcIZN4grpc8internal20CallbackUnaryHandlerINS2_10ByteBufferES5_E23ServerCallbackUnaryImpl19SendInitialMetadataEvEUlbE_NS_9allocatorIS8_EEFvbEE7__cloneEPNS0_6__baseISB_EE, symObjAddr: 0x7658, symBinAddr: 0x21D84, symSize: 0x14 }
  - { offsetInCU: 0x4F164, offset: 0x25182D, size: 0x8, addend: 0x0, symName: __ZNKSt3__110__function6__funcIZN4grpc8internal20CallbackUnaryHandlerINS2_10ByteBufferES5_E23ServerCallbackUnaryImpl19SendInitialMetadataEvEUlbE_NS_9allocatorIS8_EEFvbEE7__cloneEPNS0_6__baseISB_EE, symObjAddr: 0x7658, symBinAddr: 0x21D84, symSize: 0x14 }
  - { offsetInCU: 0x4F17C, offset: 0x251845, size: 0x8, addend: 0x0, symName: __ZNSt3__110__function6__funcIZN4grpc8internal20CallbackUnaryHandlerINS2_10ByteBufferES5_E23ServerCallbackUnaryImpl19SendInitialMetadataEvEUlbE_NS_9allocatorIS8_EEFvbEE7destroyEv, symObjAddr: 0x766C, symBinAddr: 0x21D98, symSize: 0x4 }
  - { offsetInCU: 0x4F1D1, offset: 0x25189A, size: 0x8, addend: 0x0, symName: __ZNSt3__110__function6__funcIZN4grpc8internal20CallbackUnaryHandlerINS2_10ByteBufferES5_E23ServerCallbackUnaryImpl19SendInitialMetadataEvEUlbE_NS_9allocatorIS8_EEFvbEE18destroy_deallocateEv, symObjAddr: 0x7670, symBinAddr: 0x21D9C, symSize: 0x4 }
  - { offsetInCU: 0x4F207, offset: 0x2518D0, size: 0x8, addend: 0x0, symName: __ZNSt3__110__function6__funcIZN4grpc8internal20CallbackUnaryHandlerINS2_10ByteBufferES5_E23ServerCallbackUnaryImpl19SendInitialMetadataEvEUlbE_NS_9allocatorIS8_EEFvbEE18destroy_deallocateEv, symObjAddr: 0x7670, symBinAddr: 0x21D9C, symSize: 0x4 }
  - { offsetInCU: 0x4F22B, offset: 0x2518F4, size: 0x8, addend: 0x0, symName: __ZNSt3__110__function6__funcIZN4grpc8internal20CallbackUnaryHandlerINS2_10ByteBufferES5_E23ServerCallbackUnaryImpl19SendInitialMetadataEvEUlbE_NS_9allocatorIS8_EEFvbEE18destroy_deallocateEv, symObjAddr: 0x7670, symBinAddr: 0x21D9C, symSize: 0x4 }
  - { offsetInCU: 0x4F257, offset: 0x251920, size: 0x8, addend: 0x0, symName: __ZNSt3__110__function6__funcIZN4grpc8internal20CallbackUnaryHandlerINS2_10ByteBufferES5_E23ServerCallbackUnaryImpl19SendInitialMetadataEvEUlbE_NS_9allocatorIS8_EEFvbEE18destroy_deallocateEv, symObjAddr: 0x7670, symBinAddr: 0x21D9C, symSize: 0x4 }
  - { offsetInCU: 0x4F27E, offset: 0x251947, size: 0x8, addend: 0x0, symName: __ZNSt3__110__function6__funcIZN4grpc8internal20CallbackUnaryHandlerINS2_10ByteBufferES5_E23ServerCallbackUnaryImpl19SendInitialMetadataEvEUlbE_NS_9allocatorIS8_EEFvbEE18destroy_deallocateEv, symObjAddr: 0x7670, symBinAddr: 0x21D9C, symSize: 0x4 }
  - { offsetInCU: 0x4F2CB, offset: 0x251994, size: 0x8, addend: 0x0, symName: __ZNSt3__110__function6__funcIZN4grpc8internal20CallbackUnaryHandlerINS2_10ByteBufferES5_E23ServerCallbackUnaryImpl19SendInitialMetadataEvEUlbE_NS_9allocatorIS8_EEFvbEEclEOb, symObjAddr: 0x7674, symBinAddr: 0x21DA0, symSize: 0x8 }
  - { offsetInCU: 0x4F33E, offset: 0x251A07, size: 0x8, addend: 0x0, symName: __ZNSt3__128__invoke_void_return_wrapperIvLb1EE6__callIJRZN4grpc8internal20CallbackUnaryHandlerINS3_10ByteBufferES6_E23ServerCallbackUnaryImpl19SendInitialMetadataEvEUlbE_bEEEvDpOT_, symObjAddr: 0x76C4, symBinAddr: 0x21DF0, symSize: 0x5C }
  - { offsetInCU: 0x4F4B9, offset: 0x251B82, size: 0x8, addend: 0x0, symName: __ZNKSt3__110__function6__funcIZN4grpc8internal20CallbackUnaryHandlerINS2_10ByteBufferES5_E23ServerCallbackUnaryImpl19SendInitialMetadataEvEUlbE_NS_9allocatorIS8_EEFvbEE6targetERKSt9type_info, symObjAddr: 0x767C, symBinAddr: 0x21DA8, symSize: 0x3C }
  - { offsetInCU: 0x4F509, offset: 0x251BD2, size: 0x8, addend: 0x0, symName: __ZNKSt3__110__function6__funcIZN4grpc8internal20CallbackUnaryHandlerINS2_10ByteBufferES5_E23ServerCallbackUnaryImpl19SendInitialMetadataEvEUlbE_NS_9allocatorIS8_EEFvbEE11target_typeEv, symObjAddr: 0x76B8, symBinAddr: 0x21DE4, symSize: 0xC }
  - { offsetInCU: 0x4F568, offset: 0x251C31, size: 0x8, addend: 0x0, symName: __ZNSt3__110__function6__funcIZN4grpc8internal20CallbackUnaryHandlerINS2_10ByteBufferES5_E10RunHandlerERKNS3_13MethodHandler16HandlerParameterEEUlbE_NS_9allocatorISB_EEFvbEED1Ev, symObjAddr: 0x7720, symBinAddr: 0x21E4C, symSize: 0x4 }
  - { offsetInCU: 0x4F594, offset: 0x251C5D, size: 0x8, addend: 0x0, symName: __ZNSt3__110__function6__funcIZN4grpc8internal20CallbackUnaryHandlerINS2_10ByteBufferES5_E10RunHandlerERKNS3_13MethodHandler16HandlerParameterEEUlbE_NS_9allocatorISB_EEFvbEED0Ev, symObjAddr: 0x7724, symBinAddr: 0x21E50, symSize: 0x4 }
  - { offsetInCU: 0x4F7A8, offset: 0x251E71, size: 0x8, addend: 0x0, symName: __ZNKSt3__110__function6__funcIZN4grpc8internal20CallbackUnaryHandlerINS2_10ByteBufferES5_E10RunHandlerERKNS3_13MethodHandler16HandlerParameterEEUlbE_NS_9allocatorISB_EEFvbEE7__cloneEv, symObjAddr: 0x7728, symBinAddr: 0x21E54, symSize: 0x34 }
  - { offsetInCU: 0x4FAB3, offset: 0x25217C, size: 0x8, addend: 0x0, symName: __ZNKSt3__110__function6__funcIZN4grpc8internal20CallbackUnaryHandlerINS2_10ByteBufferES5_E10RunHandlerERKNS3_13MethodHandler16HandlerParameterEEUlbE_NS_9allocatorISB_EEFvbEE7__cloneEPNS0_6__baseISE_EE, symObjAddr: 0x775C, symBinAddr: 0x21E88, symSize: 0x14 }
  - { offsetInCU: 0x4FAEB, offset: 0x2521B4, size: 0x8, addend: 0x0, symName: __ZNKSt3__110__function6__funcIZN4grpc8internal20CallbackUnaryHandlerINS2_10ByteBufferES5_E10RunHandlerERKNS3_13MethodHandler16HandlerParameterEEUlbE_NS_9allocatorISB_EEFvbEE7__cloneEPNS0_6__baseISE_EE, symObjAddr: 0x775C, symBinAddr: 0x21E88, symSize: 0x14 }
  - { offsetInCU: 0x4FB1A, offset: 0x2521E3, size: 0x8, addend: 0x0, symName: __ZNKSt3__110__function6__funcIZN4grpc8internal20CallbackUnaryHandlerINS2_10ByteBufferES5_E10RunHandlerERKNS3_13MethodHandler16HandlerParameterEEUlbE_NS_9allocatorISB_EEFvbEE7__cloneEPNS0_6__baseISE_EE, symObjAddr: 0x775C, symBinAddr: 0x21E88, symSize: 0x14 }
  - { offsetInCU: 0x4FB49, offset: 0x252212, size: 0x8, addend: 0x0, symName: __ZNKSt3__110__function6__funcIZN4grpc8internal20CallbackUnaryHandlerINS2_10ByteBufferES5_E10RunHandlerERKNS3_13MethodHandler16HandlerParameterEEUlbE_NS_9allocatorISB_EEFvbEE7__cloneEPNS0_6__baseISE_EE, symObjAddr: 0x775C, symBinAddr: 0x21E88, symSize: 0x14 }
  - { offsetInCU: 0x4FB5F, offset: 0x252228, size: 0x8, addend: 0x0, symName: __ZNKSt3__110__function6__funcIZN4grpc8internal20CallbackUnaryHandlerINS2_10ByteBufferES5_E10RunHandlerERKNS3_13MethodHandler16HandlerParameterEEUlbE_NS_9allocatorISB_EEFvbEE7__cloneEPNS0_6__baseISE_EE, symObjAddr: 0x775C, symBinAddr: 0x21E88, symSize: 0x14 }
  - { offsetInCU: 0x4FB73, offset: 0x25223C, size: 0x8, addend: 0x0, symName: __ZNKSt3__110__function6__funcIZN4grpc8internal20CallbackUnaryHandlerINS2_10ByteBufferES5_E10RunHandlerERKNS3_13MethodHandler16HandlerParameterEEUlbE_NS_9allocatorISB_EEFvbEE7__cloneEPNS0_6__baseISE_EE, symObjAddr: 0x775C, symBinAddr: 0x21E88, symSize: 0x14 }
  - { offsetInCU: 0x4FB87, offset: 0x252250, size: 0x8, addend: 0x0, symName: __ZNKSt3__110__function6__funcIZN4grpc8internal20CallbackUnaryHandlerINS2_10ByteBufferES5_E10RunHandlerERKNS3_13MethodHandler16HandlerParameterEEUlbE_NS_9allocatorISB_EEFvbEE7__cloneEPNS0_6__baseISE_EE, symObjAddr: 0x775C, symBinAddr: 0x21E88, symSize: 0x14 }
  - { offsetInCU: 0x4FB9C, offset: 0x252265, size: 0x8, addend: 0x0, symName: __ZNKSt3__110__function6__funcIZN4grpc8internal20CallbackUnaryHandlerINS2_10ByteBufferES5_E10RunHandlerERKNS3_13MethodHandler16HandlerParameterEEUlbE_NS_9allocatorISB_EEFvbEE7__cloneEPNS0_6__baseISE_EE, symObjAddr: 0x775C, symBinAddr: 0x21E88, symSize: 0x14 }
  - { offsetInCU: 0x4FBB4, offset: 0x25227D, size: 0x8, addend: 0x0, symName: __ZNSt3__110__function6__funcIZN4grpc8internal20CallbackUnaryHandlerINS2_10ByteBufferES5_E10RunHandlerERKNS3_13MethodHandler16HandlerParameterEEUlbE_NS_9allocatorISB_EEFvbEE7destroyEv, symObjAddr: 0x7770, symBinAddr: 0x21E9C, symSize: 0x4 }
  - { offsetInCU: 0x4FC09, offset: 0x2522D2, size: 0x8, addend: 0x0, symName: __ZNSt3__110__function6__funcIZN4grpc8internal20CallbackUnaryHandlerINS2_10ByteBufferES5_E10RunHandlerERKNS3_13MethodHandler16HandlerParameterEEUlbE_NS_9allocatorISB_EEFvbEE18destroy_deallocateEv, symObjAddr: 0x7774, symBinAddr: 0x21EA0, symSize: 0x4 }
  - { offsetInCU: 0x4FC3F, offset: 0x252308, size: 0x8, addend: 0x0, symName: __ZNSt3__110__function6__funcIZN4grpc8internal20CallbackUnaryHandlerINS2_10ByteBufferES5_E10RunHandlerERKNS3_13MethodHandler16HandlerParameterEEUlbE_NS_9allocatorISB_EEFvbEE18destroy_deallocateEv, symObjAddr: 0x7774, symBinAddr: 0x21EA0, symSize: 0x4 }
  - { offsetInCU: 0x4FC63, offset: 0x25232C, size: 0x8, addend: 0x0, symName: __ZNSt3__110__function6__funcIZN4grpc8internal20CallbackUnaryHandlerINS2_10ByteBufferES5_E10RunHandlerERKNS3_13MethodHandler16HandlerParameterEEUlbE_NS_9allocatorISB_EEFvbEE18destroy_deallocateEv, symObjAddr: 0x7774, symBinAddr: 0x21EA0, symSize: 0x4 }
  - { offsetInCU: 0x4FC8F, offset: 0x252358, size: 0x8, addend: 0x0, symName: __ZNSt3__110__function6__funcIZN4grpc8internal20CallbackUnaryHandlerINS2_10ByteBufferES5_E10RunHandlerERKNS3_13MethodHandler16HandlerParameterEEUlbE_NS_9allocatorISB_EEFvbEE18destroy_deallocateEv, symObjAddr: 0x7774, symBinAddr: 0x21EA0, symSize: 0x4 }
  - { offsetInCU: 0x4FCB6, offset: 0x25237F, size: 0x8, addend: 0x0, symName: __ZNSt3__110__function6__funcIZN4grpc8internal20CallbackUnaryHandlerINS2_10ByteBufferES5_E10RunHandlerERKNS3_13MethodHandler16HandlerParameterEEUlbE_NS_9allocatorISB_EEFvbEE18destroy_deallocateEv, symObjAddr: 0x7774, symBinAddr: 0x21EA0, symSize: 0x4 }
  - { offsetInCU: 0x4FD5C, offset: 0x252425, size: 0x8, addend: 0x0, symName: __ZNSt3__110__function6__funcIZN4grpc8internal20CallbackUnaryHandlerINS2_10ByteBufferES5_E10RunHandlerERKNS3_13MethodHandler16HandlerParameterEEUlbE_NS_9allocatorISB_EEFvbEEclEOb, symObjAddr: 0x7778, symBinAddr: 0x21EA4, symSize: 0x8 }
  - { offsetInCU: 0x4FD95, offset: 0x25245E, size: 0x8, addend: 0x0, symName: __ZNSt3__110__function6__funcIZN4grpc8internal20CallbackUnaryHandlerINS2_10ByteBufferES5_E10RunHandlerERKNS3_13MethodHandler16HandlerParameterEEUlbE_NS_9allocatorISB_EEFvbEEclEOb, symObjAddr: 0x7778, symBinAddr: 0x21EA4, symSize: 0x8 }
  - { offsetInCU: 0x4FDB5, offset: 0x25247E, size: 0x8, addend: 0x0, symName: __ZNSt3__110__function6__funcIZN4grpc8internal20CallbackUnaryHandlerINS2_10ByteBufferES5_E10RunHandlerERKNS3_13MethodHandler16HandlerParameterEEUlbE_NS_9allocatorISB_EEFvbEEclEOb, symObjAddr: 0x7778, symBinAddr: 0x21EA4, symSize: 0x8 }
  - { offsetInCU: 0x4FDD3, offset: 0x25249C, size: 0x8, addend: 0x0, symName: __ZNSt3__110__function6__funcIZN4grpc8internal20CallbackUnaryHandlerINS2_10ByteBufferES5_E10RunHandlerERKNS3_13MethodHandler16HandlerParameterEEUlbE_NS_9allocatorISB_EEFvbEEclEOb, symObjAddr: 0x7778, symBinAddr: 0x21EA4, symSize: 0x8 }
  - { offsetInCU: 0x4FDF3, offset: 0x2524BC, size: 0x8, addend: 0x0, symName: __ZNSt3__110__function6__funcIZN4grpc8internal20CallbackUnaryHandlerINS2_10ByteBufferES5_E10RunHandlerERKNS3_13MethodHandler16HandlerParameterEEUlbE_NS_9allocatorISB_EEFvbEEclEOb, symObjAddr: 0x7778, symBinAddr: 0x21EA4, symSize: 0x8 }
  - { offsetInCU: 0x4FE23, offset: 0x2524EC, size: 0x8, addend: 0x0, symName: __ZN4grpc8internal18ServerCallbackCall9MaybeDoneEv, symObjAddr: 0x77C8, symBinAddr: 0x21EF4, symSize: 0x64 }
  - { offsetInCU: 0x4FEDB, offset: 0x2525A4, size: 0x8, addend: 0x0, symName: __ZNKSt3__110__function6__funcIZN4grpc8internal20CallbackUnaryHandlerINS2_10ByteBufferES5_E10RunHandlerERKNS3_13MethodHandler16HandlerParameterEEUlbE_NS_9allocatorISB_EEFvbEE6targetERKSt9type_info, symObjAddr: 0x7780, symBinAddr: 0x21EAC, symSize: 0x3C }
  - { offsetInCU: 0x4FF2B, offset: 0x2525F4, size: 0x8, addend: 0x0, symName: __ZNKSt3__110__function6__funcIZN4grpc8internal20CallbackUnaryHandlerINS2_10ByteBufferES5_E10RunHandlerERKNS3_13MethodHandler16HandlerParameterEEUlbE_NS_9allocatorISB_EEFvbEE11target_typeEv, symObjAddr: 0x77BC, symBinAddr: 0x21EE8, symSize: 0xC }
  - { offsetInCU: 0x4FFB2, offset: 0x25267B, size: 0x8, addend: 0x0, symName: __ZN4grpc8internal17FinishOnlyReactorINS_18ServerUnaryReactorEED1Ev, symObjAddr: 0x796C, symBinAddr: 0x22098, symSize: 0x4 }
  - { offsetInCU: 0x4FFD4, offset: 0x25269D, size: 0x8, addend: 0x0, symName: __ZN4grpc8internal17FinishOnlyReactorINS_18ServerUnaryReactorEED1Ev, symObjAddr: 0x796C, symBinAddr: 0x22098, symSize: 0x4 }
  - { offsetInCU: 0x4FFF3, offset: 0x2526BC, size: 0x8, addend: 0x0, symName: __ZN4grpc8internal17FinishOnlyReactorINS_18ServerUnaryReactorEED1Ev, symObjAddr: 0x796C, symBinAddr: 0x22098, symSize: 0x4 }
  - { offsetInCU: 0x50024, offset: 0x2526ED, size: 0x8, addend: 0x0, symName: __ZN4grpc8internal17FinishOnlyReactorINS_18ServerUnaryReactorEED0Ev, symObjAddr: 0x7970, symBinAddr: 0x2209C, symSize: 0x14 }
  - { offsetInCU: 0x500A3, offset: 0x25276C, size: 0x8, addend: 0x0, symName: __ZN4grpc8internal17FinishOnlyReactorINS_18ServerUnaryReactorEE6OnDoneEv, symObjAddr: 0x7984, symBinAddr: 0x220B0, symSize: 0xC }
  - { offsetInCU: 0x500F9, offset: 0x2527C2, size: 0x8, addend: 0x0, symName: __ZN4grpc8internal20DefaultMessageHolderINS_10ByteBufferES2_ED1Ev, symObjAddr: 0x7A30, symBinAddr: 0x2215C, symSize: 0x44 }
  - { offsetInCU: 0x501B0, offset: 0x252879, size: 0x8, addend: 0x0, symName: __ZN4grpc8internal20DefaultMessageHolderINS_10ByteBufferES2_ED0Ev, symObjAddr: 0x7A74, symBinAddr: 0x221A0, symSize: 0x44 }
  - { offsetInCU: 0x50270, offset: 0x252939, size: 0x8, addend: 0x0, symName: __ZN4grpc17RpcAllocatorState11FreeRequestEv, symObjAddr: 0x7AB8, symBinAddr: 0x221E4, symSize: 0x4 }
  - { offsetInCU: 0x50295, offset: 0x25295E, size: 0x8, addend: 0x0, symName: __ZN4grpc8internal20DefaultMessageHolderINS_10ByteBufferES2_E7ReleaseEv, symObjAddr: 0x7ABC, symBinAddr: 0x221E8, symSize: 0xC }
  - { offsetInCU: 0x502CF, offset: 0x252998, size: 0x8, addend: 0x0, symName: '__ZNSt3__110__function6__funcIZN4grpc25DefaultHealthCheckService22HealthCheckServiceImplC1EPS3_E3$_1NS_9allocatorIS6_EEFPNS2_18ServerWriteReactorINS2_10ByteBufferEEEPNS2_21CallbackServerContextEPKSA_EED1Ev', symObjAddr: 0x7AC8, symBinAddr: 0x221F4, symSize: 0x4 }
  - { offsetInCU: 0x502FB, offset: 0x2529C4, size: 0x8, addend: 0x0, symName: '__ZNSt3__110__function6__funcIZN4grpc25DefaultHealthCheckService22HealthCheckServiceImplC1EPS3_E3$_1NS_9allocatorIS6_EEFPNS2_18ServerWriteReactorINS2_10ByteBufferEEEPNS2_21CallbackServerContextEPKSA_EED0Ev', symObjAddr: 0x7ACC, symBinAddr: 0x221F8, symSize: 0x4 }
  - { offsetInCU: 0x5050F, offset: 0x252BD8, size: 0x8, addend: 0x0, symName: '__ZNKSt3__110__function6__funcIZN4grpc25DefaultHealthCheckService22HealthCheckServiceImplC1EPS3_E3$_1NS_9allocatorIS6_EEFPNS2_18ServerWriteReactorINS2_10ByteBufferEEEPNS2_21CallbackServerContextEPKSA_EE7__cloneEv', symObjAddr: 0x7AD0, symBinAddr: 0x221FC, symSize: 0x34 }
  - { offsetInCU: 0x5081A, offset: 0x252EE3, size: 0x8, addend: 0x0, symName: '__ZNKSt3__110__function6__funcIZN4grpc25DefaultHealthCheckService22HealthCheckServiceImplC1EPS3_E3$_1NS_9allocatorIS6_EEFPNS2_18ServerWriteReactorINS2_10ByteBufferEEEPNS2_21CallbackServerContextEPKSA_EE7__cloneEPNS0_6__baseISH_EE', symObjAddr: 0x7B04, symBinAddr: 0x22230, symSize: 0x14 }
  - { offsetInCU: 0x50852, offset: 0x252F1B, size: 0x8, addend: 0x0, symName: '__ZNKSt3__110__function6__funcIZN4grpc25DefaultHealthCheckService22HealthCheckServiceImplC1EPS3_E3$_1NS_9allocatorIS6_EEFPNS2_18ServerWriteReactorINS2_10ByteBufferEEEPNS2_21CallbackServerContextEPKSA_EE7__cloneEPNS0_6__baseISH_EE', symObjAddr: 0x7B04, symBinAddr: 0x22230, symSize: 0x14 }
  - { offsetInCU: 0x50881, offset: 0x252F4A, size: 0x8, addend: 0x0, symName: '__ZNKSt3__110__function6__funcIZN4grpc25DefaultHealthCheckService22HealthCheckServiceImplC1EPS3_E3$_1NS_9allocatorIS6_EEFPNS2_18ServerWriteReactorINS2_10ByteBufferEEEPNS2_21CallbackServerContextEPKSA_EE7__cloneEPNS0_6__baseISH_EE', symObjAddr: 0x7B04, symBinAddr: 0x22230, symSize: 0x14 }
  - { offsetInCU: 0x508B0, offset: 0x252F79, size: 0x8, addend: 0x0, symName: '__ZNKSt3__110__function6__funcIZN4grpc25DefaultHealthCheckService22HealthCheckServiceImplC1EPS3_E3$_1NS_9allocatorIS6_EEFPNS2_18ServerWriteReactorINS2_10ByteBufferEEEPNS2_21CallbackServerContextEPKSA_EE7__cloneEPNS0_6__baseISH_EE', symObjAddr: 0x7B04, symBinAddr: 0x22230, symSize: 0x14 }
  - { offsetInCU: 0x508C6, offset: 0x252F8F, size: 0x8, addend: 0x0, symName: '__ZNKSt3__110__function6__funcIZN4grpc25DefaultHealthCheckService22HealthCheckServiceImplC1EPS3_E3$_1NS_9allocatorIS6_EEFPNS2_18ServerWriteReactorINS2_10ByteBufferEEEPNS2_21CallbackServerContextEPKSA_EE7__cloneEPNS0_6__baseISH_EE', symObjAddr: 0x7B04, symBinAddr: 0x22230, symSize: 0x14 }
  - { offsetInCU: 0x508DA, offset: 0x252FA3, size: 0x8, addend: 0x0, symName: '__ZNKSt3__110__function6__funcIZN4grpc25DefaultHealthCheckService22HealthCheckServiceImplC1EPS3_E3$_1NS_9allocatorIS6_EEFPNS2_18ServerWriteReactorINS2_10ByteBufferEEEPNS2_21CallbackServerContextEPKSA_EE7__cloneEPNS0_6__baseISH_EE', symObjAddr: 0x7B04, symBinAddr: 0x22230, symSize: 0x14 }
  - { offsetInCU: 0x508EE, offset: 0x252FB7, size: 0x8, addend: 0x0, symName: '__ZNKSt3__110__function6__funcIZN4grpc25DefaultHealthCheckService22HealthCheckServiceImplC1EPS3_E3$_1NS_9allocatorIS6_EEFPNS2_18ServerWriteReactorINS2_10ByteBufferEEEPNS2_21CallbackServerContextEPKSA_EE7__cloneEPNS0_6__baseISH_EE', symObjAddr: 0x7B04, symBinAddr: 0x22230, symSize: 0x14 }
  - { offsetInCU: 0x50903, offset: 0x252FCC, size: 0x8, addend: 0x0, symName: '__ZNKSt3__110__function6__funcIZN4grpc25DefaultHealthCheckService22HealthCheckServiceImplC1EPS3_E3$_1NS_9allocatorIS6_EEFPNS2_18ServerWriteReactorINS2_10ByteBufferEEEPNS2_21CallbackServerContextEPKSA_EE7__cloneEPNS0_6__baseISH_EE', symObjAddr: 0x7B04, symBinAddr: 0x22230, symSize: 0x14 }
  - { offsetInCU: 0x5091B, offset: 0x252FE4, size: 0x8, addend: 0x0, symName: '__ZNSt3__110__function6__funcIZN4grpc25DefaultHealthCheckService22HealthCheckServiceImplC1EPS3_E3$_1NS_9allocatorIS6_EEFPNS2_18ServerWriteReactorINS2_10ByteBufferEEEPNS2_21CallbackServerContextEPKSA_EE7destroyEv', symObjAddr: 0x7B18, symBinAddr: 0x22244, symSize: 0x4 }
  - { offsetInCU: 0x5096E, offset: 0x253037, size: 0x8, addend: 0x0, symName: '__ZNSt3__110__function6__funcIZN4grpc25DefaultHealthCheckService22HealthCheckServiceImplC1EPS3_E3$_1NS_9allocatorIS6_EEFPNS2_18ServerWriteReactorINS2_10ByteBufferEEEPNS2_21CallbackServerContextEPKSA_EE18destroy_deallocateEv', symObjAddr: 0x7B1C, symBinAddr: 0x22248, symSize: 0x4 }
  - { offsetInCU: 0x509A4, offset: 0x25306D, size: 0x8, addend: 0x0, symName: '__ZNSt3__110__function6__funcIZN4grpc25DefaultHealthCheckService22HealthCheckServiceImplC1EPS3_E3$_1NS_9allocatorIS6_EEFPNS2_18ServerWriteReactorINS2_10ByteBufferEEEPNS2_21CallbackServerContextEPKSA_EE18destroy_deallocateEv', symObjAddr: 0x7B1C, symBinAddr: 0x22248, symSize: 0x4 }
  - { offsetInCU: 0x509C8, offset: 0x253091, size: 0x8, addend: 0x0, symName: '__ZNSt3__110__function6__funcIZN4grpc25DefaultHealthCheckService22HealthCheckServiceImplC1EPS3_E3$_1NS_9allocatorIS6_EEFPNS2_18ServerWriteReactorINS2_10ByteBufferEEEPNS2_21CallbackServerContextEPKSA_EE18destroy_deallocateEv', symObjAddr: 0x7B1C, symBinAddr: 0x22248, symSize: 0x4 }
  - { offsetInCU: 0x509F4, offset: 0x2530BD, size: 0x8, addend: 0x0, symName: '__ZNSt3__110__function6__funcIZN4grpc25DefaultHealthCheckService22HealthCheckServiceImplC1EPS3_E3$_1NS_9allocatorIS6_EEFPNS2_18ServerWriteReactorINS2_10ByteBufferEEEPNS2_21CallbackServerContextEPKSA_EE18destroy_deallocateEv', symObjAddr: 0x7B1C, symBinAddr: 0x22248, symSize: 0x4 }
  - { offsetInCU: 0x50A1B, offset: 0x2530E4, size: 0x8, addend: 0x0, symName: '__ZNSt3__110__function6__funcIZN4grpc25DefaultHealthCheckService22HealthCheckServiceImplC1EPS3_E3$_1NS_9allocatorIS6_EEFPNS2_18ServerWriteReactorINS2_10ByteBufferEEEPNS2_21CallbackServerContextEPKSA_EE18destroy_deallocateEv', symObjAddr: 0x7B1C, symBinAddr: 0x22248, symSize: 0x4 }
  - { offsetInCU: 0x50B1F, offset: 0x2531E8, size: 0x8, addend: 0x0, symName: '__ZNSt3__110__function6__funcIZN4grpc25DefaultHealthCheckService22HealthCheckServiceImplC1EPS3_E3$_1NS_9allocatorIS6_EEFPNS2_18ServerWriteReactorINS2_10ByteBufferEEEPNS2_21CallbackServerContextEPKSA_EEclEOSE_OSG_', symObjAddr: 0x7B20, symBinAddr: 0x2224C, symSize: 0x58 }
  - { offsetInCU: 0x50C37, offset: 0x253300, size: 0x8, addend: 0x0, symName: '__ZNKSt3__110__function6__funcIZN4grpc25DefaultHealthCheckService22HealthCheckServiceImplC1EPS3_E3$_1NS_9allocatorIS6_EEFPNS2_18ServerWriteReactorINS2_10ByteBufferEEEPNS2_21CallbackServerContextEPKSA_EE6targetERKSt9type_info', symObjAddr: 0x7B78, symBinAddr: 0x222A4, symSize: 0x3C }
  - { offsetInCU: 0x50C87, offset: 0x253350, size: 0x8, addend: 0x0, symName: '__ZNKSt3__110__function6__funcIZN4grpc25DefaultHealthCheckService22HealthCheckServiceImplC1EPS3_E3$_1NS_9allocatorIS6_EEFPNS2_18ServerWriteReactorINS2_10ByteBufferEEEPNS2_21CallbackServerContextEPKSA_EE11target_typeEv', symObjAddr: 0x7BB4, symBinAddr: 0x222E0, symSize: 0xC }
  - { offsetInCU: 0x50CC9, offset: 0x253392, size: 0x8, addend: 0x0, symName: __ZN4grpc8internal30CallbackServerStreamingHandlerINS_10ByteBufferES2_ED1Ev, symObjAddr: 0x7BC0, symBinAddr: 0x222EC, symSize: 0x60 }
  - { offsetInCU: 0x50DB7, offset: 0x253480, size: 0x8, addend: 0x0, symName: __ZN4grpc8internal30CallbackServerStreamingHandlerINS_10ByteBufferES2_ED0Ev, symObjAddr: 0x7C20, symBinAddr: 0x2234C, symSize: 0x60 }
  - { offsetInCU: 0x5111D, offset: 0x2537E6, size: 0x8, addend: 0x0, symName: __ZN4grpc8internal30CallbackServerStreamingHandlerINS_10ByteBufferES2_E24ServerCallbackWriterImplC2EPNS_21CallbackServerContextEPNS0_4CallEPKS2_NSt3__18functionIFvvEEE, symObjAddr: 0x8254, symBinAddr: 0x22980, symSize: 0x178 }
  - { offsetInCU: 0x51A01, offset: 0x2540CA, size: 0x8, addend: 0x0, symName: __ZN4grpc8internal17FinishOnlyReactorINS_18ServerWriteReactorINS_10ByteBufferEEEEC2ENS_6StatusE, symObjAddr: 0x9324, symBinAddr: 0x23A50, symSize: 0x108 }
  - { offsetInCU: 0x51FB1, offset: 0x25467A, size: 0x8, addend: 0x0, symName: __ZN4grpc8internal30CallbackServerStreamingHandlerINS_10ByteBufferES2_E11DeserializeEP9grpc_callP16grpc_byte_bufferPNS_6StatusEPPv, symObjAddr: 0x7F20, symBinAddr: 0x2264C, symSize: 0x148 }
  - { offsetInCU: 0x525EB, offset: 0x254CB4, size: 0x8, addend: 0x0, symName: __ZNKSt3__18functionIFPN4grpc18ServerWriteReactorINS1_10ByteBufferEEEPNS1_21CallbackServerContextEPKS3_EEclES7_S9_, symObjAddr: 0x92E8, symBinAddr: 0x23A14, symSize: 0x3C }
  - { offsetInCU: 0x5267F, offset: 0x254D48, size: 0x8, addend: 0x0, symName: __ZN4grpc8internal17FinishOnlyReactorINS_18ServerWriteReactorINS_10ByteBufferEEEEC2ENS_6StatusE, symObjAddr: 0x9324, symBinAddr: 0x23A50, symSize: 0x108 }
  - { offsetInCU: 0x52A76, offset: 0x25513F, size: 0x8, addend: 0x0, symName: __ZN4grpc8internal9CallOpSetINS0_25CallOpSendInitialMetadataENS0_17CallOpSendMessageENS0_8CallNoOpILi3EEENS4_ILi4EEENS4_ILi5EEENS4_ILi6EEEEC2Ev, symObjAddr: 0x8A14, symBinAddr: 0x23140, symSize: 0x8C }
  - { offsetInCU: 0x52AA1, offset: 0x25516A, size: 0x8, addend: 0x0, symName: __ZN4grpc8internal9CallOpSetINS0_25CallOpSendInitialMetadataENS0_17CallOpSendMessageENS0_8CallNoOpILi3EEENS4_ILi4EEENS4_ILi5EEENS4_ILi6EEEEC2Ev, symObjAddr: 0x8A14, symBinAddr: 0x23140, symSize: 0x8C }
  - { offsetInCU: 0x52D3F, offset: 0x255408, size: 0x8, addend: 0x0, symName: __ZN4grpc8internal9CallOpSetINS0_25CallOpSendInitialMetadataENS0_17CallOpSendMessageENS0_8CallNoOpILi3EEENS4_ILi4EEENS4_ILi5EEENS4_ILi6EEEED1Ev, symObjAddr: 0x83CC, symBinAddr: 0x22AF8, symSize: 0x6C }
  - { offsetInCU: 0x52E91, offset: 0x25555A, size: 0x8, addend: 0x0, symName: __ZN4grpc8internal30CallbackServerStreamingHandlerINS_10ByteBufferES2_E24ServerCallbackWriterImplD1Ev, symObjAddr: 0x8438, symBinAddr: 0x22B64, symSize: 0x4 }
  - { offsetInCU: 0x52EB4, offset: 0x25557D, size: 0x8, addend: 0x0, symName: __ZN4grpc8internal30CallbackServerStreamingHandlerINS_10ByteBufferES2_E24ServerCallbackWriterImplD1Ev, symObjAddr: 0x8438, symBinAddr: 0x22B64, symSize: 0x4 }
  - { offsetInCU: 0x52EC8, offset: 0x255591, size: 0x8, addend: 0x0, symName: __ZN4grpc8internal30CallbackServerStreamingHandlerINS_10ByteBufferES2_E24ServerCallbackWriterImplD2Ev, symObjAddr: 0x8EF8, symBinAddr: 0x23624, symSize: 0x15C }
  - { offsetInCU: 0x535FB, offset: 0x255CC4, size: 0x8, addend: 0x0, symName: __ZN4grpc8internal30CallbackServerStreamingHandlerINS_10ByteBufferES2_E24ServerCallbackWriterImplD0Ev, symObjAddr: 0x843C, symBinAddr: 0x22B68, symSize: 0x14 }
  - { offsetInCU: 0x5368A, offset: 0x255D53, size: 0x8, addend: 0x0, symName: __ZN4grpc8internal30CallbackServerStreamingHandlerINS_10ByteBufferES2_E24ServerCallbackWriterImpl7reactorEv, symObjAddr: 0x8450, symBinAddr: 0x22B7C, symSize: 0x8 }
  - { offsetInCU: 0x536B2, offset: 0x255D7B, size: 0x8, addend: 0x0, symName: __ZN4grpc8internal30CallbackServerStreamingHandlerINS_10ByteBufferES2_E24ServerCallbackWriterImpl7reactorEv, symObjAddr: 0x8450, symBinAddr: 0x22B7C, symSize: 0x8 }
  - { offsetInCU: 0x536D9, offset: 0x255DA2, size: 0x8, addend: 0x0, symName: __ZN4grpc8internal30CallbackServerStreamingHandlerINS_10ByteBufferES2_E24ServerCallbackWriterImpl7reactorEv, symObjAddr: 0x8450, symBinAddr: 0x22B7C, symSize: 0x8 }
  - { offsetInCU: 0x53700, offset: 0x255DC9, size: 0x8, addend: 0x0, symName: __ZN4grpc8internal30CallbackServerStreamingHandlerINS_10ByteBufferES2_E24ServerCallbackWriterImpl10CallOnDoneEv, symObjAddr: 0x8458, symBinAddr: 0x22B84, symSize: 0x13C }
  - { offsetInCU: 0x53DD3, offset: 0x25649C, size: 0x8, addend: 0x0, symName: __ZN4grpc8internal30CallbackServerStreamingHandlerINS_10ByteBufferES2_E24ServerCallbackWriterImpl5WriteEPKS2_NS_12WriteOptionsE, symObjAddr: 0x888C, symBinAddr: 0x22FB8, symSize: 0xC0 }
  - { offsetInCU: 0x53FAD, offset: 0x256676, size: 0x8, addend: 0x0, symName: __ZN4grpc8internal30CallbackServerStreamingHandlerINS_10ByteBufferES2_E24ServerCallbackWriterImpl14WriteAndFinishEPKS2_NS_12WriteOptionsENS_6StatusE, symObjAddr: 0x894C, symBinAddr: 0x23078, symSize: 0xC8 }
  - { offsetInCU: 0x54409, offset: 0x256AD2, size: 0x8, addend: 0x0, symName: __ZN4grpc8internal9CallOpSetINS0_25CallOpSendInitialMetadataENS0_17CallOpSendMessageENS0_8CallNoOpILi3EEENS4_ILi4EEENS4_ILi5EEENS4_ILi6EEEED0Ev, symObjAddr: 0x8AA0, symBinAddr: 0x231CC, symSize: 0x6C }
  - { offsetInCU: 0x54599, offset: 0x256C62, size: 0x8, addend: 0x0, symName: __ZN4grpc8internal9CallOpSetINS0_25CallOpSendInitialMetadataENS0_17CallOpSendMessageENS0_8CallNoOpILi3EEENS4_ILi4EEENS4_ILi5EEENS4_ILi6EEEE14FinalizeResultEPPvPb, symObjAddr: 0x8B0C, symBinAddr: 0x23238, symSize: 0x114 }
  - { offsetInCU: 0x5472F, offset: 0x256DF8, size: 0x8, addend: 0x0, symName: __ZN4grpc8internal9CallOpSetINS0_25CallOpSendInitialMetadataENS0_17CallOpSendMessageENS0_8CallNoOpILi3EEENS4_ILi4EEENS4_ILi5EEENS4_ILi6EEEE7FillOpsEPNS0_4CallE, symObjAddr: 0x8C20, symBinAddr: 0x2334C, symSize: 0x74 }
  - { offsetInCU: 0x547BA, offset: 0x256E83, size: 0x8, addend: 0x0, symName: __ZN4grpc8internal9CallOpSetINS0_25CallOpSendInitialMetadataENS0_17CallOpSendMessageENS0_8CallNoOpILi3EEENS4_ILi4EEENS4_ILi5EEENS4_ILi6EEEE15RunInterceptorsEv, symObjAddr: 0x8E3C, symBinAddr: 0x23568, symSize: 0xBC }
  - { offsetInCU: 0x549C0, offset: 0x257089, size: 0x8, addend: 0x0, symName: __ZN4grpc8internal9CallOpSetINS0_25CallOpSendInitialMetadataENS0_17CallOpSendMessageENS0_8CallNoOpILi3EEENS4_ILi4EEENS4_ILi5EEENS4_ILi6EEEE11core_cq_tagEv, symObjAddr: 0x8C94, symBinAddr: 0x233C0, symSize: 0x8 }
  - { offsetInCU: 0x549E6, offset: 0x2570AF, size: 0x8, addend: 0x0, symName: __ZN4grpc8internal9CallOpSetINS0_25CallOpSendInitialMetadataENS0_17CallOpSendMessageENS0_8CallNoOpILi3EEENS4_ILi4EEENS4_ILi5EEENS4_ILi6EEEE17SetHijackingStateEv, symObjAddr: 0x8C9C, symBinAddr: 0x233C8, symSize: 0x10 }
  - { offsetInCU: 0x54A5F, offset: 0x257128, size: 0x8, addend: 0x0, symName: __ZN4grpc8internal9CallOpSetINS0_25CallOpSendInitialMetadataENS0_17CallOpSendMessageENS0_8CallNoOpILi3EEENS4_ILi4EEENS4_ILi5EEENS4_ILi6EEEE39ContinueFinalizeResultAfterInterceptionEv, symObjAddr: 0x8DA0, symBinAddr: 0x234CC, symSize: 0x9C }
  - { offsetInCU: 0x54AFD, offset: 0x2571C6, size: 0x8, addend: 0x0, symName: __ZNSt3__110__function6__funcIZN4grpc8internal30CallbackServerStreamingHandlerINS2_10ByteBufferES5_E24ServerCallbackWriterImpl6FinishENS2_6StatusEEUlbE_NS_9allocatorIS9_EEFvbEED1Ev, symObjAddr: 0x9054, symBinAddr: 0x23780, symSize: 0x4 }
  - { offsetInCU: 0x54B29, offset: 0x2571F2, size: 0x8, addend: 0x0, symName: __ZNSt3__110__function6__funcIZN4grpc8internal30CallbackServerStreamingHandlerINS2_10ByteBufferES5_E24ServerCallbackWriterImpl6FinishENS2_6StatusEEUlbE_NS_9allocatorIS9_EEFvbEED0Ev, symObjAddr: 0x9058, symBinAddr: 0x23784, symSize: 0x4 }
  - { offsetInCU: 0x54D3D, offset: 0x257406, size: 0x8, addend: 0x0, symName: __ZNKSt3__110__function6__funcIZN4grpc8internal30CallbackServerStreamingHandlerINS2_10ByteBufferES5_E24ServerCallbackWriterImpl6FinishENS2_6StatusEEUlbE_NS_9allocatorIS9_EEFvbEE7__cloneEv, symObjAddr: 0x905C, symBinAddr: 0x23788, symSize: 0x34 }
  - { offsetInCU: 0x55048, offset: 0x257711, size: 0x8, addend: 0x0, symName: __ZNKSt3__110__function6__funcIZN4grpc8internal30CallbackServerStreamingHandlerINS2_10ByteBufferES5_E24ServerCallbackWriterImpl6FinishENS2_6StatusEEUlbE_NS_9allocatorIS9_EEFvbEE7__cloneEPNS0_6__baseISC_EE, symObjAddr: 0x9090, symBinAddr: 0x237BC, symSize: 0x14 }
  - { offsetInCU: 0x55080, offset: 0x257749, size: 0x8, addend: 0x0, symName: __ZNKSt3__110__function6__funcIZN4grpc8internal30CallbackServerStreamingHandlerINS2_10ByteBufferES5_E24ServerCallbackWriterImpl6FinishENS2_6StatusEEUlbE_NS_9allocatorIS9_EEFvbEE7__cloneEPNS0_6__baseISC_EE, symObjAddr: 0x9090, symBinAddr: 0x237BC, symSize: 0x14 }
  - { offsetInCU: 0x550AF, offset: 0x257778, size: 0x8, addend: 0x0, symName: __ZNKSt3__110__function6__funcIZN4grpc8internal30CallbackServerStreamingHandlerINS2_10ByteBufferES5_E24ServerCallbackWriterImpl6FinishENS2_6StatusEEUlbE_NS_9allocatorIS9_EEFvbEE7__cloneEPNS0_6__baseISC_EE, symObjAddr: 0x9090, symBinAddr: 0x237BC, symSize: 0x14 }
  - { offsetInCU: 0x550DE, offset: 0x2577A7, size: 0x8, addend: 0x0, symName: __ZNKSt3__110__function6__funcIZN4grpc8internal30CallbackServerStreamingHandlerINS2_10ByteBufferES5_E24ServerCallbackWriterImpl6FinishENS2_6StatusEEUlbE_NS_9allocatorIS9_EEFvbEE7__cloneEPNS0_6__baseISC_EE, symObjAddr: 0x9090, symBinAddr: 0x237BC, symSize: 0x14 }
  - { offsetInCU: 0x550F4, offset: 0x2577BD, size: 0x8, addend: 0x0, symName: __ZNKSt3__110__function6__funcIZN4grpc8internal30CallbackServerStreamingHandlerINS2_10ByteBufferES5_E24ServerCallbackWriterImpl6FinishENS2_6StatusEEUlbE_NS_9allocatorIS9_EEFvbEE7__cloneEPNS0_6__baseISC_EE, symObjAddr: 0x9090, symBinAddr: 0x237BC, symSize: 0x14 }
  - { offsetInCU: 0x55108, offset: 0x2577D1, size: 0x8, addend: 0x0, symName: __ZNKSt3__110__function6__funcIZN4grpc8internal30CallbackServerStreamingHandlerINS2_10ByteBufferES5_E24ServerCallbackWriterImpl6FinishENS2_6StatusEEUlbE_NS_9allocatorIS9_EEFvbEE7__cloneEPNS0_6__baseISC_EE, symObjAddr: 0x9090, symBinAddr: 0x237BC, symSize: 0x14 }
  - { offsetInCU: 0x5511C, offset: 0x2577E5, size: 0x8, addend: 0x0, symName: __ZNKSt3__110__function6__funcIZN4grpc8internal30CallbackServerStreamingHandlerINS2_10ByteBufferES5_E24ServerCallbackWriterImpl6FinishENS2_6StatusEEUlbE_NS_9allocatorIS9_EEFvbEE7__cloneEPNS0_6__baseISC_EE, symObjAddr: 0x9090, symBinAddr: 0x237BC, symSize: 0x14 }
  - { offsetInCU: 0x55131, offset: 0x2577FA, size: 0x8, addend: 0x0, symName: __ZNKSt3__110__function6__funcIZN4grpc8internal30CallbackServerStreamingHandlerINS2_10ByteBufferES5_E24ServerCallbackWriterImpl6FinishENS2_6StatusEEUlbE_NS_9allocatorIS9_EEFvbEE7__cloneEPNS0_6__baseISC_EE, symObjAddr: 0x9090, symBinAddr: 0x237BC, symSize: 0x14 }
  - { offsetInCU: 0x55149, offset: 0x257812, size: 0x8, addend: 0x0, symName: __ZNSt3__110__function6__funcIZN4grpc8internal30CallbackServerStreamingHandlerINS2_10ByteBufferES5_E24ServerCallbackWriterImpl6FinishENS2_6StatusEEUlbE_NS_9allocatorIS9_EEFvbEE7destroyEv, symObjAddr: 0x90A4, symBinAddr: 0x237D0, symSize: 0x4 }
  - { offsetInCU: 0x5519E, offset: 0x257867, size: 0x8, addend: 0x0, symName: __ZNSt3__110__function6__funcIZN4grpc8internal30CallbackServerStreamingHandlerINS2_10ByteBufferES5_E24ServerCallbackWriterImpl6FinishENS2_6StatusEEUlbE_NS_9allocatorIS9_EEFvbEE18destroy_deallocateEv, symObjAddr: 0x90A8, symBinAddr: 0x237D4, symSize: 0x4 }
  - { offsetInCU: 0x551D4, offset: 0x25789D, size: 0x8, addend: 0x0, symName: __ZNSt3__110__function6__funcIZN4grpc8internal30CallbackServerStreamingHandlerINS2_10ByteBufferES5_E24ServerCallbackWriterImpl6FinishENS2_6StatusEEUlbE_NS_9allocatorIS9_EEFvbEE18destroy_deallocateEv, symObjAddr: 0x90A8, symBinAddr: 0x237D4, symSize: 0x4 }
  - { offsetInCU: 0x551F8, offset: 0x2578C1, size: 0x8, addend: 0x0, symName: __ZNSt3__110__function6__funcIZN4grpc8internal30CallbackServerStreamingHandlerINS2_10ByteBufferES5_E24ServerCallbackWriterImpl6FinishENS2_6StatusEEUlbE_NS_9allocatorIS9_EEFvbEE18destroy_deallocateEv, symObjAddr: 0x90A8, symBinAddr: 0x237D4, symSize: 0x4 }
  - { offsetInCU: 0x55224, offset: 0x2578ED, size: 0x8, addend: 0x0, symName: __ZNSt3__110__function6__funcIZN4grpc8internal30CallbackServerStreamingHandlerINS2_10ByteBufferES5_E24ServerCallbackWriterImpl6FinishENS2_6StatusEEUlbE_NS_9allocatorIS9_EEFvbEE18destroy_deallocateEv, symObjAddr: 0x90A8, symBinAddr: 0x237D4, symSize: 0x4 }
  - { offsetInCU: 0x5524B, offset: 0x257914, size: 0x8, addend: 0x0, symName: __ZNSt3__110__function6__funcIZN4grpc8internal30CallbackServerStreamingHandlerINS2_10ByteBufferES5_E24ServerCallbackWriterImpl6FinishENS2_6StatusEEUlbE_NS_9allocatorIS9_EEFvbEE18destroy_deallocateEv, symObjAddr: 0x90A8, symBinAddr: 0x237D4, symSize: 0x4 }
  - { offsetInCU: 0x552F2, offset: 0x2579BB, size: 0x8, addend: 0x0, symName: __ZNSt3__110__function6__funcIZN4grpc8internal30CallbackServerStreamingHandlerINS2_10ByteBufferES5_E24ServerCallbackWriterImpl6FinishENS2_6StatusEEUlbE_NS_9allocatorIS9_EEFvbEEclEOb, symObjAddr: 0x90AC, symBinAddr: 0x237D8, symSize: 0x28 }
  - { offsetInCU: 0x553FB, offset: 0x257AC4, size: 0x8, addend: 0x0, symName: __ZNKSt3__110__function6__funcIZN4grpc8internal30CallbackServerStreamingHandlerINS2_10ByteBufferES5_E24ServerCallbackWriterImpl6FinishENS2_6StatusEEUlbE_NS_9allocatorIS9_EEFvbEE6targetERKSt9type_info, symObjAddr: 0x90D4, symBinAddr: 0x23800, symSize: 0x3C }
  - { offsetInCU: 0x5544B, offset: 0x257B14, size: 0x8, addend: 0x0, symName: __ZNKSt3__110__function6__funcIZN4grpc8internal30CallbackServerStreamingHandlerINS2_10ByteBufferES5_E24ServerCallbackWriterImpl6FinishENS2_6StatusEEUlbE_NS_9allocatorIS9_EEFvbEE11target_typeEv, symObjAddr: 0x9110, symBinAddr: 0x2383C, symSize: 0xC }
  - { offsetInCU: 0x55473, offset: 0x257B3C, size: 0x8, addend: 0x0, symName: __ZNSt3__110__function6__funcIZN4grpc8internal30CallbackServerStreamingHandlerINS2_10ByteBufferES5_E24ServerCallbackWriterImpl19SendInitialMetadataEvEUlbE_NS_9allocatorIS8_EEFvbEED1Ev, symObjAddr: 0x911C, symBinAddr: 0x23848, symSize: 0x4 }
  - { offsetInCU: 0x5549F, offset: 0x257B68, size: 0x8, addend: 0x0, symName: __ZNSt3__110__function6__funcIZN4grpc8internal30CallbackServerStreamingHandlerINS2_10ByteBufferES5_E24ServerCallbackWriterImpl19SendInitialMetadataEvEUlbE_NS_9allocatorIS8_EEFvbEED0Ev, symObjAddr: 0x9120, symBinAddr: 0x2384C, symSize: 0x4 }
  - { offsetInCU: 0x556B3, offset: 0x257D7C, size: 0x8, addend: 0x0, symName: __ZNKSt3__110__function6__funcIZN4grpc8internal30CallbackServerStreamingHandlerINS2_10ByteBufferES5_E24ServerCallbackWriterImpl19SendInitialMetadataEvEUlbE_NS_9allocatorIS8_EEFvbEE7__cloneEv, symObjAddr: 0x9124, symBinAddr: 0x23850, symSize: 0x34 }
  - { offsetInCU: 0x559BE, offset: 0x258087, size: 0x8, addend: 0x0, symName: __ZNKSt3__110__function6__funcIZN4grpc8internal30CallbackServerStreamingHandlerINS2_10ByteBufferES5_E24ServerCallbackWriterImpl19SendInitialMetadataEvEUlbE_NS_9allocatorIS8_EEFvbEE7__cloneEPNS0_6__baseISB_EE, symObjAddr: 0x9158, symBinAddr: 0x23884, symSize: 0x14 }
  - { offsetInCU: 0x559F6, offset: 0x2580BF, size: 0x8, addend: 0x0, symName: __ZNKSt3__110__function6__funcIZN4grpc8internal30CallbackServerStreamingHandlerINS2_10ByteBufferES5_E24ServerCallbackWriterImpl19SendInitialMetadataEvEUlbE_NS_9allocatorIS8_EEFvbEE7__cloneEPNS0_6__baseISB_EE, symObjAddr: 0x9158, symBinAddr: 0x23884, symSize: 0x14 }
  - { offsetInCU: 0x55A25, offset: 0x2580EE, size: 0x8, addend: 0x0, symName: __ZNKSt3__110__function6__funcIZN4grpc8internal30CallbackServerStreamingHandlerINS2_10ByteBufferES5_E24ServerCallbackWriterImpl19SendInitialMetadataEvEUlbE_NS_9allocatorIS8_EEFvbEE7__cloneEPNS0_6__baseISB_EE, symObjAddr: 0x9158, symBinAddr: 0x23884, symSize: 0x14 }
  - { offsetInCU: 0x55A54, offset: 0x25811D, size: 0x8, addend: 0x0, symName: __ZNKSt3__110__function6__funcIZN4grpc8internal30CallbackServerStreamingHandlerINS2_10ByteBufferES5_E24ServerCallbackWriterImpl19SendInitialMetadataEvEUlbE_NS_9allocatorIS8_EEFvbEE7__cloneEPNS0_6__baseISB_EE, symObjAddr: 0x9158, symBinAddr: 0x23884, symSize: 0x14 }
  - { offsetInCU: 0x55A6A, offset: 0x258133, size: 0x8, addend: 0x0, symName: __ZNKSt3__110__function6__funcIZN4grpc8internal30CallbackServerStreamingHandlerINS2_10ByteBufferES5_E24ServerCallbackWriterImpl19SendInitialMetadataEvEUlbE_NS_9allocatorIS8_EEFvbEE7__cloneEPNS0_6__baseISB_EE, symObjAddr: 0x9158, symBinAddr: 0x23884, symSize: 0x14 }
  - { offsetInCU: 0x55A7E, offset: 0x258147, size: 0x8, addend: 0x0, symName: __ZNKSt3__110__function6__funcIZN4grpc8internal30CallbackServerStreamingHandlerINS2_10ByteBufferES5_E24ServerCallbackWriterImpl19SendInitialMetadataEvEUlbE_NS_9allocatorIS8_EEFvbEE7__cloneEPNS0_6__baseISB_EE, symObjAddr: 0x9158, symBinAddr: 0x23884, symSize: 0x14 }
  - { offsetInCU: 0x55A92, offset: 0x25815B, size: 0x8, addend: 0x0, symName: __ZNKSt3__110__function6__funcIZN4grpc8internal30CallbackServerStreamingHandlerINS2_10ByteBufferES5_E24ServerCallbackWriterImpl19SendInitialMetadataEvEUlbE_NS_9allocatorIS8_EEFvbEE7__cloneEPNS0_6__baseISB_EE, symObjAddr: 0x9158, symBinAddr: 0x23884, symSize: 0x14 }
  - { offsetInCU: 0x55AA7, offset: 0x258170, size: 0x8, addend: 0x0, symName: __ZNKSt3__110__function6__funcIZN4grpc8internal30CallbackServerStreamingHandlerINS2_10ByteBufferES5_E24ServerCallbackWriterImpl19SendInitialMetadataEvEUlbE_NS_9allocatorIS8_EEFvbEE7__cloneEPNS0_6__baseISB_EE, symObjAddr: 0x9158, symBinAddr: 0x23884, symSize: 0x14 }
  - { offsetInCU: 0x55ABF, offset: 0x258188, size: 0x8, addend: 0x0, symName: __ZNSt3__110__function6__funcIZN4grpc8internal30CallbackServerStreamingHandlerINS2_10ByteBufferES5_E24ServerCallbackWriterImpl19SendInitialMetadataEvEUlbE_NS_9allocatorIS8_EEFvbEE7destroyEv, symObjAddr: 0x916C, symBinAddr: 0x23898, symSize: 0x4 }
  - { offsetInCU: 0x55B14, offset: 0x2581DD, size: 0x8, addend: 0x0, symName: __ZNSt3__110__function6__funcIZN4grpc8internal30CallbackServerStreamingHandlerINS2_10ByteBufferES5_E24ServerCallbackWriterImpl19SendInitialMetadataEvEUlbE_NS_9allocatorIS8_EEFvbEE18destroy_deallocateEv, symObjAddr: 0x9170, symBinAddr: 0x2389C, symSize: 0x4 }
  - { offsetInCU: 0x55B4A, offset: 0x258213, size: 0x8, addend: 0x0, symName: __ZNSt3__110__function6__funcIZN4grpc8internal30CallbackServerStreamingHandlerINS2_10ByteBufferES5_E24ServerCallbackWriterImpl19SendInitialMetadataEvEUlbE_NS_9allocatorIS8_EEFvbEE18destroy_deallocateEv, symObjAddr: 0x9170, symBinAddr: 0x2389C, symSize: 0x4 }
  - { offsetInCU: 0x55B6E, offset: 0x258237, size: 0x8, addend: 0x0, symName: __ZNSt3__110__function6__funcIZN4grpc8internal30CallbackServerStreamingHandlerINS2_10ByteBufferES5_E24ServerCallbackWriterImpl19SendInitialMetadataEvEUlbE_NS_9allocatorIS8_EEFvbEE18destroy_deallocateEv, symObjAddr: 0x9170, symBinAddr: 0x2389C, symSize: 0x4 }
  - { offsetInCU: 0x55B9A, offset: 0x258263, size: 0x8, addend: 0x0, symName: __ZNSt3__110__function6__funcIZN4grpc8internal30CallbackServerStreamingHandlerINS2_10ByteBufferES5_E24ServerCallbackWriterImpl19SendInitialMetadataEvEUlbE_NS_9allocatorIS8_EEFvbEE18destroy_deallocateEv, symObjAddr: 0x9170, symBinAddr: 0x2389C, symSize: 0x4 }
  - { offsetInCU: 0x55BC1, offset: 0x25828A, size: 0x8, addend: 0x0, symName: __ZNSt3__110__function6__funcIZN4grpc8internal30CallbackServerStreamingHandlerINS2_10ByteBufferES5_E24ServerCallbackWriterImpl19SendInitialMetadataEvEUlbE_NS_9allocatorIS8_EEFvbEE18destroy_deallocateEv, symObjAddr: 0x9170, symBinAddr: 0x2389C, symSize: 0x4 }
  - { offsetInCU: 0x55C0E, offset: 0x2582D7, size: 0x8, addend: 0x0, symName: __ZNSt3__110__function6__funcIZN4grpc8internal30CallbackServerStreamingHandlerINS2_10ByteBufferES5_E24ServerCallbackWriterImpl19SendInitialMetadataEvEUlbE_NS_9allocatorIS8_EEFvbEEclEOb, symObjAddr: 0x9174, symBinAddr: 0x238A0, symSize: 0x8 }
  - { offsetInCU: 0x55C81, offset: 0x25834A, size: 0x8, addend: 0x0, symName: __ZNSt3__128__invoke_void_return_wrapperIvLb1EE6__callIJRZN4grpc8internal30CallbackServerStreamingHandlerINS3_10ByteBufferES6_E24ServerCallbackWriterImpl19SendInitialMetadataEvEUlbE_bEEEvDpOT_, symObjAddr: 0x91C4, symBinAddr: 0x238F0, symSize: 0x5C }
  - { offsetInCU: 0x55DFF, offset: 0x2584C8, size: 0x8, addend: 0x0, symName: __ZNKSt3__110__function6__funcIZN4grpc8internal30CallbackServerStreamingHandlerINS2_10ByteBufferES5_E24ServerCallbackWriterImpl19SendInitialMetadataEvEUlbE_NS_9allocatorIS8_EEFvbEE6targetERKSt9type_info, symObjAddr: 0x917C, symBinAddr: 0x238A8, symSize: 0x3C }
  - { offsetInCU: 0x55E4F, offset: 0x258518, size: 0x8, addend: 0x0, symName: __ZNKSt3__110__function6__funcIZN4grpc8internal30CallbackServerStreamingHandlerINS2_10ByteBufferES5_E24ServerCallbackWriterImpl19SendInitialMetadataEvEUlbE_NS_9allocatorIS8_EEFvbEE11target_typeEv, symObjAddr: 0x91B8, symBinAddr: 0x238E4, symSize: 0xC }
  - { offsetInCU: 0x55EB0, offset: 0x258579, size: 0x8, addend: 0x0, symName: __ZNSt3__110__function6__funcIZN4grpc8internal30CallbackServerStreamingHandlerINS2_10ByteBufferES5_E10RunHandlerERKNS3_13MethodHandler16HandlerParameterEEUlbE_NS_9allocatorISB_EEFvbEED1Ev, symObjAddr: 0x9220, symBinAddr: 0x2394C, symSize: 0x4 }
  - { offsetInCU: 0x55EDC, offset: 0x2585A5, size: 0x8, addend: 0x0, symName: __ZNSt3__110__function6__funcIZN4grpc8internal30CallbackServerStreamingHandlerINS2_10ByteBufferES5_E10RunHandlerERKNS3_13MethodHandler16HandlerParameterEEUlbE_NS_9allocatorISB_EEFvbEED0Ev, symObjAddr: 0x9224, symBinAddr: 0x23950, symSize: 0x4 }
  - { offsetInCU: 0x560F0, offset: 0x2587B9, size: 0x8, addend: 0x0, symName: __ZNKSt3__110__function6__funcIZN4grpc8internal30CallbackServerStreamingHandlerINS2_10ByteBufferES5_E10RunHandlerERKNS3_13MethodHandler16HandlerParameterEEUlbE_NS_9allocatorISB_EEFvbEE7__cloneEv, symObjAddr: 0x9228, symBinAddr: 0x23954, symSize: 0x34 }
  - { offsetInCU: 0x563FB, offset: 0x258AC4, size: 0x8, addend: 0x0, symName: __ZNKSt3__110__function6__funcIZN4grpc8internal30CallbackServerStreamingHandlerINS2_10ByteBufferES5_E10RunHandlerERKNS3_13MethodHandler16HandlerParameterEEUlbE_NS_9allocatorISB_EEFvbEE7__cloneEPNS0_6__baseISE_EE, symObjAddr: 0x925C, symBinAddr: 0x23988, symSize: 0x14 }
  - { offsetInCU: 0x56433, offset: 0x258AFC, size: 0x8, addend: 0x0, symName: __ZNKSt3__110__function6__funcIZN4grpc8internal30CallbackServerStreamingHandlerINS2_10ByteBufferES5_E10RunHandlerERKNS3_13MethodHandler16HandlerParameterEEUlbE_NS_9allocatorISB_EEFvbEE7__cloneEPNS0_6__baseISE_EE, symObjAddr: 0x925C, symBinAddr: 0x23988, symSize: 0x14 }
  - { offsetInCU: 0x56462, offset: 0x258B2B, size: 0x8, addend: 0x0, symName: __ZNKSt3__110__function6__funcIZN4grpc8internal30CallbackServerStreamingHandlerINS2_10ByteBufferES5_E10RunHandlerERKNS3_13MethodHandler16HandlerParameterEEUlbE_NS_9allocatorISB_EEFvbEE7__cloneEPNS0_6__baseISE_EE, symObjAddr: 0x925C, symBinAddr: 0x23988, symSize: 0x14 }
  - { offsetInCU: 0x56491, offset: 0x258B5A, size: 0x8, addend: 0x0, symName: __ZNKSt3__110__function6__funcIZN4grpc8internal30CallbackServerStreamingHandlerINS2_10ByteBufferES5_E10RunHandlerERKNS3_13MethodHandler16HandlerParameterEEUlbE_NS_9allocatorISB_EEFvbEE7__cloneEPNS0_6__baseISE_EE, symObjAddr: 0x925C, symBinAddr: 0x23988, symSize: 0x14 }
  - { offsetInCU: 0x564A7, offset: 0x258B70, size: 0x8, addend: 0x0, symName: __ZNKSt3__110__function6__funcIZN4grpc8internal30CallbackServerStreamingHandlerINS2_10ByteBufferES5_E10RunHandlerERKNS3_13MethodHandler16HandlerParameterEEUlbE_NS_9allocatorISB_EEFvbEE7__cloneEPNS0_6__baseISE_EE, symObjAddr: 0x925C, symBinAddr: 0x23988, symSize: 0x14 }
  - { offsetInCU: 0x564BB, offset: 0x258B84, size: 0x8, addend: 0x0, symName: __ZNKSt3__110__function6__funcIZN4grpc8internal30CallbackServerStreamingHandlerINS2_10ByteBufferES5_E10RunHandlerERKNS3_13MethodHandler16HandlerParameterEEUlbE_NS_9allocatorISB_EEFvbEE7__cloneEPNS0_6__baseISE_EE, symObjAddr: 0x925C, symBinAddr: 0x23988, symSize: 0x14 }
  - { offsetInCU: 0x564CF, offset: 0x258B98, size: 0x8, addend: 0x0, symName: __ZNKSt3__110__function6__funcIZN4grpc8internal30CallbackServerStreamingHandlerINS2_10ByteBufferES5_E10RunHandlerERKNS3_13MethodHandler16HandlerParameterEEUlbE_NS_9allocatorISB_EEFvbEE7__cloneEPNS0_6__baseISE_EE, symObjAddr: 0x925C, symBinAddr: 0x23988, symSize: 0x14 }
  - { offsetInCU: 0x564E4, offset: 0x258BAD, size: 0x8, addend: 0x0, symName: __ZNKSt3__110__function6__funcIZN4grpc8internal30CallbackServerStreamingHandlerINS2_10ByteBufferES5_E10RunHandlerERKNS3_13MethodHandler16HandlerParameterEEUlbE_NS_9allocatorISB_EEFvbEE7__cloneEPNS0_6__baseISE_EE, symObjAddr: 0x925C, symBinAddr: 0x23988, symSize: 0x14 }
  - { offsetInCU: 0x564FC, offset: 0x258BC5, size: 0x8, addend: 0x0, symName: __ZNSt3__110__function6__funcIZN4grpc8internal30CallbackServerStreamingHandlerINS2_10ByteBufferES5_E10RunHandlerERKNS3_13MethodHandler16HandlerParameterEEUlbE_NS_9allocatorISB_EEFvbEE7destroyEv, symObjAddr: 0x9270, symBinAddr: 0x2399C, symSize: 0x4 }
  - { offsetInCU: 0x56551, offset: 0x258C1A, size: 0x8, addend: 0x0, symName: __ZNSt3__110__function6__funcIZN4grpc8internal30CallbackServerStreamingHandlerINS2_10ByteBufferES5_E10RunHandlerERKNS3_13MethodHandler16HandlerParameterEEUlbE_NS_9allocatorISB_EEFvbEE18destroy_deallocateEv, symObjAddr: 0x9274, symBinAddr: 0x239A0, symSize: 0x4 }
  - { offsetInCU: 0x56587, offset: 0x258C50, size: 0x8, addend: 0x0, symName: __ZNSt3__110__function6__funcIZN4grpc8internal30CallbackServerStreamingHandlerINS2_10ByteBufferES5_E10RunHandlerERKNS3_13MethodHandler16HandlerParameterEEUlbE_NS_9allocatorISB_EEFvbEE18destroy_deallocateEv, symObjAddr: 0x9274, symBinAddr: 0x239A0, symSize: 0x4 }
  - { offsetInCU: 0x565AB, offset: 0x258C74, size: 0x8, addend: 0x0, symName: __ZNSt3__110__function6__funcIZN4grpc8internal30CallbackServerStreamingHandlerINS2_10ByteBufferES5_E10RunHandlerERKNS3_13MethodHandler16HandlerParameterEEUlbE_NS_9allocatorISB_EEFvbEE18destroy_deallocateEv, symObjAddr: 0x9274, symBinAddr: 0x239A0, symSize: 0x4 }
  - { offsetInCU: 0x565D7, offset: 0x258CA0, size: 0x8, addend: 0x0, symName: __ZNSt3__110__function6__funcIZN4grpc8internal30CallbackServerStreamingHandlerINS2_10ByteBufferES5_E10RunHandlerERKNS3_13MethodHandler16HandlerParameterEEUlbE_NS_9allocatorISB_EEFvbEE18destroy_deallocateEv, symObjAddr: 0x9274, symBinAddr: 0x239A0, symSize: 0x4 }
  - { offsetInCU: 0x565FE, offset: 0x258CC7, size: 0x8, addend: 0x0, symName: __ZNSt3__110__function6__funcIZN4grpc8internal30CallbackServerStreamingHandlerINS2_10ByteBufferES5_E10RunHandlerERKNS3_13MethodHandler16HandlerParameterEEUlbE_NS_9allocatorISB_EEFvbEE18destroy_deallocateEv, symObjAddr: 0x9274, symBinAddr: 0x239A0, symSize: 0x4 }
  - { offsetInCU: 0x566A5, offset: 0x258D6E, size: 0x8, addend: 0x0, symName: __ZNSt3__110__function6__funcIZN4grpc8internal30CallbackServerStreamingHandlerINS2_10ByteBufferES5_E10RunHandlerERKNS3_13MethodHandler16HandlerParameterEEUlbE_NS_9allocatorISB_EEFvbEEclEOb, symObjAddr: 0x9278, symBinAddr: 0x239A4, symSize: 0x28 }
  - { offsetInCU: 0x567D6, offset: 0x258E9F, size: 0x8, addend: 0x0, symName: __ZNKSt3__110__function6__funcIZN4grpc8internal30CallbackServerStreamingHandlerINS2_10ByteBufferES5_E10RunHandlerERKNS3_13MethodHandler16HandlerParameterEEUlbE_NS_9allocatorISB_EEFvbEE6targetERKSt9type_info, symObjAddr: 0x92A0, symBinAddr: 0x239CC, symSize: 0x3C }
  - { offsetInCU: 0x56826, offset: 0x258EEF, size: 0x8, addend: 0x0, symName: __ZNKSt3__110__function6__funcIZN4grpc8internal30CallbackServerStreamingHandlerINS2_10ByteBufferES5_E10RunHandlerERKNS3_13MethodHandler16HandlerParameterEEUlbE_NS_9allocatorISB_EEFvbEE11target_typeEv, symObjAddr: 0x92DC, symBinAddr: 0x23A08, symSize: 0xC }
  - { offsetInCU: 0x568A0, offset: 0x258F69, size: 0x8, addend: 0x0, symName: __ZN4grpc8internal17FinishOnlyReactorINS_18ServerWriteReactorINS_10ByteBufferEEEED1Ev, symObjAddr: 0x942C, symBinAddr: 0x23B58, symSize: 0x4 }
  - { offsetInCU: 0x568C2, offset: 0x258F8B, size: 0x8, addend: 0x0, symName: __ZN4grpc8internal17FinishOnlyReactorINS_18ServerWriteReactorINS_10ByteBufferEEEED1Ev, symObjAddr: 0x942C, symBinAddr: 0x23B58, symSize: 0x4 }
  - { offsetInCU: 0x568E1, offset: 0x258FAA, size: 0x8, addend: 0x0, symName: __ZN4grpc8internal17FinishOnlyReactorINS_18ServerWriteReactorINS_10ByteBufferEEEED1Ev, symObjAddr: 0x942C, symBinAddr: 0x23B58, symSize: 0x4 }
  - { offsetInCU: 0x56912, offset: 0x258FDB, size: 0x8, addend: 0x0, symName: __ZN4grpc8internal17FinishOnlyReactorINS_18ServerWriteReactorINS_10ByteBufferEEEED0Ev, symObjAddr: 0x9430, symBinAddr: 0x23B5C, symSize: 0x14 }
  - { offsetInCU: 0x56991, offset: 0x25905A, size: 0x8, addend: 0x0, symName: __ZN4grpc8internal17FinishOnlyReactorINS_18ServerWriteReactorINS_10ByteBufferEEEE6OnDoneEv, symObjAddr: 0x9444, symBinAddr: 0x23B70, symSize: 0xC }
  - { offsetInCU: 0x569CB, offset: 0x259094, size: 0x8, addend: 0x0, symName: __ZNSt3__110__function6__funcIZN4grpc8internal30CallbackServerStreamingHandlerINS2_10ByteBufferES5_E24ServerCallbackWriterImpl12SetupReactorEPNS2_18ServerWriteReactorIS5_EEEUlbE_NS_9allocatorISB_EEFvbEED1Ev, symObjAddr: 0x9450, symBinAddr: 0x23B7C, symSize: 0x4 }
  - { offsetInCU: 0x569F7, offset: 0x2590C0, size: 0x8, addend: 0x0, symName: __ZNSt3__110__function6__funcIZN4grpc8internal30CallbackServerStreamingHandlerINS2_10ByteBufferES5_E24ServerCallbackWriterImpl12SetupReactorEPNS2_18ServerWriteReactorIS5_EEEUlbE_NS_9allocatorISB_EEFvbEED0Ev, symObjAddr: 0x9454, symBinAddr: 0x23B80, symSize: 0x4 }
  - { offsetInCU: 0x56C0B, offset: 0x2592D4, size: 0x8, addend: 0x0, symName: __ZNKSt3__110__function6__funcIZN4grpc8internal30CallbackServerStreamingHandlerINS2_10ByteBufferES5_E24ServerCallbackWriterImpl12SetupReactorEPNS2_18ServerWriteReactorIS5_EEEUlbE_NS_9allocatorISB_EEFvbEE7__cloneEv, symObjAddr: 0x9458, symBinAddr: 0x23B84, symSize: 0x38 }
  - { offsetInCU: 0x56F43, offset: 0x25960C, size: 0x8, addend: 0x0, symName: __ZNKSt3__110__function6__funcIZN4grpc8internal30CallbackServerStreamingHandlerINS2_10ByteBufferES5_E24ServerCallbackWriterImpl12SetupReactorEPNS2_18ServerWriteReactorIS5_EEEUlbE_NS_9allocatorISB_EEFvbEE7__cloneEPNS0_6__baseISE_EE, symObjAddr: 0x9490, symBinAddr: 0x23BBC, symSize: 0x18 }
  - { offsetInCU: 0x56F7B, offset: 0x259644, size: 0x8, addend: 0x0, symName: __ZNKSt3__110__function6__funcIZN4grpc8internal30CallbackServerStreamingHandlerINS2_10ByteBufferES5_E24ServerCallbackWriterImpl12SetupReactorEPNS2_18ServerWriteReactorIS5_EEEUlbE_NS_9allocatorISB_EEFvbEE7__cloneEPNS0_6__baseISE_EE, symObjAddr: 0x9490, symBinAddr: 0x23BBC, symSize: 0x18 }
  - { offsetInCU: 0x56FAA, offset: 0x259673, size: 0x8, addend: 0x0, symName: __ZNKSt3__110__function6__funcIZN4grpc8internal30CallbackServerStreamingHandlerINS2_10ByteBufferES5_E24ServerCallbackWriterImpl12SetupReactorEPNS2_18ServerWriteReactorIS5_EEEUlbE_NS_9allocatorISB_EEFvbEE7__cloneEPNS0_6__baseISE_EE, symObjAddr: 0x9490, symBinAddr: 0x23BBC, symSize: 0x18 }
  - { offsetInCU: 0x570C2, offset: 0x25978B, size: 0x8, addend: 0x0, symName: __ZNSt3__110__function6__funcIZN4grpc8internal30CallbackServerStreamingHandlerINS2_10ByteBufferES5_E24ServerCallbackWriterImpl12SetupReactorEPNS2_18ServerWriteReactorIS5_EEEUlbE_NS_9allocatorISB_EEFvbEE7destroyEv, symObjAddr: 0x94A8, symBinAddr: 0x23BD4, symSize: 0x4 }
  - { offsetInCU: 0x57117, offset: 0x2597E0, size: 0x8, addend: 0x0, symName: __ZNSt3__110__function6__funcIZN4grpc8internal30CallbackServerStreamingHandlerINS2_10ByteBufferES5_E24ServerCallbackWriterImpl12SetupReactorEPNS2_18ServerWriteReactorIS5_EEEUlbE_NS_9allocatorISB_EEFvbEE18destroy_deallocateEv, symObjAddr: 0x94AC, symBinAddr: 0x23BD8, symSize: 0x4 }
  - { offsetInCU: 0x5714D, offset: 0x259816, size: 0x8, addend: 0x0, symName: __ZNSt3__110__function6__funcIZN4grpc8internal30CallbackServerStreamingHandlerINS2_10ByteBufferES5_E24ServerCallbackWriterImpl12SetupReactorEPNS2_18ServerWriteReactorIS5_EEEUlbE_NS_9allocatorISB_EEFvbEE18destroy_deallocateEv, symObjAddr: 0x94AC, symBinAddr: 0x23BD8, symSize: 0x4 }
  - { offsetInCU: 0x57171, offset: 0x25983A, size: 0x8, addend: 0x0, symName: __ZNSt3__110__function6__funcIZN4grpc8internal30CallbackServerStreamingHandlerINS2_10ByteBufferES5_E24ServerCallbackWriterImpl12SetupReactorEPNS2_18ServerWriteReactorIS5_EEEUlbE_NS_9allocatorISB_EEFvbEE18destroy_deallocateEv, symObjAddr: 0x94AC, symBinAddr: 0x23BD8, symSize: 0x4 }
  - { offsetInCU: 0x5719D, offset: 0x259866, size: 0x8, addend: 0x0, symName: __ZNSt3__110__function6__funcIZN4grpc8internal30CallbackServerStreamingHandlerINS2_10ByteBufferES5_E24ServerCallbackWriterImpl12SetupReactorEPNS2_18ServerWriteReactorIS5_EEEUlbE_NS_9allocatorISB_EEFvbEE18destroy_deallocateEv, symObjAddr: 0x94AC, symBinAddr: 0x23BD8, symSize: 0x4 }
  - { offsetInCU: 0x571C4, offset: 0x25988D, size: 0x8, addend: 0x0, symName: __ZNSt3__110__function6__funcIZN4grpc8internal30CallbackServerStreamingHandlerINS2_10ByteBufferES5_E24ServerCallbackWriterImpl12SetupReactorEPNS2_18ServerWriteReactorIS5_EEEUlbE_NS_9allocatorISB_EEFvbEE18destroy_deallocateEv, symObjAddr: 0x94AC, symBinAddr: 0x23BD8, symSize: 0x4 }
  - { offsetInCU: 0x57211, offset: 0x2598DA, size: 0x8, addend: 0x0, symName: __ZNSt3__110__function6__funcIZN4grpc8internal30CallbackServerStreamingHandlerINS2_10ByteBufferES5_E24ServerCallbackWriterImpl12SetupReactorEPNS2_18ServerWriteReactorIS5_EEEUlbE_NS_9allocatorISB_EEFvbEEclEOb, symObjAddr: 0x94B0, symBinAddr: 0x23BDC, symSize: 0x8 }
  - { offsetInCU: 0x57284, offset: 0x25994D, size: 0x8, addend: 0x0, symName: __ZNSt3__128__invoke_void_return_wrapperIvLb1EE6__callIJRZN4grpc8internal30CallbackServerStreamingHandlerINS3_10ByteBufferES6_E24ServerCallbackWriterImpl12SetupReactorEPNS3_18ServerWriteReactorIS6_EEEUlbE_bEEEvDpOT_, symObjAddr: 0x9500, symBinAddr: 0x23C2C, symSize: 0x58 }
  - { offsetInCU: 0x573A8, offset: 0x259A71, size: 0x8, addend: 0x0, symName: __ZNKSt3__110__function6__funcIZN4grpc8internal30CallbackServerStreamingHandlerINS2_10ByteBufferES5_E24ServerCallbackWriterImpl12SetupReactorEPNS2_18ServerWriteReactorIS5_EEEUlbE_NS_9allocatorISB_EEFvbEE6targetERKSt9type_info, symObjAddr: 0x94B8, symBinAddr: 0x23BE4, symSize: 0x3C }
  - { offsetInCU: 0x573F8, offset: 0x259AC1, size: 0x8, addend: 0x0, symName: __ZNKSt3__110__function6__funcIZN4grpc8internal30CallbackServerStreamingHandlerINS2_10ByteBufferES5_E24ServerCallbackWriterImpl12SetupReactorEPNS2_18ServerWriteReactorIS5_EEEUlbE_NS_9allocatorISB_EEFvbEE11target_typeEv, symObjAddr: 0x94F4, symBinAddr: 0x23C20, symSize: 0xC }
  - { offsetInCU: 0x5140, offset: 0x25F358, size: 0x8, addend: 0x0, symName: __ZNSt3__119__allocate_at_leastB7v160006INS_9allocatorIPNS_8functionIFvvEEEEEEENS_19__allocation_resultINS_16allocator_traitsIT_E7pointerEEERS9_m, symObjAddr: 0x1414, symBinAddr: 0x24F74, symSize: 0x34 }
  - { offsetInCU: 0x7A73, offset: 0x261C8B, size: 0x8, addend: 0x0, symName: __ZN4grpc17DynamicThreadPool13DynamicThreadC2EPS0_, symObjAddr: 0x0, symBinAddr: 0x23D54, symSize: 0x78 }
  - { offsetInCU: 0x7B58, offset: 0x261D70, size: 0x8, addend: 0x0, symName: __ZN4grpc17DynamicThreadPool13DynamicThreadC1EPS0_, symObjAddr: 0xC8, symBinAddr: 0x23DCC, symSize: 0x4 }
  - { offsetInCU: 0x7BB9, offset: 0x261DD1, size: 0x8, addend: 0x0, symName: __ZN4grpc17DynamicThreadPool13DynamicThreadC1EPS0_, symObjAddr: 0xC8, symBinAddr: 0x23DCC, symSize: 0x4 }
  - { offsetInCU: 0x7BE3, offset: 0x261DFB, size: 0x8, addend: 0x0, symName: __ZN4grpc17DynamicThreadPool13DynamicThreadC1EPS0_, symObjAddr: 0xC8, symBinAddr: 0x23DCC, symSize: 0x4 }
  - { offsetInCU: 0x7C26, offset: 0x261E3E, size: 0x8, addend: 0x0, symName: __ZN4grpc17DynamicThreadPool13DynamicThreadD2Ev, symObjAddr: 0xCC, symBinAddr: 0x23DD0, symSize: 0x38 }
  - { offsetInCU: 0x7CDF, offset: 0x261EF7, size: 0x8, addend: 0x0, symName: __ZN4grpc17DynamicThreadPool13DynamicThreadD1Ev, symObjAddr: 0x174, symBinAddr: 0x23E08, symSize: 0x4 }
  - { offsetInCU: 0x7D02, offset: 0x261F1A, size: 0x8, addend: 0x0, symName: __ZN4grpc17DynamicThreadPool13DynamicThreadD1Ev, symObjAddr: 0x174, symBinAddr: 0x23E08, symSize: 0x4 }
  - { offsetInCU: 0x7F5E, offset: 0x262176, size: 0x8, addend: 0x0, symName: __ZN4grpc17DynamicThreadPool13DynamicThread10ThreadFuncEv, symObjAddr: 0x178, symBinAddr: 0x23E0C, symSize: 0xB8 }
  - { offsetInCU: 0x826D, offset: 0x262485, size: 0x8, addend: 0x0, symName: __ZN4grpc17DynamicThreadPool10ThreadFuncEv, symObjAddr: 0x230, symBinAddr: 0x23EC4, symSize: 0x1C8 }
  - { offsetInCU: 0x8A68, offset: 0x262C80, size: 0x8, addend: 0x0, symName: __ZNSt3__15dequeINS_8functionIFvvEEENS_9allocatorIS3_EEE9pop_frontEv, symObjAddr: 0xAAC, symBinAddr: 0x24658, symSize: 0x80 }
  - { offsetInCU: 0x8BBD, offset: 0x262DD5, size: 0x8, addend: 0x0, symName: __ZN9grpc_core19ReleasableMutexLock7ReleaseEv, symObjAddr: 0x3F8, symBinAddr: 0x2408C, symSize: 0x28 }
  - { offsetInCU: 0x8C0F, offset: 0x262E27, size: 0x8, addend: 0x0, symName: __ZN4grpc17DynamicThreadPoolC2Ei, symObjAddr: 0x420, symBinAddr: 0x240B4, symSize: 0x158 }
  - { offsetInCU: 0x8C1B, offset: 0x262E33, size: 0x8, addend: 0x0, symName: __ZN9grpc_core19ReleasableMutexLockD2Ev, symObjAddr: 0x7F0, symBinAddr: 0x24428, symSize: 0x34 }
  - { offsetInCU: 0x8C8A, offset: 0x262EA2, size: 0x8, addend: 0x0, symName: __ZN9grpc_core19ReleasableMutexLock7ReleaseEv.cold.1, symObjAddr: 0x14E4, symBinAddr: 0x4D4D4, symSize: 0x34 }
  - { offsetInCU: 0x8FFA, offset: 0x263212, size: 0x8, addend: 0x0, symName: __ZN4grpc17DynamicThreadPoolC2Ei, symObjAddr: 0x420, symBinAddr: 0x240B4, symSize: 0x158 }
  - { offsetInCU: 0x95C1, offset: 0x2637D9, size: 0x8, addend: 0x0, symName: __ZNSt3__110__list_impIPN4grpc17DynamicThreadPool13DynamicThreadENS_9allocatorIS4_EEE5clearEv, symObjAddr: 0x824, symBinAddr: 0x2445C, symSize: 0x60 }
  - { offsetInCU: 0x976F, offset: 0x263987, size: 0x8, addend: 0x0, symName: __ZNSt3__15dequeINS_8functionIFvvEEENS_9allocatorIS3_EEED2B7v160006Ev, symObjAddr: 0x884, symBinAddr: 0x244BC, symSize: 0x150 }
  - { offsetInCU: 0x9BFE, offset: 0x263E16, size: 0x8, addend: 0x0, symName: __ZN4grpc17DynamicThreadPoolC1Ei, symObjAddr: 0x578, symBinAddr: 0x2420C, symSize: 0x4 }
  - { offsetInCU: 0x9C3A, offset: 0x263E52, size: 0x8, addend: 0x0, symName: __ZN4grpc17DynamicThreadPoolC1Ei, symObjAddr: 0x578, symBinAddr: 0x2420C, symSize: 0x4 }
  - { offsetInCU: 0x9D78, offset: 0x263F90, size: 0x8, addend: 0x0, symName: __ZN4grpc17DynamicThreadPool11ReapThreadsEPNSt3__14listIPNS0_13DynamicThreadENS1_9allocatorIS4_EEEE, symObjAddr: 0x57C, symBinAddr: 0x24210, symSize: 0x70 }
  - { offsetInCU: 0x9F75, offset: 0x26418D, size: 0x8, addend: 0x0, symName: __ZN4grpc17DynamicThreadPoolD2Ev, symObjAddr: 0x5EC, symBinAddr: 0x24280, symSize: 0xD4 }
  - { offsetInCU: 0xA2E4, offset: 0x2644FC, size: 0x8, addend: 0x0, symName: __ZN4grpc17DynamicThreadPoolD1Ev, symObjAddr: 0x6C0, symBinAddr: 0x24354, symSize: 0x4 }
  - { offsetInCU: 0xA307, offset: 0x26451F, size: 0x8, addend: 0x0, symName: __ZN4grpc17DynamicThreadPoolD1Ev, symObjAddr: 0x6C0, symBinAddr: 0x24354, symSize: 0x4 }
  - { offsetInCU: 0xA337, offset: 0x26454F, size: 0x8, addend: 0x0, symName: __ZN4grpc17DynamicThreadPoolD0Ev, symObjAddr: 0x6C4, symBinAddr: 0x24358, symSize: 0x14 }
  - { offsetInCU: 0xA3EE, offset: 0x264606, size: 0x8, addend: 0x0, symName: __ZN4grpc17DynamicThreadPool3AddERKNSt3__18functionIFvvEEE, symObjAddr: 0x6D8, symBinAddr: 0x2436C, symSize: 0xB8 }
  - { offsetInCU: 0xA651, offset: 0x264869, size: 0x8, addend: 0x0, symName: __ZNSt3__15dequeINS_8functionIFvvEEENS_9allocatorIS3_EEE9push_backERKS3_, symObjAddr: 0xBDC, symBinAddr: 0x2473C, symSize: 0x94 }
  - { offsetInCU: 0xA85E, offset: 0x264A76, size: 0x8, addend: 0x0, symName: '__ZZN4grpc17DynamicThreadPool13DynamicThreadC1EPS0_EN3$_08__invokeEPv', symObjAddr: 0x790, symBinAddr: 0x24424, symSize: 0x4 }
  - { offsetInCU: 0xA887, offset: 0x264A9F, size: 0x8, addend: 0x0, symName: '__ZZN4grpc17DynamicThreadPool13DynamicThreadC1EPS0_EN3$_08__invokeEPv', symObjAddr: 0x790, symBinAddr: 0x24424, symSize: 0x4 }
  - { offsetInCU: 0xA8A4, offset: 0x264ABC, size: 0x8, addend: 0x0, symName: '__ZZN4grpc17DynamicThreadPool13DynamicThreadC1EPS0_EN3$_08__invokeEPv', symObjAddr: 0x790, symBinAddr: 0x24424, symSize: 0x4 }
  - { offsetInCU: 0xAB02, offset: 0x264D1A, size: 0x8, addend: 0x0, symName: __ZNSt3__114__split_bufferIPNS_8functionIFvvEEENS_9allocatorIS4_EEED2Ev, symObjAddr: 0x9D4, symBinAddr: 0x2460C, symSize: 0x4C }
  - { offsetInCU: 0xAD23, offset: 0x264F3B, size: 0x8, addend: 0x0, symName: __ZNSt3__15dequeINS_8functionIFvvEEENS_9allocatorIS3_EEE26__maybe_remove_front_spareB7v160006Eb, symObjAddr: 0xB2C, symBinAddr: 0x246D8, symSize: 0x64 }
  - { offsetInCU: 0xB024, offset: 0x26523C, size: 0x8, addend: 0x0, symName: __ZNSt3__15dequeINS_8functionIFvvEEENS_9allocatorIS3_EEE19__add_back_capacityEv, symObjAddr: 0xC70, symBinAddr: 0x247D0, symSize: 0x368 }
  - { offsetInCU: 0xC782, offset: 0x26699A, size: 0x8, addend: 0x0, symName: __ZNSt3__114__split_bufferIPNS_8functionIFvvEEENS_9allocatorIS4_EEE9push_backEOS4_, symObjAddr: 0xFD8, symBinAddr: 0x24B38, symSize: 0x104 }
  - { offsetInCU: 0xCBD3, offset: 0x266DEB, size: 0x8, addend: 0x0, symName: __ZNSt3__114__split_bufferIPNS_8functionIFvvEEERNS_9allocatorIS4_EEE9push_backEOS4_, symObjAddr: 0x11F8, symBinAddr: 0x24D58, symSize: 0x104 }
  - { offsetInCU: 0xD06C, offset: 0x267284, size: 0x8, addend: 0x0, symName: __ZNSt3__114__split_bufferIPNS_8functionIFvvEEERNS_9allocatorIS4_EEE10push_frontERKS4_, symObjAddr: 0x12FC, symBinAddr: 0x24E5C, symSize: 0x118 }
  - { offsetInCU: 0xD526, offset: 0x26773E, size: 0x8, addend: 0x0, symName: __ZNSt3__114__split_bufferIPNS_8functionIFvvEEENS_9allocatorIS4_EEE10push_frontEOS4_, symObjAddr: 0x10DC, symBinAddr: 0x24C3C, symSize: 0x11C }
  - { offsetInCU: 0xDA5E, offset: 0x267C76, size: 0x8, addend: 0x0, symName: _OUTLINED_FUNCTION_0, symObjAddr: 0x1518, symBinAddr: 0x24FA8, symSize: 0x8 }
  - { offsetInCU: 0x4B, offset: 0x267CD8, size: 0x8, addend: 0x0, symName: __ZN11grpc_binder21GetEndpointBinderPoolEv, symObjAddr: 0x5D8, symBinAddr: 0x25588, symSize: 0xC4 }
  - { offsetInCU: 0x75, offset: 0x267D02, size: 0x8, addend: 0x0, symName: __ZZN11grpc_binder21GetEndpointBinderPoolEvE1p, symObjAddr: 0xA2988, symBinAddr: 0x6D868, symSize: 0x0 }
  - { offsetInCU: 0x273F, offset: 0x26A3CC, size: 0x8, addend: 0x0, symName: __ZN4absl12lts_2022062318container_internal10DeallocateILm8ENSt3__19allocatorINS3_4pairIKNS3_12basic_stringIcNS3_11char_traitsIcEENS4_IcEEEENS3_10unique_ptrIN11grpc_binder6BinderENS3_14default_deleteISE_EEEEEEEEEEvPT0_Pvm, symObjAddr: 0x6A8, symBinAddr: 0x2564C, symSize: 0x18 }
  - { offsetInCU: 0x283D, offset: 0x26A4CA, size: 0x8, addend: 0x0, symName: __ZN4absl12lts_2022062316allocator_traitsINSt3__19allocatorINS2_4pairIKNS2_12basic_stringIcNS2_11char_traitsIcEENS3_IcEEEENS2_10unique_ptrIN11grpc_binder6BinderENS2_14default_deleteISD_EEEEEEEEE12destroy_implINS4_IS9_SG_EEEEvcRSI_PT_, symObjAddr: 0x6C0, symBinAddr: 0x25664, symSize: 0x4C }
  - { offsetInCU: 0x2866, offset: 0x26A4F3, size: 0x8, addend: 0x0, symName: __ZN4absl12lts_2022062318container_internal10DeallocateILm8ENSt3__19allocatorINS3_4pairIKNS3_12basic_stringIcNS3_11char_traitsIcEENS4_IcEEEENS3_8functionIFvNS3_10unique_ptrIN11grpc_binder6BinderENS3_14default_deleteISF_EEEEEEEEEEEEEvPT0_Pvm, symObjAddr: 0x2618, symBinAddr: 0x274B8, symSize: 0x18 }
  - { offsetInCU: 0x2964, offset: 0x26A5F1, size: 0x8, addend: 0x0, symName: __ZN4absl12lts_2022062318container_internal8AllocateILm8ENSt3__19allocatorINS3_4pairIKNS3_12basic_stringIcNS3_11char_traitsIcEENS4_IcEEEENS3_8functionIFvNS3_10unique_ptrIN11grpc_binder6BinderENS3_14default_deleteISF_EEEEEEEEEEEEEPvPT0_m, symObjAddr: 0x2630, symBinAddr: 0x274D0, symSize: 0x30 }
  - { offsetInCU: 0x2A06, offset: 0x26A693, size: 0x8, addend: 0x0, symName: __ZN4absl12lts_2022062318container_internaleqERKNS1_12raw_hash_setINS1_17FlatHashMapPolicyINSt3__112basic_stringIcNS4_11char_traitsIcEENS4_9allocatorIcEEEENS4_10unique_ptrIN11grpc_binder6BinderENS4_14default_deleteISD_EEEEEENS1_10StringHashENS1_8StringEqENS8_INS4_4pairIKSA_SG_EEEEE8iteratorESR_, symObjAddr: 0x790, symBinAddr: 0x25734, symSize: 0x40 }
  - { offsetInCU: 0x2AB7, offset: 0x26A744, size: 0x8, addend: 0x0, symName: __ZN4absl12lts_2022062318container_internal12raw_hash_setINS1_17FlatHashMapPolicyINSt3__112basic_stringIcNS4_11char_traitsIcEENS4_9allocatorIcEEEENS4_10unique_ptrIN11grpc_binder6BinderENS4_14default_deleteISD_EEEEEENS1_10StringHashENS1_8StringEqENS8_INS4_4pairIKSA_SG_EEEEE4findISA_EENSO_8iteratorERKT_m, symObjAddr: 0x7D0, symBinAddr: 0x25774, symSize: 0x144 }
  - { offsetInCU: 0x2AC2, offset: 0x26A74F, size: 0x8, addend: 0x0, symName: __ZN4absl12lts_2022062318container_internaleqERKNS1_12raw_hash_setINS1_17FlatHashMapPolicyINSt3__112basic_stringIcNS4_11char_traitsIcEENS4_9allocatorIcEEEENS4_8functionIFvNS4_10unique_ptrIN11grpc_binder6BinderENS4_14default_deleteISE_EEEEEEEEENS1_10StringHashENS1_8StringEqENS8_INS4_4pairIKSA_SJ_EEEEE8iteratorESU_, symObjAddr: 0x1888, symBinAddr: 0x26728, symSize: 0x40 }
  - { offsetInCU: 0x2B73, offset: 0x26A800, size: 0x8, addend: 0x0, symName: __ZN4absl12lts_2022062318container_internal12raw_hash_setINS1_17FlatHashMapPolicyINSt3__112basic_stringIcNS4_11char_traitsIcEENS4_9allocatorIcEEEENS4_8functionIFvNS4_10unique_ptrIN11grpc_binder6BinderENS4_14default_deleteISE_EEEEEEEEENS1_10StringHashENS1_8StringEqENS8_INS4_4pairIKSA_SJ_EEEEE4findISA_EENSR_8iteratorERKT_m, symObjAddr: 0x18C8, symBinAddr: 0x26768, symSize: 0x150 }
  - { offsetInCU: 0x31B0, offset: 0x26AE3D, size: 0x8, addend: 0x0, symName: __ZN4absl12lts_2022062318container_internal8AllocateILm8ENSt3__19allocatorINS3_4pairIKNS3_12basic_stringIcNS3_11char_traitsIcEENS4_IcEEEENS3_10unique_ptrIN11grpc_binder6BinderENS3_14default_deleteISE_EEEEEEEEEEPvPT0_m, symObjAddr: 0x15F0, symBinAddr: 0x26490, symSize: 0x30 }
  - { offsetInCU: 0x3289, offset: 0x26AF16, size: 0x8, addend: 0x0, symName: __ZN4absl12lts_2022062318container_internal12raw_hash_setINS1_17FlatHashMapPolicyINSt3__112basic_stringIcNS4_11char_traitsIcEENS4_9allocatorIcEEEENS4_10unique_ptrIN11grpc_binder6BinderENS4_14default_deleteISD_EEEEEENS1_10StringHashENS1_8StringEqENS8_INS4_4pairIKSA_SG_EEEEE17reset_growth_leftEv, symObjAddr: 0x1620, symBinAddr: 0x264C0, symSize: 0x48 }
  - { offsetInCU: 0x33BC, offset: 0x26B049, size: 0x8, addend: 0x0, symName: __ZN4absl12lts_2022062318container_internal8AllocateILm8ENSt3__19allocatorINS3_4pairIKNS3_12basic_stringIcNS3_11char_traitsIcEENS4_IcEEEENS3_8functionIFvNS3_10unique_ptrIN11grpc_binder6BinderENS3_14default_deleteISF_EEEEEEEEEEEEEPvPT0_m, symObjAddr: 0x2630, symBinAddr: 0x274D0, symSize: 0x30 }
  - { offsetInCU: 0x3495, offset: 0x26B122, size: 0x8, addend: 0x0, symName: __ZN4absl12lts_2022062318container_internal12raw_hash_setINS1_17FlatHashMapPolicyINSt3__112basic_stringIcNS4_11char_traitsIcEENS4_9allocatorIcEEEENS4_8functionIFvNS4_10unique_ptrIN11grpc_binder6BinderENS4_14default_deleteISE_EEEEEEEEENS1_10StringHashENS1_8StringEqENS8_INS4_4pairIKSA_SJ_EEEEE17reset_growth_leftEv, symObjAddr: 0x2660, symBinAddr: 0x27500, symSize: 0x48 }
  - { offsetInCU: 0x5D6F, offset: 0x26D9FC, size: 0x8, addend: 0x0, symName: __ZNSt3__1L19piecewise_constructE, symObjAddr: 0x3989, symBinAddr: 0x5442E, symSize: 0x0 }
  - { offsetInCU: 0x9803, offset: 0x271490, size: 0x8, addend: 0x0, symName: __ZN11grpc_binder18EndpointBinderPool17GetEndpointBinderENSt3__112basic_stringIcNS1_11char_traitsIcEENS1_9allocatorIcEEEENS1_8functionIFvNS1_10unique_ptrINS_6BinderENS1_14default_deleteISA_EEEEEEE, symObjAddr: 0x0, symBinAddr: 0x24FB0, symSize: 0x21C }
  - { offsetInCU: 0x9F11, offset: 0x271B9E, size: 0x8, addend: 0x0, symName: __ZNK4absl12lts_2022062318container_internal12raw_hash_setINS1_17FlatHashMapPolicyINSt3__112basic_stringIcNS4_11char_traitsIcEENS4_9allocatorIcEEEENS4_10unique_ptrIN11grpc_binder6BinderENS4_14default_deleteISD_EEEEEENS1_10StringHashENS1_8StringEqENS8_INS4_4pairIKSA_SG_EEEEE4findISA_EENSO_14const_iteratorERKT_, symObjAddr: 0x70C, symBinAddr: 0x256B0, symSize: 0x84 }
  - { offsetInCU: 0xA2AA, offset: 0x271F37, size: 0x8, addend: 0x0, symName: __ZNK4absl12lts_2022062318container_internal12raw_hash_setINS1_17FlatHashMapPolicyINSt3__112basic_stringIcNS4_11char_traitsIcEENS4_9allocatorIcEEEENS4_8functionIFvNS4_10unique_ptrIN11grpc_binder6BinderENS4_14default_deleteISE_EEEEEEEEENS1_10StringHashENS1_8StringEqENS8_INS4_4pairIKSA_SJ_EEEEE4findISA_EENSR_14const_iteratorERKT_, symObjAddr: 0x1804, symBinAddr: 0x266A4, symSize: 0x84 }
  - { offsetInCU: 0xA64E, offset: 0x2722DB, size: 0x8, addend: 0x0, symName: __ZN4absl12lts_2022062318container_internal12raw_hash_mapINS1_17FlatHashMapPolicyINSt3__112basic_stringIcNS4_11char_traitsIcEENS4_9allocatorIcEEEENS4_8functionIFvNS4_10unique_ptrIN11grpc_binder6BinderENS4_14default_deleteISE_EEEEEEEEENS1_10StringHashENS1_8StringEqENS8_INS4_4pairIKSA_SJ_EEEEEixISA_SK_EEDTclsrT0_5valueclL_ZNS4_9addressofB7v160006ISP_EEPT_RSV_EclL_ZNS4_7declvalIRSP_EEDTclsr3stdE9__declvalISV_ELi0EEEvEEEEERKSV_, symObjAddr: 0x2B0, symBinAddr: 0x25260, symSize: 0x3C }
  - { offsetInCU: 0xA719, offset: 0x2723A6, size: 0x8, addend: 0x0, symName: __ZN11grpc_binder18EndpointBinderPool17AddEndpointBinderENSt3__112basic_stringIcNS1_11char_traitsIcEENS1_9allocatorIcEEEENS1_10unique_ptrINS_6BinderENS1_14default_deleteIS9_EEEE, symObjAddr: 0x2EC, symBinAddr: 0x2529C, symSize: 0x294 }
  - { offsetInCU: 0xA737, offset: 0x2723C4, size: 0x8, addend: 0x0, symName: __ZNSt3__110__function12__value_funcIFvNS_10unique_ptrIN11grpc_binder6BinderENS_14default_deleteIS4_EEEEEEaSB7v160006EOS9_, symObjAddr: 0x2770, symBinAddr: 0x27610, symSize: 0x90 }
  - { offsetInCU: 0xA7C8, offset: 0x272455, size: 0x8, addend: 0x0, symName: __ZN4absl12lts_2022062318container_internal12raw_hash_mapINS1_17FlatHashMapPolicyINSt3__112basic_stringIcNS4_11char_traitsIcEENS4_9allocatorIcEEEENS4_10unique_ptrIN11grpc_binder6BinderENS4_14default_deleteISD_EEEEEENS1_10StringHashENS1_8StringEqENS8_INS4_4pairIKSA_SG_EEEEEixISA_SH_EEDTclsrT0_5valueclL_ZNS4_9addressofB7v160006ISM_EEPT_RSS_EclL_ZNS4_7declvalIRSM_EEDTclsr3stdE9__declvalISS_ELi0EEEvEEEEERKSS_, symObjAddr: 0x21C, symBinAddr: 0x251CC, symSize: 0x3C }
  - { offsetInCU: 0xA893, offset: 0x272520, size: 0x8, addend: 0x0, symName: __ZN4absl12lts_2022062318container_internal12raw_hash_setINS1_17FlatHashMapPolicyINSt3__112basic_stringIcNS4_11char_traitsIcEENS4_9allocatorIcEEEENS4_10unique_ptrIN11grpc_binder6BinderENS4_14default_deleteISD_EEEEEENS1_10StringHashENS1_8StringEqENS8_INS4_4pairIKSA_SG_EEEEE5eraseISA_EEmRKT_, symObjAddr: 0x258, symBinAddr: 0x25208, symSize: 0x58 }
  - { offsetInCU: 0xA8B1, offset: 0x27253E, size: 0x8, addend: 0x0, symName: __ZN4absl12lts_2022062318container_internal12raw_hash_setINS1_17FlatHashMapPolicyINSt3__112basic_stringIcNS4_11char_traitsIcEENS4_9allocatorIcEEEENS4_10unique_ptrIN11grpc_binder6BinderENS4_14default_deleteISD_EEEEEENS1_10StringHashENS1_8StringEqENS8_INS4_4pairIKSA_SG_EEEEE5eraseISA_EEmRKT_, symObjAddr: 0x258, symBinAddr: 0x25208, symSize: 0x58 }
  - { offsetInCU: 0xA960, offset: 0x2725ED, size: 0x8, addend: 0x0, symName: __ZN11grpc_binder18EndpointBinderPool17GetEndpointBinderENSt3__112basic_stringIcNS1_11char_traitsIcEENS1_9allocatorIcEEEENS1_8functionIFvNS1_10unique_ptrINS_6BinderENS1_14default_deleteISA_EEEEEEE.cold.1, symObjAddr: 0x29E8, symBinAddr: 0x4D508, symSize: 0x38 }
  - { offsetInCU: 0xAA28, offset: 0x2726B5, size: 0x8, addend: 0x0, symName: __ZN4absl12lts_2022062318container_internal12raw_hash_mapINS1_17FlatHashMapPolicyINSt3__112basic_stringIcNS4_11char_traitsIcEENS4_9allocatorIcEEEENS4_10unique_ptrIN11grpc_binder6BinderENS4_14default_deleteISD_EEEEEENS1_10StringHashENS1_8StringEqENS8_INS4_4pairIKSA_SG_EEEEE16try_emplace_implIRSL_JEEENSK_INS1_12raw_hash_setISH_SI_SJ_SN_E8iteratorEbEEOT_DpOT0_, symObjAddr: 0xA88, symBinAddr: 0x25928, symSize: 0x90 }
  - { offsetInCU: 0xAB52, offset: 0x2727DF, size: 0x8, addend: 0x0, symName: __ZN4absl12lts_2022062318container_internal12raw_hash_setINS1_17FlatHashMapPolicyINSt3__112basic_stringIcNS4_11char_traitsIcEENS4_9allocatorIcEEEENS4_10unique_ptrIN11grpc_binder6BinderENS4_14default_deleteISD_EEEEEENS1_10StringHashENS1_8StringEqENS8_INS4_4pairIKSA_SG_EEEEE22find_or_prepare_insertISA_EENSK_ImbEERKT_, symObjAddr: 0xB18, symBinAddr: 0x259B8, symSize: 0x19C }
  - { offsetInCU: 0xAB6D, offset: 0x2727FA, size: 0x8, addend: 0x0, symName: __ZN4absl12lts_2022062318container_internal12raw_hash_mapINS1_17FlatHashMapPolicyINSt3__112basic_stringIcNS4_11char_traitsIcEENS4_9allocatorIcEEEENS4_10unique_ptrIN11grpc_binder6BinderENS4_14default_deleteISD_EEEEEENS1_10StringHashENS1_8StringEqENS8_INS4_4pairIKSA_SG_EEEEEixISA_SH_EEDTclsrT0_5valueclL_ZNS4_9addressofB7v160006ISM_EEPT_RSS_EclL_ZNS4_7declvalIRSM_EEDTclsr3stdE9__declvalISS_ELi0EEEvEEEEERKSS_.cold.1, symObjAddr: 0x2A20, symBinAddr: 0x4D540, symSize: 0x24 }
  - { offsetInCU: 0xABB1, offset: 0x27283E, size: 0x8, addend: 0x0, symName: __ZN4absl12lts_2022062318container_internal12raw_hash_setINS1_17FlatHashMapPolicyINSt3__112basic_stringIcNS4_11char_traitsIcEENS4_9allocatorIcEEEENS4_10unique_ptrIN11grpc_binder6BinderENS4_14default_deleteISD_EEEEEENS1_10StringHashENS1_8StringEqENS8_INS4_4pairIKSA_SG_EEEEE4findISA_EENSO_8iteratorERKT_, symObjAddr: 0x1668, symBinAddr: 0x26508, symSize: 0x84 }
  - { offsetInCU: 0xAF18, offset: 0x272BA5, size: 0x8, addend: 0x0, symName: __ZN4absl12lts_2022062318container_internal12raw_hash_setINS1_17FlatHashMapPolicyINSt3__112basic_stringIcNS4_11char_traitsIcEENS4_9allocatorIcEEEENS4_10unique_ptrIN11grpc_binder6BinderENS4_14default_deleteISD_EEEEEENS1_10StringHashENS1_8StringEqENS8_INS4_4pairIKSA_SG_EEEEE5eraseENSO_8iteratorE, symObjAddr: 0x16EC, symBinAddr: 0x2658C, symSize: 0x54 }
  - { offsetInCU: 0xB067, offset: 0x272CF4, size: 0x8, addend: 0x0, symName: __ZN4absl12lts_2022062318container_internal12raw_hash_setINS1_17FlatHashMapPolicyINSt3__112basic_stringIcNS4_11char_traitsIcEENS4_9allocatorIcEEEENS4_10unique_ptrIN11grpc_binder6BinderENS4_14default_deleteISD_EEEEEENS1_10StringHashENS1_8StringEqENS8_INS4_4pairIKSA_SG_EEEEE15erase_meta_onlyENSO_14const_iteratorE, symObjAddr: 0x1740, symBinAddr: 0x265E0, symSize: 0xC4 }
  - { offsetInCU: 0xB123, offset: 0x272DB0, size: 0x8, addend: 0x0, symName: __ZN4absl12lts_2022062318container_internal12raw_hash_mapINS1_17FlatHashMapPolicyINSt3__112basic_stringIcNS4_11char_traitsIcEENS4_9allocatorIcEEEENS4_8functionIFvNS4_10unique_ptrIN11grpc_binder6BinderENS4_14default_deleteISE_EEEEEEEEENS1_10StringHashENS1_8StringEqENS8_INS4_4pairIKSA_SJ_EEEEE16try_emplace_implIRSO_JEEENSN_INS1_12raw_hash_setISK_SL_SM_SQ_E8iteratorEbEEOT_DpOT0_, symObjAddr: 0x1A88, symBinAddr: 0x26928, symSize: 0x94 }
  - { offsetInCU: 0xB24D, offset: 0x272EDA, size: 0x8, addend: 0x0, symName: __ZN4absl12lts_2022062318container_internal12raw_hash_setINS1_17FlatHashMapPolicyINSt3__112basic_stringIcNS4_11char_traitsIcEENS4_9allocatorIcEEEENS4_8functionIFvNS4_10unique_ptrIN11grpc_binder6BinderENS4_14default_deleteISE_EEEEEEEEENS1_10StringHashENS1_8StringEqENS8_INS4_4pairIKSA_SJ_EEEEE22find_or_prepare_insertISA_EENSN_ImbEERKT_, symObjAddr: 0x1B1C, symBinAddr: 0x269BC, symSize: 0x1A4 }
  - { offsetInCU: 0xB268, offset: 0x272EF5, size: 0x8, addend: 0x0, symName: __ZN4absl12lts_2022062318container_internal12raw_hash_mapINS1_17FlatHashMapPolicyINSt3__112basic_stringIcNS4_11char_traitsIcEENS4_9allocatorIcEEEENS4_8functionIFvNS4_10unique_ptrIN11grpc_binder6BinderENS4_14default_deleteISE_EEEEEEEEENS1_10StringHashENS1_8StringEqENS8_INS4_4pairIKSA_SJ_EEEEEixISA_SK_EEDTclsrT0_5valueclL_ZNS4_9addressofB7v160006ISP_EEPT_RSV_EclL_ZNS4_7declvalIRSP_EEDTclsr3stdE9__declvalISV_ELi0EEEvEEEEERKSV_.cold.1, symObjAddr: 0x2A44, symBinAddr: 0x4D564, symSize: 0x24 }
  - { offsetInCU: 0xB424, offset: 0x2730B1, size: 0x8, addend: 0x0, symName: __ZN11grpc_binder18EndpointBinderPool17AddEndpointBinderENSt3__112basic_stringIcNS1_11char_traitsIcEENS1_9allocatorIcEEEENS1_10unique_ptrINS_6BinderENS1_14default_deleteIS9_EEEE, symObjAddr: 0x2EC, symBinAddr: 0x2529C, symSize: 0x294 }
  - { offsetInCU: 0xBE8E, offset: 0x273B1B, size: 0x8, addend: 0x0, symName: __ZN4absl12lts_2022062318container_internal12raw_hash_setINS1_17FlatHashMapPolicyINSt3__112basic_stringIcNS4_11char_traitsIcEENS4_9allocatorIcEEEENS4_8functionIFvNS4_10unique_ptrIN11grpc_binder6BinderENS4_14default_deleteISE_EEEEEEEEENS1_10StringHashENS1_8StringEqENS8_INS4_4pairIKSA_SJ_EEEEE5eraseISA_EEmRKT_, symObjAddr: 0x580, symBinAddr: 0x25530, symSize: 0x58 }
  - { offsetInCU: 0xBF30, offset: 0x273BBD, size: 0x8, addend: 0x0, symName: __ZN11grpc_binder18EndpointBinderPool17AddEndpointBinderENSt3__112basic_stringIcNS1_11char_traitsIcEENS1_9allocatorIcEEEENS1_10unique_ptrINS_6BinderENS1_14default_deleteIS9_EEEE.cold.1, symObjAddr: 0x2A68, symBinAddr: 0x4D588, symSize: 0x38 }
  - { offsetInCU: 0xBF48, offset: 0x273BD5, size: 0x8, addend: 0x0, symName: __ZN4absl12lts_2022062318container_internal12raw_hash_setINS1_17FlatHashMapPolicyINSt3__112basic_stringIcNS4_11char_traitsIcEENS4_9allocatorIcEEEENS4_8functionIFvNS4_10unique_ptrIN11grpc_binder6BinderENS4_14default_deleteISE_EEEEEEEEENS1_10StringHashENS1_8StringEqENS8_INS4_4pairIKSA_SJ_EEEEE4findISA_EENSR_8iteratorERKT_, symObjAddr: 0x284C, symBinAddr: 0x276A0, symSize: 0x84 }
  - { offsetInCU: 0xC2AF, offset: 0x273F3C, size: 0x8, addend: 0x0, symName: __ZN4absl12lts_2022062318container_internal12raw_hash_setINS1_17FlatHashMapPolicyINSt3__112basic_stringIcNS4_11char_traitsIcEENS4_9allocatorIcEEEENS4_8functionIFvNS4_10unique_ptrIN11grpc_binder6BinderENS4_14default_deleteISE_EEEEEEEEENS1_10StringHashENS1_8StringEqENS8_INS4_4pairIKSA_SJ_EEEEE5eraseENSR_8iteratorE, symObjAddr: 0x28D0, symBinAddr: 0x27724, symSize: 0x54 }
  - { offsetInCU: 0xC3FE, offset: 0x27408B, size: 0x8, addend: 0x0, symName: __ZN4absl12lts_2022062318container_internal12raw_hash_setINS1_17FlatHashMapPolicyINSt3__112basic_stringIcNS4_11char_traitsIcEENS4_9allocatorIcEEEENS4_8functionIFvNS4_10unique_ptrIN11grpc_binder6BinderENS4_14default_deleteISE_EEEEEEEEENS1_10StringHashENS1_8StringEqENS8_INS4_4pairIKSA_SJ_EEEEE15erase_meta_onlyENSR_14const_iteratorE, symObjAddr: 0x2924, symBinAddr: 0x27778, symSize: 0xC4 }
  - { offsetInCU: 0xC5C5, offset: 0x274252, size: 0x8, addend: 0x0, symName: __ZN4absl12lts_2022062318container_internal10DeallocateILm8ENSt3__19allocatorINS3_4pairIKNS3_12basic_stringIcNS3_11char_traitsIcEENS4_IcEEEENS3_10unique_ptrIN11grpc_binder6BinderENS3_14default_deleteISE_EEEEEEEEEEvPT0_Pvm.cold.1, symObjAddr: 0x2AA0, symBinAddr: 0x4D5C0, symSize: 0x28 }
  - { offsetInCU: 0xC6CA, offset: 0x274357, size: 0x8, addend: 0x0, symName: __ZN4absl12lts_2022062316allocator_traitsINSt3__19allocatorINS2_4pairIKNS2_12basic_stringIcNS2_11char_traitsIcEENS3_IcEEEENS2_10unique_ptrIN11grpc_binder6BinderENS2_14default_deleteISD_EEEEEEEEE12destroy_implINS4_IS9_SG_EEEEvcRSI_PT_, symObjAddr: 0x6C0, symBinAddr: 0x25664, symSize: 0x4C }
